(dp1
S'cv_endtime'
p2
(lp3
F1472552911.806726
aF1472553124.5192249
aF1472553188.5281551
aF1472553499.372447
aF1472553877.807121
aF1472553947.830076
aF1472554068.9692769
aF1472554185.38888
aF1472554561.8402939
aF1472554970.20716
aF1472555040.1334901
aF1472555110.174722
aF1472555174.316535
aF1472555329.0976419
aF1472555467.7642961
aF1472555827.858959
aF1472555934.3781359
aF1472556085.2919011
aF1472556122.3066239
aF1472556383.550591
aF1472556430.7093761
aF1472556453.958847
aF1472556528.3091941
aF1472556564.7000289
aF1472556665.9966681
aF1472556745.053169
aF1472556873.895406
aF1472556952.0622721
aF1472557086.4205911
aF1472557141.210372
aF1472557412.2941689
aF1472557610.8795941
aF1472557630.3067949
aF1472557658.700793
aF1472557701.0782809
aF1472557731.0281579
aF1472557841.2121749
aF1472557908.9252651
aF1472557932.709964
aF1472558350.4784391
aF1472558398.949142
aF1472558459.0181601
aF1472558500.917917
aF1472558537.7649801
aF1472558579.185472
aF1472558649.0860131
aF1472558754.876261
aF1472558835.106473
aF1472558884.5272789
aF1472558934.076098
aF1472559070.9061091
aF1472559126.711628
aF1472559209.23558
aF1472559282.5763741
aF1472559489.9154539
aF1472559622.21608
aF1472559658.3995039
aF1472559717.627949
aF1472559757.938328
aF1472560007.3118169
aF1472560152.108932
aF1472560192.339535
aF1472560351.411361
aF1472560570.2587571
aF1472560642.117027
aF1472560688.6156781
aF1472560742.6857979
aF1472560807.96857
aF1472560849.2361979
aF1472560937.684422
aF1472561057.6288199
aF1472561132.2860341
aF1472561177.8405111
aF1472561211.480727
aF1472561276.0634639
aF1472561333.782023
aF1472561377.4706349
aF1472561420.835027
aF1472561524.782717
aF1472561559.872159
aF1472561625.3223929
aF1472561928.937212
aF1472561993.315469
aF1472562045.7434261
aF1472562114.4635291
aF1472562166.464201
aF1472562432.0573061
aF1472562475.9973509
aF1472562643.59971
aF1472562716.34058
aF1472562786.418041
aF1472562825.303755
aF1472563043.931066
aF1472563131.7778471
aF1472563398.3963971
aF1472563483.813869
aF1472563513.798981
aF1472563552.0310249
aF1472563636.9941411
aF1472563661.1034379
aF1472563790.2226369
aF1472563816.357146
aF1472563939.3541851
aF1472564011.8006761
aF1472564042.4999299
aF1472564150.646872
aF1472564222.8939641
aF1472564252.4350221
aF1472564310.0388241
aF1472564384.654845
aF1472564482.5994971
aF1472564556.1311419
aF1472564603.9922299
aF1472564679.623379
aF1472564746.0770049
aF1472564816.8417161
aF1472565018.715131
aF1472565080.717329
aF1472565297.8576119
aF1472565390.0336571
aF1472565483.0908899
aF1472565547.0749559
aF1472565652.3946919
aF1472565721.2321081
aF1472565800.6678801
aF1472565901.345741
aF1472566049.2292919
aF1472566146.8791981
aF1472566291.739254
aF1472566377.976841
aF1472566452.8457329
aF1472566581.700227
aF1472566654.130553
aF1472566793.007962
aF1472566913.792732
aF1472567033.1813779
aF1472567164.862078
aF1472567226.831306
aF1472567290.605176
aF1472567375.2741461
aF1472567423.042532
aF1472567504.3431439
aF1472567555.217576
aF1472567699.7583959
aF1472567750.406508
aF1472567808.1981411
aF1472567880.804687
aF1472567924.5081279
aF1472567964.4857709
aF1472568049.561476
aF1472568141.617552
aF1472568173.9679461
aF1472568258.2721939
aF1472568376.1430669
aF1472568443.29738
aF1472568554.995316
aF1472568614.556278
aF1472568696.937237
aF1472568717.5653839
aF1472568815.052484
aF1472568855.05159
aF1472568888.4212959
aF1472568935.0057881
aF1472568966.7000539
aF1472568996.6033559
aF1472569056.340868
aF1472569104.9095769
aF1472569191.6955919
aF1472569240.1828799
aF1472569278.82809
aF1472569325.9982679
aF1472569358.634897
aF1472569381.816792
aF1472569658.0563011
aF1472569721.6464701
aF1472569787.1852829
aF1472569831.139173
aF1472569885.1549809
aF1472570012.903142
aF1472570050.336715
aF1472570076.5901151
aF1472570527.170084
aF1472570580.9279799
aF1472570633.7378061
aF1472570652.9751871
aF1472570839.499336
aF1472571127.9287081
aF1472571213.4509161
aF1472571271.877372
aF1472571322.255585
aF1472571350.4169259
aF1472571450.575665
aF1472571541.766428
aF1472571693.2837529
aF1472571790.8221469
aF1472571878.4292109
aF1472571959.2685101
aF1472572053.976824
aF1472572179.7917409
aF1472572235.6561279
asS'folds'
p4
I1
sS'cv_starttime'
p5
(lp6
F1472552690.4065771
aF1472552911.8330491
aF1472553124.545418
aF1472553188.5523059
aF1472553499.40061
aF1472553877.8359849
aF1472553947.8557761
aF1472554068.9963019
aF1472554185.417186
aF1472554561.8697469
aF1472554970.2349279
aF1472555040.163234
aF1472555110.2029791
aF1472555174.3479049
aF1472555329.122488
aF1472555467.7969911
aF1472555827.8904519
aF1472555934.4084859
aF1472556085.322156
aF1472556122.339035
aF1472556383.591747
aF1472556430.753942
aF1472556454.000849
aF1472556528.349334
aF1472556564.7449429
aF1472556666.029321
aF1472556745.100786
aF1472556873.941772
aF1472556952.0907631
aF1472557086.4665749
aF1472557141.2593429
aF1472557412.34041
aF1472557610.9153371
aF1472557630.369523
aF1472557658.7529221
aF1472557701.1132469
aF1472557731.07709
aF1472557841.2573609
aF1472557908.9795611
aF1472557932.7600031
aF1472558350.5297711
aF1472558399.003623
aF1472558459.071908
aF1472558500.970381
aF1472558537.8184259
aF1472558579.24106
aF1472558649.138598
aF1472558754.9303491
aF1472558835.158309
aF1472558884.584451
aF1472558934.133105
aF1472559070.96544
aF1472559126.7650781
aF1472559209.289844
aF1472559282.6373241
aF1472559489.963963
aF1472559622.2525401
aF1472559658.440897
aF1472559717.6906099
aF1472559757.979985
aF1472560007.374927
aF1472560152.17155
aF1472560192.404228
aF1472560351.47211
aF1472560570.3262191
aF1472560642.162632
aF1472560688.680095
aF1472560742.7490001
aF1472560808.0373311
aF1472560849.293961
aF1472560937.739408
aF1472561057.6982131
aF1472561132.353651
aF1472561177.8852229
aF1472561211.5338571
aF1472561276.1090701
aF1472561333.8441789
aF1472561377.5389919
aF1472561420.879509
aF1472561524.856009
aF1472561559.915426
aF1472561625.3863671
aF1472561928.995261
aF1472561993.3886211
aF1472562045.814322
aF1472562114.538101
aF1472562166.541471
aF1472562432.1015799
aF1472562476.068254
aF1472562643.648694
aF1472562716.41519
aF1472562786.4673359
aF1472562825.4001629
aF1472563044.0103049
aF1472563131.8597939
aF1472563398.473938
aF1472563483.8653691
aF1472563513.8620119
aF1472563552.1107991
aF1472563637.0730939
aF1472563661.183044
aF1472563790.301173
aF1472563816.439769
aF1472563939.429795
aF1472564011.8764589
aF1472564042.5769391
aF1472564150.732074
aF1472564222.9733341
aF1472564252.519305
aF1472564310.1230271
aF1472564384.737082
aF1472564482.6797869
aF1472564556.214124
aF1472564604.0753191
aF1472564679.717092
aF1472564746.1587789
aF1472564816.92873
aF1472565018.7988551
aF1472565080.7977049
aF1472565297.947196
aF1472565390.1223609
aF1472565483.1789241
aF1472565547.165061
aF1472565652.4844611
aF1472565721.3225811
aF1472565800.76017
aF1472565901.440043
aF1472566049.320606
aF1472566146.9573669
aF1472566291.820538
aF1472566378.066895
aF1472566452.9355531
aF1472566581.7872391
aF1472566654.2186589
aF1472566793.0999701
aF1472566913.88451
aF1472567033.2749479
aF1472567164.9590411
aF1472567226.9262991
aF1472567290.7008569
aF1472567375.376579
aF1472567423.134156
aF1472567504.440825
aF1472567555.3168399
aF1472567699.838484
aF1472567750.5052171
aF1472567808.2724941
aF1472567880.9020591
aF1472567924.6052721
aF1472567964.5829639
aF1472568049.66098
aF1472568141.701118
aF1472568174.025867
aF1472568258.3722401
aF1472568376.2391939
aF1472568443.3950591
aF1472568555.0665081
aF1472568614.6575711
aF1472568697.0100811
aF1472568717.6470549
aF1472568815.1513369
aF1472568855.1522241
aF1472568888.5185111
aF1472568935.10692
aF1472568966.8029881
aF1472568996.7043591
aF1472569056.474534
aF1472569105.0144961
aF1472569191.7997949
aF1472569240.305095
aF1472569278.890641
aF1472569326.1014259
aF1472569358.7433441
aF1472569381.9378941
aF1472569658.1645131
aF1472569721.7530029
aF1472569787.2975709
aF1472569831.262928
aF1472569885.268182
aF1472570013.0143549
aF1472570050.4467239
aF1472570076.710876
aF1472570527.278403
aF1472570581.037632
aF1472570633.8523741
aF1472570653.0639839
aF1472570839.6050711
aF1472571128.0382221
aF1472571213.5796549
aF1472571271.9880459
aF1472571322.3675449
aF1472571350.5019579
aF1472571450.6911719
aF1472571541.879786
aF1472571693.4009969
aF1472571790.9589529
aF1472571878.5446341
aF1472571959.3847041
aF1472572054.0789111
aF1472572179.9061439
asS'endtime'
p7
(lp8
F1472572236.995096
asS'optimizer'
p9
S'/root/tf-hpolib/HPOlib/optimizers/tpe/hyperopt_august2013_mod'
p10
sS'optimizer_time'
p11
(lp12
F0.34506011009216309
aF0.026323080062866211
aF0.026193141937255859
aF0.024150848388671875
aF0.028162956237792969
aF0.028863906860351562
aF0.025700092315673828
aF0.027024984359741211
aF0.028306007385253906
aF0.029453039169311523
aF0.02776789665222168
aF0.02974390983581543
aF0.028257131576538086
aF0.031369924545288086
aF0.024846076965332031
aF0.03269505500793457
aF0.031492948532104492
aF0.030349969863891602
aF0.030254840850830078
aF0.032411098480224609
aF0.04115605354309082
aF0.044565916061401367
aF0.042001962661743164
aF0.040139913558959961
aF0.044914007186889648
aF0.032652854919433594
aF0.047616958618164062
aF0.046365976333618164
aF0.028491020202636719
aF0.045983791351318359
aF0.048970937728881836
aF0.046241044998168945
aF0.035742998123168945
aF0.062728166580200195
aF0.052129030227661133
aF0.034965991973876953
aF0.048932075500488281
aF0.045186042785644531
aF0.054296016693115234
aF0.050039052963256836
aF0.051331996917724609
aF0.054481029510498047
aF0.053747892379760742
aF0.052464008331298828
aF0.053445816040039062
aF0.055588006973266602
aF0.05258488655090332
aF0.054088115692138672
aF0.051836013793945312
aF0.057172060012817383
aF0.057007074356079102
aF0.059330940246582031
aF0.053450107574462891
aF0.054264068603515625
aF0.060950040817260742
aF0.048509120941162109
aF0.036460161209106445
aF0.041393041610717773
aF0.062660932540893555
aF0.041656970977783203
aF0.063110113143920898
aF0.062618017196655273
aF0.064692974090576172
aF0.060749053955078125
aF0.067461967468261719
aF0.045604944229125977
aF0.064416885375976562
aF0.063202142715454102
aF0.068761110305786133
aF0.057763099670410156
aF0.054986000061035156
aF0.069393157958984375
aF0.067616939544677734
aF0.044711828231811523
aF0.053130149841308594
aF0.045606136322021484
aF0.062155961990356445
aF0.068356990814208984
aF0.044481992721557617
aF0.073292016983032227
aF0.043267011642456055
aF0.063974142074584961
aF0.05804896354675293
aF0.073152065277099609
aF0.070895910263061523
aF0.074571847915649414
aF0.077270030975341797
aF0.044273853302001953
aF0.07090306282043457
aF0.048984050750732422
aF0.074609994888305664
aF0.049294948577880859
aF0.096407890319824219
aF0.0792388916015625
aF0.081946849822998047
aF0.077540874481201172
aF0.051500082015991211
aF0.06303095817565918
aF0.079774141311645508
aF0.078952789306640625
aF0.079606056213378906
aF0.078536033630371094
aF0.082623004913330078
aF0.075609922409057617
aF0.07578277587890625
aF0.077009201049804688
aF0.08520197868347168
aF0.079370021820068359
aF0.084282875061035156
aF0.084203004837036133
aF0.082237005233764648
aF0.080289840698242188
aF0.082982063293457031
aF0.083089113235473633
aF0.093713045120239258
aF0.081773996353149414
aF0.087013959884643555
aF0.083724021911621094
aF0.080375909805297852
aF0.089584112167358398
aF0.08870387077331543
aF0.088034152984619141
aF0.090105056762695312
aF0.089769124984741211
aF0.090472936630249023
aF0.092289924621582031
aF0.094301939010620117
aF0.091314077377319336
aF0.078168869018554688
aF0.081284046173095703
aF0.090054035186767578
aF0.089820146560668945
aF0.087012052536010742
aF0.088105916976928711
aF0.092008113861083984
aF0.091778039932250977
aF0.09356999397277832
aF0.096963167190551758
aF0.094993114471435547
aF0.095680952072143555
aF0.1024329662322998
aF0.091624021530151367
aF0.097681045532226562
aF0.099263906478881836
aF0.080088138580322266
aF0.0987091064453125
aF0.07435297966003418
aF0.097372055053710938
aF0.097144126892089844
aF0.097193002700805664
aF0.099503993988037109
aF0.083565950393676758
aF0.057920932769775391
aF0.10004615783691406
aF0.096127033233642578
aF0.09767913818359375
aF0.071192026138305664
aF0.10129308700561523
aF0.072844028472900391
aF0.081670999526977539
aF0.098852872848510742
aF0.10063409805297852
aF0.097215175628662109
aF0.10113191604614258
aF0.10293412208557129
aF0.10100317001342773
aF0.13366603851318359
aF0.1049191951751709
aF0.1042029857635498
aF0.12221503257751465
aF0.062551021575927734
aF0.10315799713134766
aF0.10844707489013672
aF0.12110209465026855
aF0.10821199417114258
aF0.10653281211853027
aF0.11228799819946289
aF0.12375497817993164
aF0.11320114135742188
aF0.11121296882629395
aF0.11000895500183105
aF0.12076091766357422
aF0.10831904411315918
aF0.10965204238891602
aF0.11456799507141113
aF0.088796854019165039
aF0.10573506355285645
aF0.10951399803161621
aF0.1287388801574707
aF0.11067390441894531
aF0.11195993423461914
aF0.085031986236572266
aF0.11550688743591309
aF0.1133580207824707
aF0.11724400520324707
aF0.13680601119995117
aF0.11542320251464844
aF0.11619400978088379
aF0.10208702087402344
aF0.11440300941467285
aF1.33896803855896
asS'instance_order'
p13
(lp14
(I0
I0
tp15
a(I1
I0
tp16
a(I2
I0
tp17
a(I3
I0
tp18
a(I4
I0
tp19
a(I5
I0
tp20
a(I6
I0
tp21
a(I7
I0
tp22
a(I8
I0
tp23
a(I9
I0
tp24
a(I10
I0
tp25
a(I11
I0
tp26
a(I12
I0
tp27
a(I13
I0
tp28
a(I14
I0
tp29
a(I15
I0
tp30
a(I16
I0
tp31
a(I17
I0
tp32
a(I18
I0
tp33
a(I19
I0
tp34
a(I20
I0
tp35
a(I21
I0
tp36
a(I22
I0
tp37
a(I23
I0
tp38
a(I24
I0
tp39
a(I25
I0
tp40
a(I26
I0
tp41
a(I27
I0
tp42
a(I28
I0
tp43
a(I29
I0
tp44
a(I30
I0
tp45
a(I31
I0
tp46
a(I32
I0
tp47
a(I33
I0
tp48
a(I34
I0
tp49
a(I35
I0
tp50
a(I36
I0
tp51
a(I37
I0
tp52
a(I38
I0
tp53
a(I39
I0
tp54
a(I40
I0
tp55
a(I41
I0
tp56
a(I42
I0
tp57
a(I43
I0
tp58
a(I44
I0
tp59
a(I45
I0
tp60
a(I46
I0
tp61
a(I47
I0
tp62
a(I48
I0
tp63
a(I49
I0
tp64
a(I50
I0
tp65
a(I51
I0
tp66
a(I52
I0
tp67
a(I53
I0
tp68
a(I54
I0
tp69
a(I55
I0
tp70
a(I56
I0
tp71
a(I57
I0
tp72
a(I58
I0
tp73
a(I59
I0
tp74
a(I60
I0
tp75
a(I61
I0
tp76
a(I62
I0
tp77
a(I63
I0
tp78
a(I64
I0
tp79
a(I65
I0
tp80
a(I66
I0
tp81
a(I67
I0
tp82
a(I68
I0
tp83
a(I69
I0
tp84
a(I70
I0
tp85
a(I71
I0
tp86
a(I72
I0
tp87
a(I73
I0
tp88
a(I74
I0
tp89
a(I75
I0
tp90
a(I76
I0
tp91
a(I77
I0
tp92
a(I78
I0
tp93
a(I79
I0
tp94
a(I80
I0
tp95
a(I81
I0
tp96
a(I82
I0
tp97
a(I83
I0
tp98
a(I84
I0
tp99
a(I85
I0
tp100
a(I86
I0
tp101
a(I87
I0
tp102
a(I88
I0
tp103
a(I89
I0
tp104
a(I90
I0
tp105
a(I91
I0
tp106
a(I92
I0
tp107
a(I93
I0
tp108
a(I94
I0
tp109
a(I95
I0
tp110
a(I96
I0
tp111
a(I97
I0
tp112
a(I98
I0
tp113
a(I99
I0
tp114
a(I100
I0
tp115
a(I101
I0
tp116
a(I102
I0
tp117
a(I103
I0
tp118
a(I104
I0
tp119
a(I105
I0
tp120
a(I106
I0
tp121
a(I107
I0
tp122
a(I108
I0
tp123
a(I109
I0
tp124
a(I110
I0
tp125
a(I111
I0
tp126
a(I112
I0
tp127
a(I113
I0
tp128
a(I114
I0
tp129
a(I115
I0
tp130
a(I116
I0
tp131
a(I117
I0
tp132
a(I118
I0
tp133
a(I119
I0
tp134
a(I120
I0
tp135
a(I121
I0
tp136
a(I122
I0
tp137
a(I123
I0
tp138
a(I124
I0
tp139
a(I125
I0
tp140
a(I126
I0
tp141
a(I127
I0
tp142
a(I128
I0
tp143
a(I129
I0
tp144
a(I130
I0
tp145
a(I131
I0
tp146
a(I132
I0
tp147
a(I133
I0
tp148
a(I134
I0
tp149
a(I135
I0
tp150
a(I136
I0
tp151
a(I137
I0
tp152
a(I138
I0
tp153
a(I139
I0
tp154
a(I140
I0
tp155
a(I141
I0
tp156
a(I142
I0
tp157
a(I143
I0
tp158
a(I144
I0
tp159
a(I145
I0
tp160
a(I146
I0
tp161
a(I147
I0
tp162
a(I148
I0
tp163
a(I149
I0
tp164
a(I150
I0
tp165
a(I151
I0
tp166
a(I152
I0
tp167
a(I153
I0
tp168
a(I154
I0
tp169
a(I155
I0
tp170
a(I156
I0
tp171
a(I157
I0
tp172
a(I158
I0
tp173
a(I159
I0
tp174
a(I160
I0
tp175
a(I161
I0
tp176
a(I162
I0
tp177
a(I163
I0
tp178
a(I164
I0
tp179
a(I165
I0
tp180
a(I166
I0
tp181
a(I167
I0
tp182
a(I168
I0
tp183
a(I169
I0
tp184
a(I170
I0
tp185
a(I171
I0
tp186
a(I172
I0
tp187
a(I173
I0
tp188
a(I174
I0
tp189
a(I175
I0
tp190
a(I176
I0
tp191
a(I177
I0
tp192
a(I178
I0
tp193
a(I179
I0
tp194
a(I180
I0
tp195
a(I181
I0
tp196
a(I182
I0
tp197
a(I183
I0
tp198
a(I184
I0
tp199
a(I185
I0
tp200
a(I186
I0
tp201
a(I187
I0
tp202
a(I188
I0
tp203
a(I189
I0
tp204
a(I190
I0
tp205
a(I191
I0
tp206
a(I192
I0
tp207
a(I193
I0
tp208
a(I194
I0
tp209
a(I195
I0
tp210
a(I196
I0
tp211
a(I197
I0
tp212
a(I198
I0
tp213
a(I199
I0
tp214
asS'max_wallclock_time'
p215
S''
sS'title'
p216
NsS'trials'
p217
(lp218
(dp219
S'status'
p220
I3
sS'std'
p221
cnumpy.core.multiarray
scalar
p222
(cnumpy
dtype
p223
(S'f8'
I0
I1
tRp224
(I3
S'<'
NNNI-1
I-1
I0
tbS'\x00\x00\x00\x00\x00\x00\x00\x00'
tRp225
sS'instance_durations'
p226
cnumpy.core.multiarray
_reconstruct
p227
(cnumpy
ndarray
p228
(I0
tS'b'
tRp229
(I1
(I1
tg223
(S'f8'
I0
I1
tRp230
(I3
S'<'
NNNI-1
I-1
I0
tbI00
S'y\xe9&1\x08\xa4k@'
tbsS'instance_results'
p231
g227
(g228
(I0
tS'b'
tRp232
(I1
(I1
tg230
I00
S'\xaeG\xe1z\x14nV@'
tbsS'instance_status'
p233
g227
(g228
(I0
tS'b'
tRp234
(I1
(I1
tg223
(S'i8'
I0
I1
tRp235
(I3
S'<'
NNNI-1
I-1
I0
tbI00
S'\x03\x00\x00\x00\x00\x00\x00\x00'
tbsS'params'
p236
ccollections
OrderedDict
p237
((lp238
(lp239
S'-conv1_depth'
p240
aS'146.0'
p241
aa(lp242
S'-conv2_depth'
p243
aS'392.0'
p244
aa(lp245
S'-fc_depth'
p246
aS'485.0'
p247
aa(lp248
S'-filter_size'
p249
aS'8.0'
p250
aatRp251
sS'result'
p252
g222
(g224
S'\xaeG\xe1z\x14nV@'
tRp253
sS'duration'
p254
g222
(g224
S'y\xe9&1\x08\xa4k@'
tRp255
sS'test_error'
p256
Fnan
sa(dp257
S'status'
p258
I3
sS'std'
p259
g222
(g224
S'\x00\x00\x00\x00\x00\x00\x00\x00'
tRp260
sS'instance_durations'
p261
g227
(g228
(I0
tS'b'
tRp262
(I1
(I1
tg223
(S'f8'
I0
I1
tRp263
(I3
S'<'
NNNI-1
I-1
I0
tbI00
S'5^\xbaI\x0c\x8ej@'
tbsS'instance_results'
p264
g227
(g228
(I0
tS'b'
tRp265
(I1
(I1
tg263
I00
S'\xd7\xa3p=\n\xd79@'
tbsS'instance_status'
p266
g227
(g228
(I0
tS'b'
tRp267
(I1
(I1
tg223
(S'i8'
I0
I1
tRp268
(I3
S'<'
NNNI-1
I-1
I0
tbI00
S'\x03\x00\x00\x00\x00\x00\x00\x00'
tbsS'params'
p269
g237
((lp270
(lp271
S'-conv1_depth'
p272
aS'114.0'
p273
aa(lp274
S'-conv2_depth'
p275
aS'512.0'
p276
aa(lp277
S'-fc_depth'
p278
aS'358.0'
p279
aa(lp280
S'-filter_size'
p281
aS'13.0'
p282
aatRp283
sS'result'
p284
g222
(g224
S'\xd7\xa3p=\n\xd79@'
tRp285
sS'duration'
p286
g222
(g224
S'5^\xbaI\x0c\x8ej@'
tRp287
sS'test_error'
p288
Fnan
sa(dp289
S'status'
p290
I3
sS'std'
p291
g222
(g224
S'\x00\x00\x00\x00\x00\x00\x00\x00'
tRp292
sS'instance_durations'
p293
g227
(g228
(I0
tS'b'
tRp294
(I1
(I1
tg223
(S'f8'
I0
I1
tRp295
(I3
S'<'
NNNI-1
I-1
I0
tbI00
S'M\x84\rO\xaf\xe4O@'
tbsS'instance_results'
p296
g227
(g228
(I0
tS'b'
tRp297
(I1
(I1
tg295
I00
S'\xe1z\x14\xaeG\xe1\x00@'
tbsS'test_error'
p298
Fnan
sS'params'
p299
g237
((lp300
(lp301
S'-conv1_depth'
p302
aS'96.0'
p303
aa(lp304
S'-conv2_depth'
p305
aS'144.0'
p306
aa(lp307
S'-fc_depth'
p308
aS'299.0'
p309
aa(lp310
S'-filter_size'
p311
aS'12.0'
p312
aatRp313
sS'result'
p314
g222
(g224
S'\xe1z\x14\xaeG\xe1\x00@'
tRp315
sS'duration'
p316
g222
(g224
S'M\x84\rO\xaf\xe4O@'
tRp317
sS'instance_status'
p318
g227
(g228
(I0
tS'b'
tRp319
(I1
(I1
tg223
(S'i8'
I0
I1
tRp320
(I3
S'<'
NNNI-1
I-1
I0
tbI00
S'\x03\x00\x00\x00\x00\x00\x00\x00'
tbsa(dp321
S'status'
p322
I3
sS'std'
p323
g222
(g224
S'\x00\x00\x00\x00\x00\x00\x00\x00'
tRp324
sS'instance_durations'
p325
g227
(g228
(I0
tS'b'
tRp326
(I1
(I1
tg223
(S'f8'
I0
I1
tRp327
(I3
S'<'
NNNI-1
I-1
I0
tbI00
S'?5^\xbaIhs@'
tbsS'instance_results'
p328
g227
(g228
(I0
tS'b'
tRp329
(I1
(I1
tg327
I00
S'\xaeG\xe1z\x14nV@'
tbsS'instance_status'
p330
g227
(g228
(I0
tS'b'
tRp331
(I1
(I1
tg223
(S'i8'
I0
I1
tRp332
(I3
S'<'
NNNI-1
I-1
I0
tbI00
S'\x03\x00\x00\x00\x00\x00\x00\x00'
tbsS'params'
p333
g237
((lp334
(lp335
S'-conv1_depth'
p336
aS'404.0'
p337
aa(lp338
S'-conv2_depth'
p339
aS'394.0'
p340
aa(lp341
S'-fc_depth'
p342
aS'266.0'
p343
aa(lp344
S'-filter_size'
p345
aS'5.0'
p346
aatRp347
sS'result'
p348
g222
(g224
S'\xaeG\xe1z\x14nV@'
tRp349
sS'duration'
p350
g222
(g224
S'?5^\xbaIhs@'
tRp351
sS'test_error'
p352
Fnan
sa(dp353
S'status'
p354
I3
sS'std'
p355
g222
(g224
S'\x00\x00\x00\x00\x00\x00\x00\x00'
tRp356
sS'instance_durations'
p357
g227
(g228
(I0
tS'b'
tRp358
(I1
(I1
tg223
(S'f8'
I0
I1
tRp359
(I3
S'<'
NNNI-1
I-1
I0
tbI00
S'\x96C\x8bl\xe7\xa1w@'
tbsS'instance_results'
p360
g227
(g228
(I0
tS'b'
tRp361
(I1
(I1
tg359
I00
S'\xaeG\xe1z\x14nV@'
tbsS'test_error'
p362
Fnan
sS'params'
p363
g237
((lp364
(lp365
S'-conv1_depth'
p366
aS'444.0'
p367
aa(lp368
S'-conv2_depth'
p369
aS'376.0'
p370
aa(lp371
S'-fc_depth'
p372
aS'417.0'
p373
aa(lp374
S'-filter_size'
p375
aS'7.0'
p376
aatRp377
sS'result'
p378
g222
(g224
S'\xaeG\xe1z\x14nV@'
tRp379
sS'duration'
p380
g222
(g224
S'\x96C\x8bl\xe7\xa1w@'
tRp381
sS'instance_status'
p382
g227
(g228
(I0
tS'b'
tRp383
(I1
(I1
tg223
(S'i8'
I0
I1
tRp384
(I3
S'<'
NNNI-1
I-1
I0
tbI00
S'\x03\x00\x00\x00\x00\x00\x00\x00'
tbsa(dp385
S'status'
p386
I3
sS'std'
p387
g222
(g224
S'\x00\x00\x00\x00\x00\x00\x00\x00'
tRp388
sS'instance_durations'
p389
g227
(g228
(I0
tS'b'
tRp390
(I1
(I1
tg223
(S'f8'
I0
I1
tRp391
(I3
S'<'
NNNI-1
I-1
I0
tbI00
S'\x9c\xa2#\xb9\xfcoQ@'
tbsS'instance_results'
p392
g227
(g228
(I0
tS'b'
tRp393
(I1
(I1
tg391
I00
S'\xaeG\xe1z\x14nV@'
tbsS'test_error'
p394
Fnan
sS'params'
p395
g237
((lp396
(lp397
S'-conv1_depth'
p398
aS'204.0'
p399
aa(lp400
S'-conv2_depth'
p401
aS'64.0'
p402
aa(lp403
S'-fc_depth'
p404
aS'288.0'
p405
aa(lp406
S'-filter_size'
p407
aS'10.0'
p408
aatRp409
sS'result'
p410
g222
(g224
S'\xaeG\xe1z\x14nV@'
tRp411
sS'duration'
p412
g222
(g224
S'\x9c\xa2#\xb9\xfcoQ@'
tRp413
sS'instance_status'
p414
g227
(g228
(I0
tS'b'
tRp415
(I1
(I1
tg223
(S'i8'
I0
I1
tRp416
(I3
S'<'
NNNI-1
I-1
I0
tbI00
S'\x03\x00\x00\x00\x00\x00\x00\x00'
tbsa(dp417
S'status'
p418
I3
sS'std'
p419
g222
(g224
S'\x00\x00\x00\x00\x00\x00\x00\x00'
tRp420
sS'instance_durations'
p421
g227
(g228
(I0
tS'b'
tRp422
(I1
(I1
tg223
(S'f8'
I0
I1
tRp423
(I3
S'<'
NNNI-1
I-1
I0
tbI00
S'\x08\xac\x1cZd3^@'
tbsS'instance_results'
p424
g227
(g228
(I0
tS'b'
tRp425
(I1
(I1
tg423
I00
S'\n\xd7\xa3p=\n\x10@'
tbsS'instance_status'
p426
g227
(g228
(I0
tS'b'
tRp427
(I1
(I1
tg223
(S'i8'
I0
I1
tRp428
(I3
S'<'
NNNI-1
I-1
I0
tbI00
S'\x03\x00\x00\x00\x00\x00\x00\x00'
tbsS'params'
p429
g237
((lp430
(lp431
S'-conv1_depth'
p432
aS'392.0'
p433
aa(lp434
S'-conv2_depth'
p435
aS'38.0'
p436
aa(lp437
S'-fc_depth'
p438
aS'147.0'
p439
aa(lp440
S'-filter_size'
p441
aS'12.0'
p442
aatRp443
sS'result'
p444
g222
(g224
S'\n\xd7\xa3p=\n\x10@'
tRp445
sS'duration'
p446
g222
(g224
S'\x08\xac\x1cZd3^@'
tRp447
sS'test_error'
p448
Fnan
sa(dp449
S'status'
p450
I3
sS'std'
p451
g222
(g224
S'\x00\x00\x00\x00\x00\x00\x00\x00'
tRp452
sS'instance_durations'
p453
g227
(g228
(I0
tS'b'
tRp454
(I1
(I1
tg223
(S'f8'
I0
I1
tRp455
(I3
S'<'
NNNI-1
I-1
I0
tbI00
S'\xfc\xa9\xf1\xd2M\n]@'
tbsS'instance_results'
p456
g227
(g228
(I0
tS'b'
tRp457
(I1
(I1
tg455
I00
S'\xaeG\xe1z\x14nV@'
tbsS'instance_status'
p458
g227
(g228
(I0
tS'b'
tRp459
(I1
(I1
tg223
(S'i8'
I0
I1
tRp460
(I3
S'<'
NNNI-1
I-1
I0
tbI00
S'\x03\x00\x00\x00\x00\x00\x00\x00'
tbsS'params'
p461
g237
((lp462
(lp463
S'-conv1_depth'
p464
aS'84.0'
p465
aa(lp466
S'-conv2_depth'
p467
aS'340.0'
p468
aa(lp469
S'-fc_depth'
p470
aS'196.0'
p471
aa(lp472
S'-filter_size'
p473
aS'9.0'
p474
aatRp475
sS'result'
p476
g222
(g224
S'\xaeG\xe1z\x14nV@'
tRp477
sS'duration'
p478
g222
(g224
S'\xfc\xa9\xf1\xd2M\n]@'
tRp479
sS'test_error'
p480
Fnan
sa(dp481
S'status'
p482
I3
sS'std'
p483
g222
(g224
S'\x00\x00\x00\x00\x00\x00\x00\x00'
tRp484
sS'instance_durations'
p485
g227
(g228
(I0
tS'b'
tRp486
(I1
(I1
tg223
(S'f8'
I0
I1
tRp487
(I3
S'<'
NNNI-1
I-1
I0
tbI00
S'\x02+\x87\x16\xd9\x82w@'
tbsS'instance_results'
p488
g227
(g228
(I0
tS'b'
tRp489
(I1
(I1
tg487
I00
S'\xaeG\xe1z\x14nV@'
tbsS'test_error'
p490
Fnan
sS'params'
p491
g237
((lp492
(lp493
S'-conv1_depth'
p494
aS'506.0'
p495
aa(lp496
S'-conv2_depth'
p497
aS'394.0'
p498
aa(lp499
S'-fc_depth'
p500
aS'491.0'
p501
aa(lp502
S'-filter_size'
p503
aS'5.0'
p504
aatRp505
sS'result'
p506
g222
(g224
S'\xaeG\xe1z\x14nV@'
tRp507
sS'duration'
p508
g222
(g224
S'\x02+\x87\x16\xd9\x82w@'
tRp509
sS'instance_status'
p510
g227
(g228
(I0
tS'b'
tRp511
(I1
(I1
tg223
(S'i8'
I0
I1
tRp512
(I3
S'<'
NNNI-1
I-1
I0
tbI00
S'\x03\x00\x00\x00\x00\x00\x00\x00'
tbsa(dp513
S'status'
p514
I3
sS'std'
p515
g222
(g224
S'\x00\x00\x00\x00\x00\x00\x00\x00'
tRp516
sS'instance_durations'
p517
g227
(g228
(I0
tS'b'
tRp518
(I1
(I1
tg223
(S'f8'
I0
I1
tRp519
(I3
S'<'
NNNI-1
I-1
I0
tbI00
S'\xd5x\xe9&1\x80y@'
tbsS'instance_results'
p520
g227
(g228
(I0
tS'b'
tRp521
(I1
(I1
tg519
I00
S'\xaeG\xe1z\x14nV@'
tbsS'instance_status'
p522
g227
(g228
(I0
tS'b'
tRp523
(I1
(I1
tg223
(S'i8'
I0
I1
tRp524
(I3
S'<'
NNNI-1
I-1
I0
tbI00
S'\x03\x00\x00\x00\x00\x00\x00\x00'
tbsS'params'
p525
g237
((lp526
(lp527
S'-conv1_depth'
p528
aS'490.0'
p529
aa(lp530
S'-conv2_depth'
p531
aS'284.0'
p532
aa(lp533
S'-fc_depth'
p534
aS'191.0'
p535
aa(lp536
S'-filter_size'
p537
aS'12.0'
p538
aatRp539
sS'result'
p540
g222
(g224
S'\xaeG\xe1z\x14nV@'
tRp541
sS'duration'
p542
g222
(g224
S'\xd5x\xe9&1\x80y@'
tRp543
sS'test_error'
p544
Fnan
sa(dp545
S'status'
p546
I3
sS'std'
p547
g222
(g224
S'\x00\x00\x00\x00\x00\x00\x00\x00'
tRp548
sS'instance_durations'
p549
g227
(g228
(I0
tS'b'
tRp550
(I1
(I1
tg223
(S'f8'
I0
I1
tRp551
(I3
S'<'
NNNI-1
I-1
I0
tbI00
S'2U0*\xa9kQ@'
tbsS'instance_results'
p552
g227
(g228
(I0
tS'b'
tRp553
(I1
(I1
tg551
I00
S'=\n\xd7\xa3p=\xf6?'
tbsS'instance_status'
p554
g227
(g228
(I0
tS'b'
tRp555
(I1
(I1
tg223
(S'i8'
I0
I1
tRp556
(I3
S'<'
NNNI-1
I-1
I0
tbI00
S'\x03\x00\x00\x00\x00\x00\x00\x00'
tbsS'params'
p557
g237
((lp558
(lp559
S'-conv1_depth'
p560
aS'134.0'
p561
aa(lp562
S'-conv2_depth'
p563
aS'210.0'
p564
aa(lp565
S'-fc_depth'
p566
aS'231.0'
p567
aa(lp568
S'-filter_size'
p569
aS'4.0'
p570
aatRp571
sS'result'
p572
g222
(g224
S'=\n\xd7\xa3p=\xf6?'
tRp573
sS'duration'
p574
g222
(g224
S'2U0*\xa9kQ@'
tRp575
sS'test_error'
p576
Fnan
sa(dp577
S'status'
p578
I3
sS'std'
p579
g222
(g224
S'\x00\x00\x00\x00\x00\x00\x00\x00'
tRp580
sS'instance_durations'
p581
g227
(g228
(I0
tS'b'
tRp582
(I1
(I1
tg223
(S'f8'
I0
I1
tRp583
(I3
S'<'
NNNI-1
I-1
I0
tbI00
S'f\x88c]\xdcnQ@'
tbsS'instance_results'
p584
g227
(g228
(I0
tS'b'
tRp585
(I1
(I1
tg583
I00
S'\x1f\x85\xebQ\xb8\x1e\xf9?'
tbsS'test_error'
p586
Fnan
sS'params'
p587
g237
((lp588
(lp589
S'-conv1_depth'
p590
aS'324.0'
p591
aa(lp592
S'-conv2_depth'
p593
aS'48.0'
p594
aa(lp595
S'-fc_depth'
p596
aS'400.0'
p597
aa(lp598
S'-filter_size'
p599
aS'2.0'
p600
aatRp601
sS'result'
p602
g222
(g224
S'\x1f\x85\xebQ\xb8\x1e\xf9?'
tRp603
sS'duration'
p604
g222
(g224
S'f\x88c]\xdcnQ@'
tRp605
sS'instance_status'
p606
g227
(g228
(I0
tS'b'
tRp607
(I1
(I1
tg223
(S'i8'
I0
I1
tRp608
(I3
S'<'
NNNI-1
I-1
I0
tbI00
S'\x03\x00\x00\x00\x00\x00\x00\x00'
tbsa(dp609
S'status'
p610
I3
sS'std'
p611
g222
(g224
S'\x00\x00\x00\x00\x00\x00\x00\x00'
tRp612
sS'instance_durations'
p613
g227
(g228
(I0
tS'b'
tRp614
(I1
(I1
tg223
(S'f8'
I0
I1
tRp615
(I3
S'<'
NNNI-1
I-1
I0
tbI00
S'fffff\xeeO@'
tbsS'instance_results'
p616
g227
(g228
(I0
tS'b'
tRp617
(I1
(I1
tg615
I00
S'R\xb8\x1e\x85\xebQ\xf8?'
tbsS'instance_status'
p618
g227
(g228
(I0
tS'b'
tRp619
(I1
(I1
tg223
(S'i8'
I0
I1
tRp620
(I3
S'<'
NNNI-1
I-1
I0
tbI00
S'\x03\x00\x00\x00\x00\x00\x00\x00'
tbsS'params'
p621
g237
((lp622
(lp623
S'-conv1_depth'
p624
aS'142.0'
p625
aa(lp626
S'-conv2_depth'
p627
aS'120.0'
p628
aa(lp629
S'-fc_depth'
p630
aS'159.0'
p631
aa(lp632
S'-filter_size'
p633
aS'7.0'
p634
aatRp635
sS'result'
p636
g222
(g224
S'R\xb8\x1e\x85\xebQ\xf8?'
tRp637
sS'duration'
p638
g222
(g224
S'fffff\xeeO@'
tRp639
sS'test_error'
p640
Fnan
sa(dp641
S'status'
p642
I3
sS'std'
p643
g222
(g224
S'\x00\x00\x00\x00\x00\x00\x00\x00'
tRp644
sS'instance_durations'
p645
g227
(g228
(I0
tS'b'
tRp646
(I1
(I1
tg223
(S'f8'
I0
I1
tRp647
(I3
S'<'
NNNI-1
I-1
I0
tbI00
S'\x96C\x8bl\xe7Oc@'
tbsS'instance_results'
p648
g227
(g228
(I0
tS'b'
tRp649
(I1
(I1
tg647
I00
S'{\x14\xaeG\xe1\x9aJ@'
tbsS'instance_status'
p650
g227
(g228
(I0
tS'b'
tRp651
(I1
(I1
tg223
(S'i8'
I0
I1
tRp652
(I3
S'<'
NNNI-1
I-1
I0
tbI00
S'\x03\x00\x00\x00\x00\x00\x00\x00'
tbsS'params'
p653
g237
((lp654
(lp655
S'-conv1_depth'
p656
aS'74.0'
p657
aa(lp658
S'-conv2_depth'
p659
aS'488.0'
p660
aa(lp661
S'-fc_depth'
p662
aS'308.0'
p663
aa(lp664
S'-filter_size'
p665
aS'10.0'
p666
aatRp667
sS'result'
p668
g222
(g224
S'{\x14\xaeG\xe1\x9aJ@'
tRp669
sS'duration'
p670
g222
(g224
S'\x96C\x8bl\xe7Oc@'
tRp671
sS'test_error'
p672
Fnan
sa(dp673
S'status'
p674
I3
sS'std'
p675
g222
(g224
S'\x00\x00\x00\x00\x00\x00\x00\x00'
tRp676
sS'instance_durations'
p677
g227
(g228
(I0
tS'b'
tRp678
(I1
(I1
tg223
(S'f8'
I0
I1
tRp679
(I3
S'<'
NNNI-1
I-1
I0
tbI00
S'-\xb2\x9d\xef\xa7Ja@'
tbsS'instance_results'
p680
g227
(g228
(I0
tS'b'
tRp681
(I1
(I1
tg679
I00
S'\xaeG\xe1z\x14nV@'
tbsS'instance_status'
p682
g227
(g228
(I0
tS'b'
tRp683
(I1
(I1
tg223
(S'i8'
I0
I1
tRp684
(I3
S'<'
NNNI-1
I-1
I0
tbI00
S'\x03\x00\x00\x00\x00\x00\x00\x00'
tbsS'params'
p685
g237
((lp686
(lp687
S'-conv1_depth'
p688
aS'298.0'
p689
aa(lp690
S'-conv2_depth'
p691
aS'100.0'
p692
aa(lp693
S'-fc_depth'
p694
aS'238.0'
p695
aa(lp696
S'-filter_size'
p697
aS'13.0'
p698
aatRp699
sS'result'
p700
g222
(g224
S'\xaeG\xe1z\x14nV@'
tRp701
sS'duration'
p702
g222
(g224
S'-\xb2\x9d\xef\xa7Ja@'
tRp703
sS'test_error'
p704
Fnan
sa(dp705
S'status'
p706
I3
sS'std'
p707
g222
(g224
S'\x00\x00\x00\x00\x00\x00\x00\x00'
tRp708
sS'instance_durations'
p709
g227
(g228
(I0
tS'b'
tRp710
(I1
(I1
tg223
(S'f8'
I0
I1
tRp711
(I3
S'<'
NNNI-1
I-1
I0
tbI00
S'\x83\xc0\xca\xa1E|v@'
tbsS'instance_results'
p712
g227
(g228
(I0
tS'b'
tRp713
(I1
(I1
tg711
I00
S'\xaeG\xe1z\x14nV@'
tbsS'instance_status'
p714
g227
(g228
(I0
tS'b'
tRp715
(I1
(I1
tg223
(S'i8'
I0
I1
tRp716
(I3
S'<'
NNNI-1
I-1
I0
tbI00
S'\x03\x00\x00\x00\x00\x00\x00\x00'
tbsS'params'
p717
g237
((lp718
(lp719
S'-conv1_depth'
p720
aS'360.0'
p721
aa(lp722
S'-conv2_depth'
p723
aS'484.0'
p724
aa(lp725
S'-fc_depth'
p726
aS'440.0'
p727
aa(lp728
S'-filter_size'
p729
aS'6.0'
p730
aatRp731
sS'result'
p732
g222
(g224
S'\xaeG\xe1z\x14nV@'
tRp733
sS'duration'
p734
g222
(g224
S'\x83\xc0\xca\xa1E|v@'
tRp735
sS'test_error'
p736
Fnan
sa(dp737
S'status'
p738
I3
sS'std'
p739
g222
(g224
S'\x00\x00\x00\x00\x00\x00\x00\x00'
tRp740
sS'instance_durations'
p741
g227
(g228
(I0
tS'b'
tRp742
(I1
(I1
tg223
(S'f8'
I0
I1
tRp743
(I3
S'<'
NNNI-1
I-1
I0
tbI00
S'\xc5 \xb0rh\x91Z@'
tbsS'instance_results'
p744
g227
(g228
(I0
tS'b'
tRp745
(I1
(I1
tg743
I00
S'\xcd\xcc\xcc\xcc\xcc\xcc\xfc?'
tbsS'instance_status'
p746
g227
(g228
(I0
tS'b'
tRp747
(I1
(I1
tg223
(S'i8'
I0
I1
tRp748
(I3
S'<'
NNNI-1
I-1
I0
tbI00
S'\x03\x00\x00\x00\x00\x00\x00\x00'
tbsS'params'
p749
g237
((lp750
(lp751
S'-conv1_depth'
p752
aS'64.0'
p753
aa(lp754
S'-conv2_depth'
p755
aS'420.0'
p756
aa(lp757
S'-fc_depth'
p758
aS'409.0'
p759
aa(lp760
S'-filter_size'
p761
aS'8.0'
p762
aatRp763
sS'result'
p764
g222
(g224
S'\xcd\xcc\xcc\xcc\xcc\xcc\xfc?'
tRp765
sS'duration'
p766
g222
(g224
S'\xc5 \xb0rh\x91Z@'
tRp767
sS'test_error'
p768
Fnan
sa(dp769
S'status'
p770
I3
sS'std'
p771
g222
(g224
S'\x00\x00\x00\x00\x00\x00\x00\x00'
tRp772
sS'instance_durations'
p773
g227
(g228
(I0
tS'b'
tRp774
(I1
(I1
tg223
(S'f8'
I0
I1
tRp775
(I3
S'<'
NNNI-1
I-1
I0
tbI00
S'\xee|?5^\xd6b@'
tbsS'instance_results'
p776
g227
(g228
(I0
tS'b'
tRp777
(I1
(I1
tg775
I00
S'\xaeG\xe1z\x14nV@'
tbsS'instance_status'
p778
g227
(g228
(I0
tS'b'
tRp779
(I1
(I1
tg223
(S'i8'
I0
I1
tRp780
(I3
S'<'
NNNI-1
I-1
I0
tbI00
S'\x03\x00\x00\x00\x00\x00\x00\x00'
tbsS'params'
p781
g237
((lp782
(lp783
S'-conv1_depth'
p784
aS'148.0'
p785
aa(lp786
S'-conv2_depth'
p787
aS'404.0'
p788
aa(lp789
S'-fc_depth'
p790
aS'29.0'
p791
aa(lp792
S'-filter_size'
p793
aS'6.0'
p794
aatRp795
sS'result'
p796
g222
(g224
S'\xaeG\xe1z\x14nV@'
tRp797
sS'duration'
p798
g222
(g224
S'\xee|?5^\xd6b@'
tRp799
sS'test_error'
p800
Fnan
sa(dp801
S'status'
p802
I3
sS'std'
p803
g222
(g224
S'\x00\x00\x00\x00\x00\x00\x00\x00'
tRp804
sS'instance_durations'
p805
g227
(g228
(I0
tS'b'
tRp806
(I1
(I1
tg223
(S'f8'
I0
I1
tRp807
(I3
S'<'
NNNI-1
I-1
I0
tbI00
S'EGr\xf9\x0faB@'
tbsS'instance_results'
p808
g227
(g228
(I0
tS'b'
tRp809
(I1
(I1
tg807
I00
S'\x8f\xc2\xf5(\\\x8f\xfe?'
tbsS'test_error'
p810
Fnan
sS'params'
p811
g237
((lp812
(lp813
S'-conv1_depth'
p814
aS'24.0'
p815
aa(lp816
S'-conv2_depth'
p817
aS'346.0'
p818
aa(lp819
S'-fc_depth'
p820
aS'25.0'
p821
aa(lp822
S'-filter_size'
p823
aS'4.0'
p824
aatRp825
sS'result'
p826
g222
(g224
S'\x8f\xc2\xf5(\\\x8f\xfe?'
tRp827
sS'duration'
p828
g222
(g224
S'EGr\xf9\x0faB@'
tRp829
sS'instance_status'
p830
g227
(g228
(I0
tS'b'
tRp831
(I1
(I1
tg223
(S'i8'
I0
I1
tRp832
(I3
S'<'
NNNI-1
I-1
I0
tbI00
S'\x03\x00\x00\x00\x00\x00\x00\x00'
tbsa(dp833
S'status'
p834
I3
sS'std'
p835
g222
(g224
S'\x00\x00\x00\x00\x00\x00\x00\x00'
tRp836
sS'instance_durations'
p837
g227
(g228
(I0
tS'b'
tRp838
(I1
(I1
tg223
(S'f8'
I0
I1
tRp839
(I3
S'<'
NNNI-1
I-1
I0
tbI00
S'\x81\x95C\x8blOp@'
tbsS'instance_results'
p840
g227
(g228
(I0
tS'b'
tRp841
(I1
(I1
tg839
I00
S'q=\n\xd7\xa3p\x03@'
tbsS'instance_status'
p842
g227
(g228
(I0
tS'b'
tRp843
(I1
(I1
tg223
(S'i8'
I0
I1
tRp844
(I3
S'<'
NNNI-1
I-1
I0
tbI00
S'\x03\x00\x00\x00\x00\x00\x00\x00'
tbsS'params'
p845
g237
((lp846
(lp847
S'-conv1_depth'
p848
aS'306.0'
p849
aa(lp850
S'-conv2_depth'
p851
aS'376.0'
p852
aa(lp853
S'-fc_depth'
p854
aS'487.0'
p855
aa(lp856
S'-filter_size'
p857
aS'6.0'
p858
aatRp859
sS'result'
p860
g222
(g224
S'q=\n\xd7\xa3p\x03@'
tRp861
sS'duration'
p862
g222
(g224
S'\x81\x95C\x8blOp@'
tRp863
sS'test_error'
p864
Fnan
sa(dp865
S'status'
p866
I3
sS'std'
p867
g222
(g224
S'\x00\x00\x00\x00\x00\x00\x00\x00'
tRp868
sS'instance_durations'
p869
g227
(g228
(I0
tS'b'
tRp870
(I1
(I1
tg223
(S'f8'
I0
I1
tRp871
(I3
S'<'
NNNI-1
I-1
I0
tbI00
S'}\xae\xb6b\x7fqG@'
tbsS'instance_results'
p872
g227
(g228
(I0
tS'b'
tRp873
(I1
(I1
tg871
I00
S'\n\xd7\xa3p=\x8a @'
tbsS'test_error'
p874
Fnan
sS'params'
p875
g237
((lp876
(lp877
S'-conv1_depth'
p878
aS'206.0'
p879
aa(lp880
S'-conv2_depth'
p881
aS'182.0'
p882
aa(lp883
S'-fc_depth'
p884
aS'104.0'
p885
aa(lp886
S'-filter_size'
p887
aS'1.0'
p888
aatRp889
sS'result'
p890
g222
(g224
S'\n\xd7\xa3p=\x8a @'
tRp891
sS'duration'
p892
g222
(g224
S'}\xae\xb6b\x7fqG@'
tRp893
sS'instance_status'
p894
g227
(g228
(I0
tS'b'
tRp895
(I1
(I1
tg223
(S'i8'
I0
I1
tRp896
(I3
S'<'
NNNI-1
I-1
I0
tbI00
S'\x03\x00\x00\x00\x00\x00\x00\x00'
tbsa(dp897
S'status'
p898
I3
sS'std'
p899
g222
(g224
S'\x00\x00\x00\x00\x00\x00\x00\x00'
tRp900
sS'instance_durations'
p901
g227
(g228
(I0
tS'b'
tRp902
(I1
(I1
tg223
(S'f8'
I0
I1
tRp903
(I3
S'<'
NNNI-1
I-1
I0
tbI00
S'\x901w-!\xef6@'
tbsS'instance_results'
p904
g227
(g228
(I0
tS'b'
tRp905
(I1
(I1
tg903
I00
S'\xecQ\xb8\x1e\x85\xeb\xfd?'
tbsS'test_error'
p906
Fnan
sS'params'
p907
g237
((lp908
(lp909
S'-conv1_depth'
p910
aS'8.0'
p911
aa(lp912
S'-conv2_depth'
p913
aS'208.0'
p914
aa(lp915
S'-fc_depth'
p916
aS'93.0'
p917
aa(lp918
S'-filter_size'
p919
aS'3.0'
p920
aatRp921
sS'result'
p922
g222
(g224
S'\xecQ\xb8\x1e\x85\xeb\xfd?'
tRp923
sS'duration'
p924
g222
(g224
S'\x901w-!\xef6@'
tRp925
sS'instance_status'
p926
g227
(g228
(I0
tS'b'
tRp927
(I1
(I1
tg223
(S'i8'
I0
I1
tRp928
(I3
S'<'
NNNI-1
I-1
I0
tbI00
S'\x03\x00\x00\x00\x00\x00\x00\x00'
tbsa(dp929
S'status'
p930
I3
sS'std'
p931
g222
(g224
S'\x00\x00\x00\x00\x00\x00\x00\x00'
tRp932
sS'instance_durations'
p933
g227
(g228
(I0
tS'b'
tRp934
(I1
(I1
tg223
(S'f8'
I0
I1
tRp935
(I3
S'<'
NNNI-1
I-1
I0
tbI00
S'\x8fSt$\x97\x83R@'
tbsS'instance_results'
p936
g227
(g228
(I0
tS'b'
tRp937
(I1
(I1
tg935
I00
S'\xcd\xcc\xcc\xcc\xcc\xcc\xfc?'
tbsS'instance_status'
p938
g227
(g228
(I0
tS'b'
tRp939
(I1
(I1
tg223
(S'i8'
I0
I1
tRp940
(I3
S'<'
NNNI-1
I-1
I0
tbI00
S'\x03\x00\x00\x00\x00\x00\x00\x00'
tbsS'params'
p941
g237
((lp942
(lp943
S'-conv1_depth'
p944
aS'224.0'
p945
aa(lp946
S'-conv2_depth'
p947
aS'258.0'
p948
aa(lp949
S'-fc_depth'
p950
aS'89.0'
p951
aa(lp952
S'-filter_size'
p953
aS'3.0'
p954
aatRp955
sS'result'
p956
g222
(g224
S'\xcd\xcc\xcc\xcc\xcc\xcc\xfc?'
tRp957
sS'duration'
p958
g222
(g224
S'\x8fSt$\x97\x83R@'
tRp959
sS'test_error'
p960
Fnan
sa(dp961
S'status'
p962
I3
sS'std'
p963
g222
(g224
S'\x00\x00\x00\x00\x00\x00\x00\x00'
tRp964
sS'instance_durations'
p965
g227
(g228
(I0
tS'b'
tRp966
(I1
(I1
tg223
(S'f8'
I0
I1
tRp967
(I3
S'<'
NNNI-1
I-1
I0
tbI00
S'U\xc1\xa8\xa4N\x00B@'
tbsS'instance_results'
p968
g227
(g228
(I0
tS'b'
tRp969
(I1
(I1
tg967
I00
S'\xa4p=\n\xd7\xa3\x1d@'
tbsS'test_error'
p970
Fnan
sS'params'
p971
g237
((lp972
(lp973
S'-conv1_depth'
p974
aS'148.0'
p975
aa(lp976
S'-conv2_depth'
p977
aS'124.0'
p978
aa(lp979
S'-fc_depth'
p980
aS'209.0'
p981
aa(lp982
S'-filter_size'
p983
aS'1.0'
p984
aatRp985
sS'result'
p986
g222
(g224
S'\xa4p=\n\xd7\xa3\x1d@'
tRp987
sS'duration'
p988
g222
(g224
S'U\xc1\xa8\xa4N\x00B@'
tRp989
sS'instance_status'
p990
g227
(g228
(I0
tS'b'
tRp991
(I1
(I1
tg223
(S'i8'
I0
I1
tRp992
(I3
S'<'
NNNI-1
I-1
I0
tbI00
S'\x03\x00\x00\x00\x00\x00\x00\x00'
tbsa(dp993
S'status'
p994
I3
sS'std'
p995
g222
(g224
S'\x00\x00\x00\x00\x00\x00\x00\x00'
tRp996
sS'instance_durations'
p997
g227
(g228
(I0
tS'b'
tRp998
(I1
(I1
tg223
(S'f8'
I0
I1
tRp999
(I3
S'<'
NNNI-1
I-1
I0
tbI00
S'\xa0\x1a/\xdd$>Y@'
tbsS'instance_results'
p1000
g227
(g228
(I0
tS'b'
tRp1001
(I1
(I1
tg999
I00
S'\xf6(\\\x8f\xc2\xf5\xf4?'
tbsS'instance_status'
p1002
g227
(g228
(I0
tS'b'
tRp1003
(I1
(I1
tg223
(S'i8'
I0
I1
tRp1004
(I3
S'<'
NNNI-1
I-1
I0
tbI00
S'\x03\x00\x00\x00\x00\x00\x00\x00'
tbsS'params'
p1005
g237
((lp1006
(lp1007
S'-conv1_depth'
p1008
aS'256.0'
p1009
aa(lp1010
S'-conv2_depth'
p1011
aS'204.0'
p1012
aa(lp1013
S'-fc_depth'
p1014
aS'156.0'
p1015
aa(lp1016
S'-filter_size'
p1017
aS'4.0'
p1018
aatRp1019
sS'result'
p1020
g222
(g224
S'\xf6(\\\x8f\xc2\xf5\xf4?'
tRp1021
sS'duration'
p1022
g222
(g224
S'\xa0\x1a/\xdd$>Y@'
tRp1023
sS'test_error'
p1024
Fnan
sa(dp1025
S'status'
p1026
I3
sS'std'
p1027
g222
(g224
S'\x00\x00\x00\x00\x00\x00\x00\x00'
tRp1028
sS'instance_durations'
p1029
g227
(g228
(I0
tS'b'
tRp1030
(I1
(I1
tg223
(S'f8'
I0
I1
tRp1031
(I3
S'<'
NNNI-1
I-1
I0
tbI00
S'p_\x07\xce\x19\xb1S@'
tbsS'instance_results'
p1032
g227
(g228
(I0
tS'b'
tRp1033
(I1
(I1
tg1031
I00
S'H\xe1z\x14\xaeG\xf9?'
tbsS'test_error'
p1034
Fnan
sS'params'
p1035
g237
((lp1036
(lp1037
S'-conv1_depth'
p1038
aS'260.0'
p1039
aa(lp1040
S'-conv2_depth'
p1041
aS'212.0'
p1042
aa(lp1043
S'-fc_depth'
p1044
aS'153.0'
p1045
aa(lp1046
S'-filter_size'
p1047
aS'3.0'
p1048
aatRp1049
sS'result'
p1050
g222
(g224
S'H\xe1z\x14\xaeG\xf9?'
tRp1051
sS'duration'
p1052
g222
(g224
S'p_\x07\xce\x19\xb1S@'
tRp1053
sS'instance_status'
p1054
g227
(g228
(I0
tS'b'
tRp1055
(I1
(I1
tg223
(S'i8'
I0
I1
tRp1056
(I3
S'<'
NNNI-1
I-1
I0
tbI00
S'\x03\x00\x00\x00\x00\x00\x00\x00'
tbsa(dp1057
S'status'
p1058
I3
sS'std'
p1059
g222
(g224
S'\x00\x00\x00\x00\x00\x00\x00\x00'
tRp1060
sS'instance_durations'
p1061
g227
(g228
(I0
tS'b'
tRp1062
(I1
(I1
tg223
(S'f8'
I0
I1
tRp1063
(I3
S'<'
NNNI-1
I-1
I0
tbI00
S'\xf0\xa7\xc6K7\x11`@'
tbsS'instance_results'
p1064
g227
(g228
(I0
tS'b'
tRp1065
(I1
(I1
tg1063
I00
S'=\n\xd7\xa3p=\xf6?'
tbsS'instance_status'
p1066
g227
(g228
(I0
tS'b'
tRp1067
(I1
(I1
tg223
(S'i8'
I0
I1
tRp1068
(I3
S'<'
NNNI-1
I-1
I0
tbI00
S'\x03\x00\x00\x00\x00\x00\x00\x00'
tbsS'params'
p1069
g237
((lp1070
(lp1071
S'-conv1_depth'
p1072
aS'254.0'
p1073
aa(lp1074
S'-conv2_depth'
p1075
aS'298.0'
p1076
aa(lp1077
S'-fc_depth'
p1078
aS'246.0'
p1079
aa(lp1080
S'-filter_size'
p1081
aS'4.0'
p1082
aatRp1083
sS'result'
p1084
g222
(g224
S'=\n\xd7\xa3p=\xf6?'
tRp1085
sS'duration'
p1086
g222
(g224
S'\xf0\xa7\xc6K7\x11`@'
tRp1087
sS'test_error'
p1088
Fnan
sa(dp1089
S'status'
p1090
I3
sS'std'
p1091
g222
(g224
S'\x00\x00\x00\x00\x00\x00\x00\x00'
tRp1092
sS'instance_durations'
p1093
g227
(g228
(I0
tS'b'
tRp1094
(I1
(I1
tg223
(S'f8'
I0
I1
tRp1095
(I3
S'<'
NNNI-1
I-1
I0
tbI00
S'\xd6V\xec/\xbbsS@'
tbsS'instance_results'
p1096
g227
(g228
(I0
tS'b'
tRp1097
(I1
(I1
tg1095
I00
S'\x00\x00\x00\x00\x00\x00\xfc?'
tbsS'instance_status'
p1098
g227
(g228
(I0
tS'b'
tRp1099
(I1
(I1
tg223
(S'i8'
I0
I1
tRp1100
(I3
S'<'
NNNI-1
I-1
I0
tbI00
S'\x03\x00\x00\x00\x00\x00\x00\x00'
tbsS'params'
p1101
g237
((lp1102
(lp1103
S'-conv1_depth'
p1104
aS'236.0'
p1105
aa(lp1106
S'-conv2_depth'
p1107
aS'282.0'
p1108
aa(lp1109
S'-fc_depth'
p1110
aS'342.0'
p1111
aa(lp1112
S'-filter_size'
p1113
aS'2.0'
p1114
aatRp1115
sS'result'
p1116
g222
(g224
S'\x00\x00\x00\x00\x00\x00\xfc?'
tRp1117
sS'duration'
p1118
g222
(g224
S'\xd6V\xec/\xbbsS@'
tRp1119
sS'test_error'
p1120
Fnan
sa(dp1121
S'status'
p1122
I3
sS'std'
p1123
g222
(g224
S'\x00\x00\x00\x00\x00\x00\x00\x00'
tRp1124
sS'instance_durations'
p1125
g227
(g228
(I0
tS'b'
tRp1126
(I1
(I1
tg223
(S'f8'
I0
I1
tRp1127
(I3
S'<'
NNNI-1
I-1
I0
tbI00
S'\x91\xed|?5\xc2`@'
tbsS'instance_results'
p1128
g227
(g228
(I0
tS'b'
tRp1129
(I1
(I1
tg1127
I00
S'=\n\xd7\xa3p=\xfa?'
tbsS'instance_status'
p1130
g227
(g228
(I0
tS'b'
tRp1131
(I1
(I1
tg223
(S'i8'
I0
I1
tRp1132
(I3
S'<'
NNNI-1
I-1
I0
tbI00
S'\x03\x00\x00\x00\x00\x00\x00\x00'
tbsS'params'
p1133
g237
((lp1134
(lp1135
S'-conv1_depth'
p1136
aS'266.0'
p1137
aa(lp1138
S'-conv2_depth'
p1139
aS'298.0'
p1140
aa(lp1141
S'-fc_depth'
p1142
aS'62.0'
p1143
aa(lp1144
S'-filter_size'
p1145
aS'4.0'
p1146
aatRp1147
sS'result'
p1148
g222
(g224
S'=\n\xd7\xa3p=\xfa?'
tRp1149
sS'duration'
p1150
g222
(g224
S'\x91\xed|?5\xc2`@'
tRp1151
sS'test_error'
p1152
Fnan
sa(dp1153
S'status'
p1154
I3
sS'std'
p1155
g222
(g224
S'\x00\x00\x00\x00\x00\x00\x00\x00'
tRp1156
sS'instance_durations'
p1157
g227
(g228
(I0
tS'b'
tRp1158
(I1
(I1
tg223
(S'f8'
I0
I1
tRp1159
(I3
S'<'
NNNI-1
I-1
I0
tbI00
S'\xf7\xe4a\xa1\xd6<K@'
tbsS'instance_results'
p1160
g227
(g228
(I0
tS'b'
tRp1161
(I1
(I1
tg1159
I00
S'\x1f\x85\xebQ\xb8\x1e\xfd?'
tbsS'test_error'
p1162
Fnan
sS'params'
p1163
g237
((lp1164
(lp1165
S'-conv1_depth'
p1166
aS'190.0'
p1167
aa(lp1168
S'-conv2_depth'
p1169
aS'170.0'
p1170
aa(lp1171
S'-fc_depth'
p1172
aS'132.0'
p1173
aa(lp1174
S'-filter_size'
p1175
aS'2.0'
p1176
aatRp1177
sS'result'
p1178
g222
(g224
S'\x1f\x85\xebQ\xb8\x1e\xfd?'
tRp1179
sS'duration'
p1180
g222
(g224
S'\xf7\xe4a\xa1\xd6<K@'
tRp1181
sS'instance_status'
p1182
g227
(g228
(I0
tS'b'
tRp1183
(I1
(I1
tg223
(S'i8'
I0
I1
tRp1184
(I3
S'<'
NNNI-1
I-1
I0
tbI00
S'\x03\x00\x00\x00\x00\x00\x00\x00'
tbsa(dp1185
S'status'
p1186
I3
sS'std'
p1187
g222
(g224
S'\x00\x00\x00\x00\x00\x00\x00\x00'
tRp1188
sS'instance_durations'
p1189
g227
(g228
(I0
tS'b'
tRp1190
(I1
(I1
tg223
(S'f8'
I0
I1
tRp1191
(I3
S'<'
NNNI-1
I-1
I0
tbI00
S'fffff\xecp@'
tbsS'instance_results'
p1192
g227
(g228
(I0
tS'b'
tRp1193
(I1
(I1
tg1191
I00
S'\xaeG\xe1z\x14nV@'
tbsS'test_error'
p1194
Fnan
sS'params'
p1195
g237
((lp1196
(lp1197
S'-conv1_depth'
p1198
aS'362.0'
p1199
aa(lp1200
S'-conv2_depth'
p1201
aS'448.0'
p1202
aa(lp1203
S'-fc_depth'
p1204
aS'366.0'
p1205
aa(lp1206
S'-filter_size'
p1207
aS'5.0'
p1208
aatRp1209
sS'result'
p1210
g222
(g224
S'\xaeG\xe1z\x14nV@'
tRp1211
sS'duration'
p1212
g222
(g224
S'fffff\xecp@'
tRp1213
sS'instance_status'
p1214
g227
(g228
(I0
tS'b'
tRp1215
(I1
(I1
tg223
(S'i8'
I0
I1
tRp1216
(I3
S'<'
NNNI-1
I-1
I0
tbI00
S'\x03\x00\x00\x00\x00\x00\x00\x00'
tbsa(dp1217
S'status'
p1218
I3
sS'std'
p1219
g222
(g224
S'\x00\x00\x00\x00\x00\x00\x00\x00'
tRp1220
sS'instance_durations'
p1221
g227
(g228
(I0
tS'b'
tRp1222
(I1
(I1
tg223
(S'f8'
I0
I1
tRp1223
(I3
S'<'
NNNI-1
I-1
I0
tbI00
S'=\n\xd7\xa3p\xc9h@'
tbsS'instance_results'
p1224
g227
(g228
(I0
tS'b'
tRp1225
(I1
(I1
tg1223
I00
S'\xaeG\xe1z\x14nV@'
tbsS'test_error'
p1226
Fnan
sS'params'
p1227
g237
((lp1228
(lp1229
S'-conv1_depth'
p1230
aS'328.0'
p1231
aa(lp1232
S'-conv2_depth'
p1233
aS'248.0'
p1234
aa(lp1235
S'-fc_depth'
p1236
aS'256.0'
p1237
aa(lp1238
S'-filter_size'
p1239
aS'8.0'
p1240
aatRp1241
sS'result'
p1242
g222
(g224
S'\xaeG\xe1z\x14nV@'
tRp1243
sS'duration'
p1244
g222
(g224
S'=\n\xd7\xa3p\xc9h@'
tRp1245
sS'instance_status'
p1246
g227
(g228
(I0
tS'b'
tRp1247
(I1
(I1
tg223
(S'i8'
I0
I1
tRp1248
(I3
S'<'
NNNI-1
I-1
I0
tbI00
S'\x03\x00\x00\x00\x00\x00\x00\x00'
tbsa(dp1249
S'status'
p1250
I3
sS'std'
p1251
g222
(g224
S'\x00\x00\x00\x00\x00\x00\x00\x00'
tRp1252
sS'instance_durations'
p1253
g227
(g228
(I0
tS'b'
tRp1254
(I1
(I1
tg223
(S'f8'
I0
I1
tRp1255
(I3
S'<'
NNNI-1
I-1
I0
tbI00
S'?\xc6\xdc\xb5\x84,3@'
tbsS'instance_results'
p1256
g227
(g228
(I0
tS'b'
tRp1257
(I1
(I1
tg1255
I00
S'R\xb8\x1e\x85\xebQ\xf4?'
tbsS'instance_status'
p1258
g227
(g228
(I0
tS'b'
tRp1259
(I1
(I1
tg223
(S'i8'
I0
I1
tRp1260
(I3
S'<'
NNNI-1
I-1
I0
tbI00
S'\x03\x00\x00\x00\x00\x00\x00\x00'
tbsS'params'
p1261
g237
((lp1262
(lp1263
S'-conv1_depth'
p1264
aS'40.0'
p1265
aa(lp1266
S'-conv2_depth'
p1267
aS'12.0'
p1268
aa(lp1269
S'-fc_depth'
p1270
aS'179.0'
p1271
aa(lp1272
S'-filter_size'
p1273
aS'4.0'
p1274
aatRp1275
sS'result'
p1276
g222
(g224
S'R\xb8\x1e\x85\xebQ\xf4?'
tRp1277
sS'duration'
p1278
g222
(g224
S'?\xc6\xdc\xb5\x84,3@'
tRp1279
sS'test_error'
p1280
Fnan
sa(dp1281
S'status'
p1282
I3
sS'std'
p1283
g222
(g224
S'\x00\x00\x00\x00\x00\x00\x00\x00'
tRp1284
sS'instance_durations'
p1285
g227
(g228
(I0
tS'b'
tRp1286
(I1
(I1
tg223
(S'f8'
I0
I1
tRp1287
(I3
S'<'
NNNI-1
I-1
I0
tbI00
S'\x99*\x18\x95\xd4\t<@'
tbsS'instance_results'
p1288
g227
(g228
(I0
tS'b'
tRp1289
(I1
(I1
tg1287
I00
S'\\\x8f\xc2\xf5(\\\xf7?'
tbsS'test_error'
p1290
Fnan
sS'params'
p1291
g237
((lp1292
(lp1293
S'-conv1_depth'
p1294
aS'48.0'
p1295
aa(lp1296
S'-conv2_depth'
p1297
aS'74.0'
p1298
aa(lp1299
S'-fc_depth'
p1300
aS'56.0'
p1301
aa(lp1302
S'-filter_size'
p1303
aS'5.0'
p1304
aatRp1305
sS'result'
p1306
g222
(g224
S'\\\x8f\xc2\xf5(\\\xf7?'
tRp1307
sS'duration'
p1308
g222
(g224
S'\x99*\x18\x95\xd4\t<@'
tRp1309
sS'instance_status'
p1310
g227
(g228
(I0
tS'b'
tRp1311
(I1
(I1
tg223
(S'i8'
I0
I1
tRp1312
(I3
S'<'
NNNI-1
I-1
I0
tbI00
S'\x03\x00\x00\x00\x00\x00\x00\x00'
tbsa(dp1313
S'status'
p1314
I3
sS'std'
p1315
g222
(g224
S'\x00\x00\x00\x00\x00\x00\x00\x00'
tRp1316
sS'instance_durations'
p1317
g227
(g228
(I0
tS'b'
tRp1318
(I1
(I1
tg223
(S'f8'
I0
I1
tRp1319
(I3
S'<'
NNNI-1
I-1
I0
tbI00
S'$\xb9\xfc\x87\xf4\x0bE@'
tbsS'instance_results'
p1320
g227
(g228
(I0
tS'b'
tRp1321
(I1
(I1
tg1319
I00
S'\x00\x00\x00\x00\x00\x00\x00@'
tbsS'test_error'
p1322
Fnan
sS'params'
p1323
g237
((lp1324
(lp1325
S'-conv1_depth'
p1326
aS'176.0'
p1327
aa(lp1328
S'-conv2_depth'
p1329
aS'2.0'
p1330
aa(lp1331
S'-fc_depth'
p1332
aS'178.0'
p1333
aa(lp1334
S'-filter_size'
p1335
aS'7.0'
p1336
aatRp1337
sS'result'
p1338
g222
(g224
S'\x00\x00\x00\x00\x00\x00\x00@'
tRp1339
sS'duration'
p1340
g222
(g224
S'$\xb9\xfc\x87\xf4\x0bE@'
tRp1341
sS'instance_status'
p1342
g227
(g228
(I0
tS'b'
tRp1343
(I1
(I1
tg223
(S'i8'
I0
I1
tRp1344
(I3
S'<'
NNNI-1
I-1
I0
tbI00
S'\x03\x00\x00\x00\x00\x00\x00\x00'
tbsa(dp1345
S'status'
p1346
I3
sS'std'
p1347
g222
(g224
S'\x00\x00\x00\x00\x00\x00\x00\x00'
tRp1348
sS'instance_durations'
p1349
g227
(g228
(I0
tS'b'
tRp1350
(I1
(I1
tg223
(S'f8'
I0
I1
tRp1351
(I3
S'<'
NNNI-1
I-1
I0
tbI00
S'\xe4\x83\x9e\xcd\xaa\x9f=@'
tbsS'instance_results'
p1352
g227
(g228
(I0
tS'b'
tRp1353
(I1
(I1
tg1351
I00
S'R\xb8\x1e\x85\xeb1K@'
tbsS'instance_status'
p1354
g227
(g228
(I0
tS'b'
tRp1355
(I1
(I1
tg223
(S'i8'
I0
I1
tRp1356
(I3
S'<'
NNNI-1
I-1
I0
tbI00
S'\x03\x00\x00\x00\x00\x00\x00\x00'
tbsS'params'
p1357
g237
((lp1358
(lp1359
S'-conv1_depth'
p1360
aS'110.0'
p1361
aa(lp1362
S'-conv2_depth'
p1363
aS'6.0'
p1364
aa(lp1365
S'-fc_depth'
p1366
aS'3.0'
p1367
aa(lp1368
S'-filter_size'
p1369
aS'2.0'
p1370
aatRp1371
sS'result'
p1372
g222
(g224
S'R\xb8\x1e\x85\xeb1K@'
tRp1373
sS'duration'
p1374
g222
(g224
S'\xe4\x83\x9e\xcd\xaa\x9f=@'
tRp1375
sS'test_error'
p1376
Fnan
sa(dp1377
S'status'
p1378
I3
sS'std'
p1379
g222
(g224
S'\x00\x00\x00\x00\x00\x00\x00\x00'
tRp1380
sS'instance_durations'
p1381
g227
(g228
(I0
tS'b'
tRp1382
(I1
(I1
tg223
(S'f8'
I0
I1
tRp1383
(I3
S'<'
NNNI-1
I-1
I0
tbI00
S'\x1f\x85\xebQ\xb8v[@'
tbsS'instance_results'
p1384
g227
(g228
(I0
tS'b'
tRp1385
(I1
(I1
tg1383
I00
S'H\xe1z\x14\xaeG\r@'
tbsS'instance_status'
p1386
g227
(g228
(I0
tS'b'
tRp1387
(I1
(I1
tg223
(S'i8'
I0
I1
tRp1388
(I3
S'<'
NNNI-1
I-1
I0
tbI00
S'\x03\x00\x00\x00\x00\x00\x00\x00'
tbsS'params'
p1389
g237
((lp1390
(lp1391
S'-conv1_depth'
p1392
aS'462.0'
p1393
aa(lp1394
S'-conv2_depth'
p1395
aS'24.0'
p1396
aa(lp1397
S'-fc_depth'
p1398
aS'117.0'
p1399
aa(lp1400
S'-filter_size'
p1401
aS'9.0'
p1402
aatRp1403
sS'result'
p1404
g222
(g224
S'H\xe1z\x14\xaeG\r@'
tRp1405
sS'duration'
p1406
g222
(g224
S'\x1f\x85\xebQ\xb8v[@'
tRp1407
sS'test_error'
p1408
Fnan
sa(dp1409
S'status'
p1410
I3
sS'std'
p1411
g222
(g224
S'\x00\x00\x00\x00\x00\x00\x00\x00'
tRp1412
sS'instance_durations'
p1413
g227
(g228
(I0
tS'b'
tRp1414
(I1
(I1
tg223
(S'f8'
I0
I1
tRp1415
(I3
S'<'
NNNI-1
I-1
I0
tbI00
S'\xb5\xa6y\xc7)\xd6P@'
tbsS'instance_results'
p1416
g227
(g228
(I0
tS'b'
tRp1417
(I1
(I1
tg1415
I00
S'\n\xd7\xa3p=\n\x1d@'
tbsS'test_error'
p1418
Fnan
sS'params'
p1419
g237
((lp1420
(lp1421
S'-conv1_depth'
p1422
aS'416.0'
p1423
aa(lp1424
S'-conv2_depth'
p1425
aS'86.0'
p1426
aa(lp1427
S'-fc_depth'
p1428
aS'280.0'
p1429
aa(lp1430
S'-filter_size'
p1431
aS'1.0'
p1432
aatRp1433
sS'result'
p1434
g222
(g224
S'\n\xd7\xa3p=\n\x1d@'
tRp1435
sS'duration'
p1436
g222
(g224
S'\xb5\xa6y\xc7)\xd6P@'
tRp1437
sS'instance_status'
p1438
g227
(g228
(I0
tS'b'
tRp1439
(I1
(I1
tg223
(S'i8'
I0
I1
tRp1440
(I3
S'<'
NNNI-1
I-1
I0
tbI00
S'\x03\x00\x00\x00\x00\x00\x00\x00'
tbsa(dp1441
S'status'
p1442
I3
sS'std'
p1443
g222
(g224
S'\x00\x00\x00\x00\x00\x00\x00\x00'
tRp1444
sS'instance_durations'
p1445
g227
(g228
(I0
tS'b'
tRp1446
(I1
(I1
tg223
(S'f8'
I0
I1
tRp1447
(I3
S'<'
NNNI-1
I-1
I0
tbI00
S'\xf3\x1f\xd2o_w7@'
tbsS'instance_results'
p1448
g227
(g228
(I0
tS'b'
tRp1449
(I1
(I1
tg1447
I00
S'\xc3\xf5(\\\x8f\xc2\xf9?'
tbsS'test_error'
p1450
Fnan
sS'params'
p1451
g237
((lp1452
(lp1453
S'-conv1_depth'
p1454
aS'6.0'
p1455
aa(lp1456
S'-conv2_depth'
p1457
aS'154.0'
p1458
aa(lp1459
S'-fc_depth'
p1460
aS'319.0'
p1461
aa(lp1462
S'-filter_size'
p1463
aS'3.0'
p1464
aatRp1465
sS'result'
p1466
g222
(g224
S'\xc3\xf5(\\\x8f\xc2\xf9?'
tRp1467
sS'duration'
p1468
g222
(g224
S'\xf3\x1f\xd2o_w7@'
tRp1469
sS'instance_status'
p1470
g227
(g228
(I0
tS'b'
tRp1471
(I1
(I1
tg223
(S'i8'
I0
I1
tRp1472
(I3
S'<'
NNNI-1
I-1
I0
tbI00
S'\x03\x00\x00\x00\x00\x00\x00\x00'
tbsa(dp1473
S'status'
p1474
I3
sS'std'
p1475
g222
(g224
S'\x00\x00\x00\x00\x00\x00\x00\x00'
tRp1476
sS'instance_durations'
p1477
g227
(g228
(I0
tS'b'
tRp1478
(I1
(I1
tg223
(S'f8'
I0
I1
tRp1479
(I3
S'<'
NNNI-1
I-1
I0
tbI00
S'\xbaI\x0c\x02+\x17z@'
tbsS'instance_results'
p1480
g227
(g228
(I0
tS'b'
tRp1481
(I1
(I1
tg1479
I00
S'\xaeG\xe1z\x14nV@'
tbsS'instance_status'
p1482
g227
(g228
(I0
tS'b'
tRp1483
(I1
(I1
tg223
(S'i8'
I0
I1
tRp1484
(I3
S'<'
NNNI-1
I-1
I0
tbI00
S'\x03\x00\x00\x00\x00\x00\x00\x00'
tbsS'params'
p1485
g237
((lp1486
(lp1487
S'-conv1_depth'
p1488
aS'442.0'
p1489
aa(lp1490
S'-conv2_depth'
p1491
aS'330.0'
p1492
aa(lp1493
S'-fc_depth'
p1494
aS'217.0'
p1495
aa(lp1496
S'-filter_size'
p1497
aS'11.0'
p1498
aatRp1499
sS'result'
p1500
g222
(g224
S'\xaeG\xe1z\x14nV@'
tRp1501
sS'duration'
p1502
g222
(g224
S'\xbaI\x0c\x02+\x17z@'
tRp1503
sS'test_error'
p1504
Fnan
sa(dp1505
S'status'
p1506
I3
sS'std'
p1507
g222
(g224
S'\x00\x00\x00\x00\x00\x00\x00\x00'
tRp1508
sS'instance_durations'
p1509
g227
(g228
(I0
tS'b'
tRp1510
(I1
(I1
tg223
(S'f8'
I0
I1
tRp1511
(I3
S'<'
NNNI-1
I-1
I0
tbI00
S'z\xa5,C\x1c\x13H@'
tbsS'instance_results'
p1512
g227
(g228
(I0
tS'b'
tRp1513
(I1
(I1
tg1511
I00
S'\xf6(\\\x8f\xc2\xf5\xf4?'
tbsS'test_error'
p1514
Fnan
sS'params'
p1515
g237
((lp1516
(lp1517
S'-conv1_depth'
p1518
aS'38.0'
p1519
aa(lp1520
S'-conv2_depth'
p1521
aS'244.0'
p1522
aa(lp1523
S'-fc_depth'
p1524
aS'176.0'
p1525
aa(lp1526
S'-filter_size'
p1527
aS'6.0'
p1528
aatRp1529
sS'result'
p1530
g222
(g224
S'\xf6(\\\x8f\xc2\xf5\xf4?'
tRp1531
sS'duration'
p1532
g222
(g224
S'z\xa5,C\x1c\x13H@'
tRp1533
sS'instance_status'
p1534
g227
(g228
(I0
tS'b'
tRp1535
(I1
(I1
tg223
(S'i8'
I0
I1
tRp1536
(I3
S'<'
NNNI-1
I-1
I0
tbI00
S'\x03\x00\x00\x00\x00\x00\x00\x00'
tbsa(dp1537
S'status'
p1538
I3
sS'std'
p1539
g222
(g224
S'\x00\x00\x00\x00\x00\x00\x00\x00'
tRp1540
sS'instance_durations'
p1541
g227
(g228
(I0
tS'b'
tRp1542
(I1
(I1
tg223
(S'f8'
I0
I1
tRp1543
(I3
S'<'
NNNI-1
I-1
I0
tbI00
S'\xcc]K\xc8\x07\xddM@'
tbsS'instance_results'
p1544
g227
(g228
(I0
tS'b'
tRp1545
(I1
(I1
tg1543
I00
S'\xd7\xa3p=\n\xd7\xfb?'
tbsS'test_error'
p1546
Fnan
sS'params'
p1547
g237
((lp1548
(lp1549
S'-conv1_depth'
p1550
aS'42.0'
p1551
aa(lp1552
S'-conv2_depth'
p1553
aS'246.0'
p1554
aa(lp1555
S'-fc_depth'
p1556
aS'180.0'
p1557
aa(lp1558
S'-filter_size'
p1559
aS'9.0'
p1560
aatRp1561
sS'result'
p1562
g222
(g224
S'\xd7\xa3p=\n\xd7\xfb?'
tRp1563
sS'duration'
p1564
g222
(g224
S'\xcc]K\xc8\x07\xddM@'
tRp1565
sS'instance_status'
p1566
g227
(g228
(I0
tS'b'
tRp1567
(I1
(I1
tg223
(S'i8'
I0
I1
tRp1568
(I3
S'<'
NNNI-1
I-1
I0
tbI00
S'\x03\x00\x00\x00\x00\x00\x00\x00'
tbsa(dp1569
S'status'
p1570
I3
sS'std'
p1571
g222
(g224
S'\x00\x00\x00\x00\x00\x00\x00\x00'
tRp1572
sS'instance_durations'
p1573
g227
(g228
(I0
tS'b'
tRp1574
(I1
(I1
tg223
(S'f8'
I0
I1
tRp1575
(I3
S'<'
NNNI-1
I-1
I0
tbI00
S'}?5^\xba\xc9D@'
tbsS'instance_results'
p1576
g227
(g228
(I0
tS'b'
tRp1577
(I1
(I1
tg1575
I00
S'\x14\xaeG\xe1z\x14\xf2?'
tbsS'test_error'
p1578
Fnan
sS'params'
p1579
g237
((lp1580
(lp1581
S'-conv1_depth'
p1582
aS'118.0'
p1583
aa(lp1584
S'-conv2_depth'
p1585
aS'56.0'
p1586
aa(lp1587
S'-fc_depth'
p1588
aS'274.0'
p1589
aa(lp1590
S'-filter_size'
p1591
aS'5.0'
p1592
aatRp1593
sS'result'
p1594
g222
(g224
S'\x14\xaeG\xe1z\x14\xf2?'
tRp1595
sS'duration'
p1596
g222
(g224
S'}?5^\xba\xc9D@'
tRp1597
sS'instance_status'
p1598
g227
(g228
(I0
tS'b'
tRp1599
(I1
(I1
tg223
(S'i8'
I0
I1
tRp1600
(I3
S'<'
NNNI-1
I-1
I0
tbI00
S'\x03\x00\x00\x00\x00\x00\x00\x00'
tbsa(dp1601
S'status'
p1602
I3
sS'std'
p1603
g222
(g224
S'\x00\x00\x00\x00\x00\x00\x00\x00'
tRp1604
sS'instance_durations'
p1605
g227
(g228
(I0
tS'b'
tRp1606
(I1
(I1
tg223
(S'f8'
I0
I1
tRp1607
(I3
S'<'
NNNI-1
I-1
I0
tbI00
S'\x85|\xd0\xb3Y5B@'
tbsS'instance_results'
p1608
g227
(g228
(I0
tS'b'
tRp1609
(I1
(I1
tg1607
I00
S'\xe1z\x14\xaeG\xe1\xf2?'
tbsS'instance_status'
p1610
g227
(g228
(I0
tS'b'
tRp1611
(I1
(I1
tg223
(S'i8'
I0
I1
tRp1612
(I3
S'<'
NNNI-1
I-1
I0
tbI00
S'\x03\x00\x00\x00\x00\x00\x00\x00'
tbsS'params'
p1613
g237
((lp1614
(lp1615
S'-conv1_depth'
p1616
aS'98.0'
p1617
aa(lp1618
S'-conv2_depth'
p1619
aS'48.0'
p1620
aa(lp1621
S'-fc_depth'
p1622
aS'374.0'
p1623
aa(lp1624
S'-filter_size'
p1625
aS'5.0'
p1626
aatRp1627
sS'result'
p1628
g222
(g224
S'\xe1z\x14\xaeG\xe1\xf2?'
tRp1629
sS'duration'
p1630
g222
(g224
S'\x85|\xd0\xb3Y5B@'
tRp1631
sS'test_error'
p1632
Fnan
sa(dp1633
S'status'
p1634
I3
sS'std'
p1635
g222
(g224
S'\x00\x00\x00\x00\x00\x00\x00\x00'
tRp1636
sS'instance_durations'
p1637
g227
(g228
(I0
tS'b'
tRp1638
(I1
(I1
tg223
(S'f8'
I0
I1
tRp1639
(I3
S'<'
NNNI-1
I-1
I0
tbI00
S'RI\x9d\x80&\x8aD@'
tbsS'instance_results'
p1640
g227
(g228
(I0
tS'b'
tRp1641
(I1
(I1
tg1639
I00
S'\xcd\xcc\xcc\xcc\xcc\xcc\xf4?'
tbsS'instance_status'
p1642
g227
(g228
(I0
tS'b'
tRp1643
(I1
(I1
tg223
(S'i8'
I0
I1
tRp1644
(I3
S'<'
NNNI-1
I-1
I0
tbI00
S'\x03\x00\x00\x00\x00\x00\x00\x00'
tbsS'params'
p1645
g237
((lp1646
(lp1647
S'-conv1_depth'
p1648
aS'102.0'
p1649
aa(lp1650
S'-conv2_depth'
p1651
aS'46.0'
p1652
aa(lp1653
S'-fc_depth'
p1654
aS'456.0'
p1655
aa(lp1656
S'-filter_size'
p1657
aS'7.0'
p1658
aatRp1659
sS'result'
p1660
g222
(g224
S'\xcd\xcc\xcc\xcc\xcc\xcc\xf4?'
tRp1661
sS'duration'
p1662
g222
(g224
S'RI\x9d\x80&\x8aD@'
tRp1663
sS'test_error'
p1664
Fnan
sa(dp1665
S'status'
p1666
I3
sS'std'
p1667
g222
(g224
S'\x00\x00\x00\x00\x00\x00\x00\x00'
tRp1668
sS'instance_durations'
p1669
g227
(g228
(I0
tS'b'
tRp1670
(I1
(I1
tg223
(S'f8'
I0
I1
tRp1671
(I3
S'<'
NNNI-1
I-1
I0
tbI00
S'+\x18\x95\xd4\tdQ@'
tbsS'instance_results'
p1672
g227
(g228
(I0
tS'b'
tRp1673
(I1
(I1
tg1671
I00
S'\x00\x00\x00\x00\x00\x00\xf0?'
tbsS'instance_status'
p1674
g227
(g228
(I0
tS'b'
tRp1675
(I1
(I1
tg223
(S'i8'
I0
I1
tRp1676
(I3
S'<'
NNNI-1
I-1
I0
tbI00
S'\x03\x00\x00\x00\x00\x00\x00\x00'
tbsS'params'
p1677
g237
((lp1678
(lp1679
S'-conv1_depth'
p1680
aS'170.0'
p1681
aa(lp1682
S'-conv2_depth'
p1683
aS'122.0'
p1684
aa(lp1685
S'-fc_depth'
p1686
aS'362.0'
p1687
aa(lp1688
S'-filter_size'
p1689
aS'5.0'
p1690
aatRp1691
sS'result'
p1692
g222
(g224
S'\x00\x00\x00\x00\x00\x00\xf0?'
tRp1693
sS'duration'
p1694
g222
(g224
S'+\x18\x95\xd4\tdQ@'
tRp1695
sS'test_error'
p1696
Fnan
sa(dp1697
S'status'
p1698
I3
sS'std'
p1699
g222
(g224
S'\x00\x00\x00\x00\x00\x00\x00\x00'
tRp1700
sS'instance_durations'
p1701
g227
(g228
(I0
tS'b'
tRp1702
(I1
(I1
tg223
(S'f8'
I0
I1
tRp1703
(I3
S'<'
NNNI-1
I-1
I0
tbI00
S'\xf6(\\\x8f\xc2]Z@'
tbsS'instance_results'
p1704
g227
(g228
(I0
tS'b'
tRp1705
(I1
(I1
tg1703
I00
S'\xaeG\xe1z\x14nV@'
tbsS'instance_status'
p1706
g227
(g228
(I0
tS'b'
tRp1707
(I1
(I1
tg223
(S'i8'
I0
I1
tRp1708
(I3
S'<'
NNNI-1
I-1
I0
tbI00
S'\x03\x00\x00\x00\x00\x00\x00\x00'
tbsS'params'
p1709
g237
((lp1710
(lp1711
S'-conv1_depth'
p1712
aS'180.0'
p1713
aa(lp1714
S'-conv2_depth'
p1715
aS'118.0'
p1716
aa(lp1717
S'-fc_depth'
p1718
aS'334.0'
p1719
aa(lp1720
S'-filter_size'
p1721
aS'14.0'
p1722
aatRp1723
sS'result'
p1724
g222
(g224
S'\xaeG\xe1z\x14nV@'
tRp1725
sS'duration'
p1726
g222
(g224
S'\xf6(\\\x8f\xc2]Z@'
tRp1727
sS'test_error'
p1728
Fnan
sa(dp1729
S'status'
p1730
I3
sS'std'
p1731
g222
(g224
S'\x00\x00\x00\x00\x00\x00\x00\x00'
tRp1732
sS'instance_durations'
p1733
g227
(g228
(I0
tS'b'
tRp1734
(I1
(I1
tg223
(S'f8'
I0
I1
tRp1735
(I3
S'<'
NNNI-1
I-1
I0
tbI00
S'\x9c\xc4 \xb0r\xf8S@'
tbsS'instance_results'
p1736
g227
(g228
(I0
tS'b'
tRp1737
(I1
(I1
tg1735
I00
S'ffffff\xfe?'
tbsS'instance_status'
p1738
g227
(g228
(I0
tS'b'
tRp1739
(I1
(I1
tg223
(S'i8'
I0
I1
tRp1740
(I3
S'<'
NNNI-1
I-1
I0
tbI00
S'\x03\x00\x00\x00\x00\x00\x00\x00'
tbsS'params'
p1741
g237
((lp1742
(lp1743
S'-conv1_depth'
p1744
aS'166.0'
p1745
aa(lp1746
S'-conv2_depth'
p1747
aS'104.0'
p1748
aa(lp1749
S'-fc_depth'
p1750
aS'448.0'
p1751
aa(lp1752
S'-filter_size'
p1753
aS'8.0'
p1754
aatRp1755
sS'result'
p1756
g222
(g224
S'ffffff\xfe?'
tRp1757
sS'duration'
p1758
g222
(g224
S'\x9c\xc4 \xb0r\xf8S@'
tRp1759
sS'test_error'
p1760
Fnan
sa(dp1761
S'status'
p1762
I3
sS'std'
p1763
g222
(g224
S'\x00\x00\x00\x00\x00\x00\x00\x00'
tRp1764
sS'instance_durations'
p1765
g227
(g228
(I0
tS'b'
tRp1766
(I1
(I1
tg223
(S'f8'
I0
I1
tRp1767
(I3
S'<'
NNNI-1
I-1
I0
tbI00
S'\x14?\xc6\xdc\xb5\x8cH@'
tbsS'instance_results'
p1768
g227
(g228
(I0
tS'b'
tRp1769
(I1
(I1
tg1767
I00
S'\xaeG\xe1z\x14nV@'
tbsS'instance_status'
p1770
g227
(g228
(I0
tS'b'
tRp1771
(I1
(I1
tg223
(S'i8'
I0
I1
tRp1772
(I3
S'<'
NNNI-1
I-1
I0
tbI00
S'\x03\x00\x00\x00\x00\x00\x00\x00'
tbsS'params'
p1773
g237
((lp1774
(lp1775
S'-conv1_depth'
p1776
aS'128.0'
p1777
aa(lp1778
S'-conv2_depth'
p1779
aS'64.0'
p1780
aa(lp1781
S'-fc_depth'
p1782
aS'510.0'
p1783
aa(lp1784
S'-filter_size'
p1785
aS'10.0'
p1786
aatRp1787
sS'result'
p1788
g222
(g224
S'\xaeG\xe1z\x14nV@'
tRp1789
sS'duration'
p1790
g222
(g224
S'\x14?\xc6\xdc\xb5\x8cH@'
tRp1791
sS'test_error'
p1792
Fnan
sa(dp1793
S'status'
p1794
I3
sS'std'
p1795
g222
(g224
S'\x00\x00\x00\x00\x00\x00\x00\x00'
tRp1796
sS'instance_durations'
p1797
g227
(g228
(I0
tS'b'
tRp1798
(I1
(I1
tg223
(S'f8'
I0
I1
tRp1799
(I3
S'<'
NNNI-1
I-1
I0
tbI00
S'd;\xdfO\x8d\x8fH@'
tbsS'instance_results'
p1800
g227
(g228
(I0
tS'b'
tRp1801
(I1
(I1
tg1799
I00
S'\xaeG\xe1z\x14\xae\xf3?'
tbsS'instance_status'
p1802
g227
(g228
(I0
tS'b'
tRp1803
(I1
(I1
tg223
(S'i8'
I0
I1
tRp1804
(I3
S'<'
NNNI-1
I-1
I0
tbI00
S'\x03\x00\x00\x00\x00\x00\x00\x00'
tbsS'params'
p1805
g237
((lp1806
(lp1807
S'-conv1_depth'
p1808
aS'72.0'
p1809
aa(lp1810
S'-conv2_depth'
p1811
aS'144.0'
p1812
aa(lp1813
S'-fc_depth'
p1814
aS'383.0'
p1815
aa(lp1816
S'-filter_size'
p1817
aS'5.0'
p1818
aatRp1819
sS'result'
p1820
g222
(g224
S'\xaeG\xe1z\x14\xae\xf3?'
tRp1821
sS'duration'
p1822
g222
(g224
S'd;\xdfO\x8d\x8fH@'
tRp1823
sS'test_error'
p1824
Fnan
sa(dp1825
S'status'
p1826
I3
sS'std'
p1827
g222
(g224
S'\x00\x00\x00\x00\x00\x00\x00\x00'
tRp1828
sS'instance_durations'
p1829
g227
(g228
(I0
tS'b'
tRp1830
(I1
(I1
tg223
(S'f8'
I0
I1
tRp1831
(I3
S'<'
NNNI-1
I-1
I0
tbI00
S'\xb0rh\x91\xed\x0ca@'
tbsS'instance_results'
p1832
g227
(g228
(I0
tS'b'
tRp1833
(I1
(I1
tg1831
I00
S'\xe1z\x14\xaeG\xe1\xf6?'
tbsS'instance_status'
p1834
g227
(g228
(I0
tS'b'
tRp1835
(I1
(I1
tg223
(S'i8'
I0
I1
tRp1836
(I3
S'<'
NNNI-1
I-1
I0
tbI00
S'\x03\x00\x00\x00\x00\x00\x00\x00'
tbsS'params'
p1837
g237
((lp1838
(lp1839
S'-conv1_depth'
p1840
aS'284.0'
p1841
aa(lp1842
S'-conv2_depth'
p1843
aS'188.0'
p1844
aa(lp1845
S'-fc_depth'
p1846
aS'294.0'
p1847
aa(lp1848
S'-filter_size'
p1849
aS'6.0'
p1850
aatRp1851
sS'result'
p1852
g222
(g224
S'\xe1z\x14\xaeG\xe1\xf6?'
tRp1853
sS'duration'
p1854
g222
(g224
S'\xb0rh\x91\xed\x0ca@'
tRp1855
sS'test_error'
p1856
Fnan
sa(dp1857
S'status'
p1858
I3
sS'std'
p1859
g222
(g224
S'\x00\x00\x00\x00\x00\x00\x00\x00'
tRp1860
sS'instance_durations'
p1861
g227
(g228
(I0
tS'b'
tRp1862
(I1
(I1
tg223
(S'f8'
I0
I1
tRp1863
(I3
S'<'
NNNI-1
I-1
I0
tbI00
S'\x7f\xd9=yX\xb8K@'
tbsS'instance_results'
p1864
g227
(g228
(I0
tS'b'
tRp1865
(I1
(I1
tg1863
I00
S'\xd7\xa3p=\n\xd7\xff?'
tbsS'test_error'
p1866
Fnan
sS'params'
p1867
g237
((lp1868
(lp1869
S'-conv1_depth'
p1870
aS'206.0'
p1871
aa(lp1872
S'-conv2_depth'
p1873
aS'26.0'
p1874
aa(lp1875
S'-fc_depth'
p1876
aS'273.0'
p1877
aa(lp1878
S'-filter_size'
p1879
aS'7.0'
p1880
aatRp1881
sS'result'
p1882
g222
(g224
S'\xd7\xa3p=\n\xd7\xff?'
tRp1883
sS'duration'
p1884
g222
(g224
S'\x7f\xd9=yX\xb8K@'
tRp1885
sS'instance_status'
p1886
g227
(g228
(I0
tS'b'
tRp1887
(I1
(I1
tg223
(S'i8'
I0
I1
tRp1888
(I3
S'<'
NNNI-1
I-1
I0
tbI00
S'\x03\x00\x00\x00\x00\x00\x00\x00'
tbsa(dp1889
S'status'
p1890
I3
sS'std'
p1891
g222
(g224
S'\x00\x00\x00\x00\x00\x00\x00\x00'
tRp1892
sS'instance_durations'
p1893
g227
(g228
(I0
tS'b'
tRp1894
(I1
(I1
tg223
(S'f8'
I0
I1
tRp1895
(I3
S'<'
NNNI-1
I-1
I0
tbI00
S'\\\x8f\xc2\xf5(\x8cT@'
tbsS'instance_results'
p1896
g227
(g228
(I0
tS'b'
tRp1897
(I1
(I1
tg1895
I00
S'\x14\xaeG\xe1z\x14\xfa?'
tbsS'test_error'
p1898
Fnan
sS'params'
p1899
g237
((lp1900
(lp1901
S'-conv1_depth'
p1902
aS'230.0'
p1903
aa(lp1904
S'-conv2_depth'
p1905
aS'88.0'
p1906
aa(lp1907
S'-fc_depth'
p1908
aS'427.0'
p1909
aa(lp1910
S'-filter_size'
p1911
aS'6.0'
p1912
aatRp1913
sS'result'
p1914
g222
(g224
S'\x14\xaeG\xe1z\x14\xfa?'
tRp1915
sS'duration'
p1916
g222
(g224
S'\\\x8f\xc2\xf5(\x8cT@'
tRp1917
sS'instance_status'
p1918
g227
(g228
(I0
tS'b'
tRp1919
(I1
(I1
tg223
(S'i8'
I0
I1
tRp1920
(I3
S'<'
NNNI-1
I-1
I0
tbI00
S'\x03\x00\x00\x00\x00\x00\x00\x00'
tbsa(dp1921
S'status'
p1922
I3
sS'std'
p1923
g222
(g224
S'\x00\x00\x00\x00\x00\x00\x00\x00'
tRp1924
sS'instance_durations'
p1925
g227
(g228
(I0
tS'b'
tRp1926
(I1
(I1
tg223
(S'f8'
I0
I1
tRp1927
(I3
S'<'
NNNI-1
I-1
I0
tbI00
S'7\x1a\xc0[ =R@'
tbsS'instance_results'
p1928
g227
(g228
(I0
tS'b'
tRp1929
(I1
(I1
tg1927
I00
S'H\xe1z\x14\xaeG\xf9?'
tbsS'test_error'
p1930
Fnan
sS'params'
p1931
g237
((lp1932
(lp1933
S'-conv1_depth'
p1934
aS'130.0'
p1935
aa(lp1936
S'-conv2_depth'
p1937
aS'140.0'
p1938
aa(lp1939
S'-fc_depth'
p1940
aS'391.0'
p1941
aa(lp1942
S'-filter_size'
p1943
aS'9.0'
p1944
aatRp1945
sS'result'
p1946
g222
(g224
S'H\xe1z\x14\xaeG\xf9?'
tRp1947
sS'duration'
p1948
g222
(g224
S'7\x1a\xc0[ =R@'
tRp1949
sS'instance_status'
p1950
g227
(g228
(I0
tS'b'
tRp1951
(I1
(I1
tg223
(S'i8'
I0
I1
tRp1952
(I3
S'<'
NNNI-1
I-1
I0
tbI00
S'\x03\x00\x00\x00\x00\x00\x00\x00'
tbsa(dp1953
S'status'
p1954
I3
sS'std'
p1955
g222
(g224
S'\x00\x00\x00\x00\x00\x00\x00\x00'
tRp1956
sS'instance_durations'
p1957
g227
(g228
(I0
tS'b'
tRp1958
(I1
(I1
tg223
(S'f8'
I0
I1
tRp1959
(I3
S'<'
NNNI-1
I-1
I0
tbI00
S'w\xbe\x9f\x1a/\xddi@'
tbsS'instance_results'
p1960
g227
(g228
(I0
tS'b'
tRp1961
(I1
(I1
tg1959
I00
S'\xaeG\xe1z\x14nV@'
tbsS'instance_status'
p1962
g227
(g228
(I0
tS'b'
tRp1963
(I1
(I1
tg223
(S'i8'
I0
I1
tRp1964
(I3
S'<'
NNNI-1
I-1
I0
tbI00
S'\x03\x00\x00\x00\x00\x00\x00\x00'
tbsS'params'
p1965
g237
((lp1966
(lp1967
S'-conv1_depth'
p1968
aS'362.0'
p1969
aa(lp1970
S'-conv2_depth'
p1971
aS'228.0'
p1972
aa(lp1973
S'-fc_depth'
p1974
aS'349.0'
p1975
aa(lp1976
S'-filter_size'
p1977
aS'8.0'
p1978
aatRp1979
sS'result'
p1980
g222
(g224
S'\xaeG\xe1z\x14nV@'
tRp1981
sS'duration'
p1982
g222
(g224
S'w\xbe\x9f\x1a/\xddi@'
tRp1983
sS'test_error'
p1984
Fnan
sa(dp1985
S'status'
p1986
I3
sS'std'
p1987
g222
(g224
S'\x00\x00\x00\x00\x00\x00\x00\x00'
tRp1988
sS'instance_durations'
p1989
g227
(g228
(I0
tS'b'
tRp1990
(I1
(I1
tg223
(S'f8'
I0
I1
tRp1991
(I3
S'<'
NNNI-1
I-1
I0
tbI00
S'\xd7\xa3p=\n\x7f`@'
tbsS'instance_results'
p1992
g227
(g228
(I0
tS'b'
tRp1993
(I1
(I1
tg1991
I00
S'=\n\xd7\xa3pmV@'
tbsS'instance_status'
p1994
g227
(g228
(I0
tS'b'
tRp1995
(I1
(I1
tg223
(S'i8'
I0
I1
tRp1996
(I3
S'<'
NNNI-1
I-1
I0
tbI00
S'\x03\x00\x00\x00\x00\x00\x00\x00'
tbsS'params'
p1997
g237
((lp1998
(lp1999
S'-conv1_depth'
p2000
aS'160.0'
p2001
aa(lp2002
S'-conv2_depth'
p2003
aS'176.0'
p2004
aa(lp2005
S'-fc_depth'
p2006
aS'474.0'
p2007
aa(lp2008
S'-filter_size'
p2009
aS'11.0'
p2010
aatRp2011
sS'result'
p2012
g222
(g224
S'=\n\xd7\xa3pmV@'
tRp2013
sS'duration'
p2014
g222
(g224
S'\xd7\xa3p=\n\x7f`@'
tRp2015
sS'test_error'
p2016
Fnan
sa(dp2017
S'status'
p2018
I3
sS'std'
p2019
g222
(g224
S'\x00\x00\x00\x00\x00\x00\x00\x00'
tRp2020
sS'instance_durations'
p2021
g227
(g228
(I0
tS'b'
tRp2022
(I1
(I1
tg223
(S'f8'
I0
I1
tRp2023
(I3
S'<'
NNNI-1
I-1
I0
tbI00
S'\xa5N@\x13a\xebA@'
tbsS'instance_results'
p2024
g227
(g228
(I0
tS'b'
tRp2025
(I1
(I1
tg2023
I00
S'\x9a\x99\x99\x99\x99\x99\xf5?'
tbsS'instance_status'
p2026
g227
(g228
(I0
tS'b'
tRp2027
(I1
(I1
tg223
(S'i8'
I0
I1
tRp2028
(I3
S'<'
NNNI-1
I-1
I0
tbI00
S'\x03\x00\x00\x00\x00\x00\x00\x00'
tbsS'params'
p2029
g237
((lp2030
(lp2031
S'-conv1_depth'
p2032
aS'86.0'
p2033
aa(lp2034
S'-conv2_depth'
p2035
aS'128.0'
p2036
aa(lp2037
S'-fc_depth'
p2038
aS'319.0'
p2039
aa(lp2040
S'-filter_size'
p2041
aS'3.0'
p2042
aatRp2043
sS'result'
p2044
g222
(g224
S'\x9a\x99\x99\x99\x99\x99\xf5?'
tRp2045
sS'duration'
p2046
g222
(g224
S'\xa5N@\x13a\xebA@'
tRp2047
sS'test_error'
p2048
Fnan
sa(dp2049
S'status'
p2050
I3
sS'std'
p2051
g222
(g224
S'\x00\x00\x00\x00\x00\x00\x00\x00'
tRp2052
sS'instance_durations'
p2053
g227
(g228
(I0
tS'b'
tRp2054
(I1
(I1
tg223
(S'f8'
I0
I1
tRp2055
(I3
S'<'
NNNI-1
I-1
I0
tbI00
S'!\xb0rh\x91mM@'
tbsS'instance_results'
p2056
g227
(g228
(I0
tS'b'
tRp2057
(I1
(I1
tg2055
I00
S'\x9a\x99\x99\x99\x99\x99\xf1?'
tbsS'test_error'
p2058
Fnan
sS'params'
p2059
g237
((lp2060
(lp2061
S'-conv1_depth'
p2062
aS'118.0'
p2063
aa(lp2064
S'-conv2_depth'
p2065
aS'100.0'
p2066
aa(lp2067
S'-fc_depth'
p2068
aS'427.0'
p2069
aa(lp2070
S'-filter_size'
p2071
aS'7.0'
p2072
aatRp2073
sS'result'
p2074
g222
(g224
S'\x9a\x99\x99\x99\x99\x99\xf1?'
tRp2075
sS'duration'
p2076
g222
(g224
S'!\xb0rh\x91mM@'
tRp2077
sS'instance_status'
p2078
g227
(g228
(I0
tS'b'
tRp2079
(I1
(I1
tg223
(S'i8'
I0
I1
tRp2080
(I3
S'<'
NNNI-1
I-1
I0
tbI00
S'\x03\x00\x00\x00\x00\x00\x00\x00'
tbsa(dp2081
S'status'
p2082
I3
sS'std'
p2083
g222
(g224
S'\x00\x00\x00\x00\x00\x00\x00\x00'
tRp2084
sS'instance_durations'
p2085
g227
(g228
(I0
tS'b'
tRp2086
(I1
(I1
tg223
(S'f8'
I0
I1
tRp2087
(I3
S'<'
NNNI-1
I-1
I0
tbI00
S'.\x90\xa0\xf81\xf6C@'
tbsS'instance_results'
p2088
g227
(g228
(I0
tS'b'
tRp2089
(I1
(I1
tg2087
I00
S'333333\xff?'
tbsS'instance_status'
p2090
g227
(g228
(I0
tS'b'
tRp2091
(I1
(I1
tg223
(S'i8'
I0
I1
tRp2092
(I3
S'<'
NNNI-1
I-1
I0
tbI00
S'\x03\x00\x00\x00\x00\x00\x00\x00'
tbsS'params'
p2093
g237
((lp2094
(lp2095
S'-conv1_depth'
p2096
aS'20.0'
p2097
aa(lp2098
S'-conv2_depth'
p2099
aS'166.0'
p2100
aa(lp2101
S'-fc_depth'
p2102
aS'425.0'
p2103
aa(lp2104
S'-filter_size'
p2105
aS'11.0'
p2106
aatRp2107
sS'result'
p2108
g222
(g224
S'333333\xff?'
tRp2109
sS'duration'
p2110
g222
(g224
S'.\x90\xa0\xf81\xf6C@'
tRp2111
sS'test_error'
p2112
Fnan
sa(dp2113
S'status'
p2114
I3
sS'std'
p2115
g222
(g224
S'\x00\x00\x00\x00\x00\x00\x00\x00'
tRp2116
sS'instance_durations'
p2117
g227
(g228
(I0
tS'b'
tRp2118
(I1
(I1
tg223
(S'f8'
I0
I1
tRp2119
(I3
S'<'
NNNI-1
I-1
I0
tbI00
S'\xd9\xce\xf7S\xe3!o@'
tbsS'instance_results'
p2120
g227
(g228
(I0
tS'b'
tRp2121
(I1
(I1
tg2119
I00
S'\xaeG\xe1z\x14nV@'
tbsS'instance_status'
p2122
g227
(g228
(I0
tS'b'
tRp2123
(I1
(I1
tg223
(S'i8'
I0
I1
tRp2124
(I3
S'<'
NNNI-1
I-1
I0
tbI00
S'\x03\x00\x00\x00\x00\x00\x00\x00'
tbsS'params'
p2125
g237
((lp2126
(lp2127
S'-conv1_depth'
p2128
aS'336.0'
p2129
aa(lp2130
S'-conv2_depth'
p2131
aS'274.0'
p2132
aa(lp2133
S'-fc_depth'
p2134
aS'500.0'
p2135
aa(lp2136
S'-filter_size'
p2137
aS'10.0'
p2138
aatRp2139
sS'result'
p2140
g222
(g224
S'\xaeG\xe1z\x14nV@'
tRp2141
sS'duration'
p2142
g222
(g224
S'\xd9\xce\xf7S\xe3!o@'
tRp2143
sS'test_error'
p2144
Fnan
sa(dp2145
S'status'
p2146
I3
sS'std'
p2147
g222
(g224
S'\x00\x00\x00\x00\x00\x00\x00\x00'
tRp2148
sS'instance_durations'
p2149
g227
(g228
(I0
tS'b'
tRp2150
(I1
(I1
tg223
(S'f8'
I0
I1
tRp2151
(I3
S'<'
NNNI-1
I-1
I0
tbI00
S'H\xe1z\x14\xae\x0fb@'
tbsS'instance_results'
p2152
g227
(g228
(I0
tS'b'
tRp2153
(I1
(I1
tg2151
I00
S'33333\xd3C@'
tbsS'instance_status'
p2154
g227
(g228
(I0
tS'b'
tRp2155
(I1
(I1
tg223
(S'i8'
I0
I1
tRp2156
(I3
S'<'
NNNI-1
I-1
I0
tbI00
S'\x03\x00\x00\x00\x00\x00\x00\x00'
tbsS'params'
p2157
g237
((lp2158
(lp2159
S'-conv1_depth'
p2160
aS'194.0'
p2161
aa(lp2162
S'-conv2_depth'
p2163
aS'192.0'
p2164
aa(lp2165
S'-fc_depth'
p2166
aS'465.0'
p2167
aa(lp2168
S'-filter_size'
p2169
aS'14.0'
p2170
aatRp2171
sS'result'
p2172
g222
(g224
S'33333\xd3C@'
tRp2173
sS'duration'
p2174
g222
(g224
S'H\xe1z\x14\xae\x0fb@'
tRp2175
sS'test_error'
p2176
Fnan
sa(dp2177
S'status'
p2178
I3
sS'std'
p2179
g222
(g224
S'\x00\x00\x00\x00\x00\x00\x00\x00'
tRp2180
sS'instance_durations'
p2181
g227
(g228
(I0
tS'b'
tRp2182
(I1
(I1
tg223
(S'f8'
I0
I1
tRp2183
(I3
S'<'
NNNI-1
I-1
I0
tbI00
S'\x1d8gDi\xe7C@'
tbsS'instance_results'
p2184
g227
(g228
(I0
tS'b'
tRp2185
(I1
(I1
tg2183
I00
S'\x00\x00\x00\x00\x00\x00\xf8?'
tbsS'instance_status'
p2186
g227
(g228
(I0
tS'b'
tRp2187
(I1
(I1
tg223
(S'i8'
I0
I1
tRp2188
(I3
S'<'
NNNI-1
I-1
I0
tbI00
S'\x03\x00\x00\x00\x00\x00\x00\x00'
tbsS'params'
p2189
g237
((lp2190
(lp2191
S'-conv1_depth'
p2192
aS'58.0'
p2193
aa(lp2194
S'-conv2_depth'
p2195
aS'102.0'
p2196
aa(lp2197
S'-fc_depth'
p2198
aS'360.0'
p2199
aa(lp2200
S'-filter_size'
p2201
aS'9.0'
p2202
aatRp2203
sS'result'
p2204
g222
(g224
S'\x00\x00\x00\x00\x00\x00\xf8?'
tRp2205
sS'duration'
p2206
g222
(g224
S'\x1d8gDi\xe7C@'
tRp2207
sS'test_error'
p2208
Fnan
sa(dp2209
S'status'
p2210
I3
sS'std'
p2211
g222
(g224
S'\x00\x00\x00\x00\x00\x00\x00\x00'
tRp2212
sS'instance_durations'
p2213
g227
(g228
(I0
tS'b'
tRp2214
(I1
(I1
tg223
(S'f8'
I0
I1
tRp2215
(I3
S'<'
NNNI-1
I-1
I0
tbI00
S'1\x08\xac\x1cZ\xd4c@'
tbsS'instance_results'
p2216
g227
(g228
(I0
tS'b'
tRp2217
(I1
(I1
tg2215
I00
S'\xcd\xcc\xcc\xcc\xcc\x8cV@'
tbsS'test_error'
p2218
Fnan
sS'params'
p2219
g237
((lp2220
(lp2221
S'-conv1_depth'
p2222
aS'214.0'
p2223
aa(lp2224
S'-conv2_depth'
p2225
aS'224.0'
p2226
aa(lp2227
S'-fc_depth'
p2228
aS'417.0'
p2229
aa(lp2230
S'-filter_size'
p2231
aS'13.0'
p2232
aatRp2233
sS'result'
p2234
g222
(g224
S'\xcd\xcc\xcc\xcc\xcc\x8cV@'
tRp2235
sS'duration'
p2236
g222
(g224
S'1\x08\xac\x1cZ\xd4c@'
tRp2237
sS'instance_status'
p2238
g227
(g228
(I0
tS'b'
tRp2239
(I1
(I1
tg223
(S'i8'
I0
I1
tRp2240
(I3
S'<'
NNNI-1
I-1
I0
tbI00
S'\x03\x00\x00\x00\x00\x00\x00\x00'
tbsa(dp2241
S'status'
p2242
I3
sS'std'
p2243
g222
(g224
S'\x00\x00\x00\x00\x00\x00\x00\x00'
tRp2244
sS'instance_durations'
p2245
g227
(g228
(I0
tS'b'
tRp2246
(I1
(I1
tg223
(S'f8'
I0
I1
tRp2247
(I3
S'<'
NNNI-1
I-1
I0
tbI00
S'\xd7\xa3p=\nOk@'
tbsS'instance_results'
p2248
g227
(g228
(I0
tS'b'
tRp2249
(I1
(I1
tg2247
I00
S'\xaeG\xe1z\x14nV@'
tbsS'instance_status'
p2250
g227
(g228
(I0
tS'b'
tRp2251
(I1
(I1
tg223
(S'i8'
I0
I1
tRp2252
(I3
S'<'
NNNI-1
I-1
I0
tbI00
S'\x03\x00\x00\x00\x00\x00\x00\x00'
tbsS'params'
p2253
g237
((lp2254
(lp2255
S'-conv1_depth'
p2256
aS'288.0'
p2257
aa(lp2258
S'-conv2_depth'
p2259
aS'324.0'
p2260
aa(lp2261
S'-fc_depth'
p2262
aS'396.0'
p2263
aa(lp2264
S'-filter_size'
p2265
aS'7.0'
p2266
aatRp2267
sS'result'
p2268
g222
(g224
S'\xaeG\xe1z\x14nV@'
tRp2269
sS'duration'
p2270
g222
(g224
S'\xd7\xa3p=\nOk@'
tRp2271
sS'test_error'
p2272
Fnan
sa(dp2273
S'status'
p2274
I3
sS'std'
p2275
g222
(g224
S'\x00\x00\x00\x00\x00\x00\x00\x00'
tRp2276
sS'instance_durations'
p2277
g227
(g228
(I0
tS'b'
tRp2278
(I1
(I1
tg223
(S'f8'
I0
I1
tRp2279
(I3
S'<'
NNNI-1
I-1
I0
tbI00
S'v\xe0\x9c\x11\xa5\xddQ@'
tbsS'instance_results'
p2280
g227
(g228
(I0
tS'b'
tRp2281
(I1
(I1
tg2279
I00
S'=\n\xd7\xa3pmV@'
tbsS'test_error'
p2282
Fnan
sS'params'
p2283
g237
((lp2284
(lp2285
S'-conv1_depth'
p2286
aS'246.0'
p2287
aa(lp2288
S'-conv2_depth'
p2289
aS'34.0'
p2290
aa(lp2291
S'-fc_depth'
p2292
aS'484.0'
p2293
aa(lp2294
S'-filter_size'
p2295
aS'7.0'
p2296
aatRp2297
sS'result'
p2298
g222
(g224
S'=\n\xd7\xa3pmV@'
tRp2299
sS'duration'
p2300
g222
(g224
S'v\xe0\x9c\x11\xa5\xddQ@'
tRp2301
sS'instance_status'
p2302
g227
(g228
(I0
tS'b'
tRp2303
(I1
(I1
tg223
(S'i8'
I0
I1
tRp2304
(I3
S'<'
NNNI-1
I-1
I0
tbI00
S'\x03\x00\x00\x00\x00\x00\x00\x00'
tbsa(dp2305
S'status'
p2306
I3
sS'std'
p2307
g222
(g224
S'\x00\x00\x00\x00\x00\x00\x00\x00'
tRp2308
sS'instance_durations'
p2309
g227
(g228
(I0
tS'b'
tRp2310
(I1
(I1
tg223
(S'f8'
I0
I1
tRp2311
(I3
S'<'
NNNI-1
I-1
I0
tbI00
S'\xfee\xf7\xe4a\x19G@'
tbsS'instance_results'
p2312
g227
(g228
(I0
tS'b'
tRp2313
(I1
(I1
tg2311
I00
S'\\\x8f\xc2\xf5(\\\xf3?'
tbsS'test_error'
p2314
Fnan
sS'params'
p2315
g237
((lp2316
(lp2317
S'-conv1_depth'
p2318
aS'120.0'
p2319
aa(lp2320
S'-conv2_depth'
p2321
aS'70.0'
p2322
aa(lp2323
S'-fc_depth'
p2324
aS'310.0'
p2325
aa(lp2326
S'-filter_size'
p2327
aS'5.0'
p2328
aatRp2329
sS'result'
p2330
g222
(g224
S'\\\x8f\xc2\xf5(\\\xf3?'
tRp2331
sS'duration'
p2332
g222
(g224
S'\xfee\xf7\xe4a\x19G@'
tRp2333
sS'instance_status'
p2334
g227
(g228
(I0
tS'b'
tRp2335
(I1
(I1
tg223
(S'i8'
I0
I1
tRp2336
(I3
S'<'
NNNI-1
I-1
I0
tbI00
S'\x03\x00\x00\x00\x00\x00\x00\x00'
tbsa(dp2337
S'status'
p2338
I3
sS'std'
p2339
g222
(g224
S'\x00\x00\x00\x00\x00\x00\x00\x00'
tRp2340
sS'instance_durations'
p2341
g227
(g228
(I0
tS'b'
tRp2342
(I1
(I1
tg223
(S'f8'
I0
I1
tRp2343
(I3
S'<'
NNNI-1
I-1
I0
tbI00
S'\xe9\xb7\xaf\x03\xe7\xd4J@'
tbsS'instance_results'
p2344
g227
(g228
(I0
tS'b'
tRp2345
(I1
(I1
tg2343
I00
S'\x14\xaeG\xe1z\x14\xf2?'
tbsS'instance_status'
p2346
g227
(g228
(I0
tS'b'
tRp2347
(I1
(I1
tg223
(S'i8'
I0
I1
tRp2348
(I3
S'<'
NNNI-1
I-1
I0
tbI00
S'\x03\x00\x00\x00\x00\x00\x00\x00'
tbsS'params'
p2349
g237
((lp2350
(lp2351
S'-conv1_depth'
p2352
aS'154.0'
p2353
aa(lp2354
S'-conv2_depth'
p2355
aS'64.0'
p2356
aa(lp2357
S'-fc_depth'
p2358
aS'252.0'
p2359
aa(lp2360
S'-filter_size'
p2361
aS'6.0'
p2362
aatRp2363
sS'result'
p2364
g222
(g224
S'\x14\xaeG\xe1z\x14\xf2?'
tRp2365
sS'duration'
p2366
g222
(g224
S'\xe9\xb7\xaf\x03\xe7\xd4J@'
tRp2367
sS'test_error'
p2368
Fnan
sa(dp2369
S'status'
p2370
I3
sS'std'
p2371
g222
(g224
S'\x00\x00\x00\x00\x00\x00\x00\x00'
tRp2372
sS'instance_durations'
p2373
g227
(g228
(I0
tS'b'
tRp2374
(I1
(I1
tg223
(S'f8'
I0
I1
tRp2375
(I3
S'<'
NNNI-1
I-1
I0
tbI00
S'\xd4\x9a\xe6\x1d\xa74P@'
tbsS'instance_results'
p2376
g227
(g228
(I0
tS'b'
tRp2377
(I1
(I1
tg2375
I00
S'\x8f\xc2\xf5(\\\x8f\xf2?'
tbsS'instance_status'
p2378
g227
(g228
(I0
tS'b'
tRp2379
(I1
(I1
tg223
(S'i8'
I0
I1
tRp2380
(I3
S'<'
NNNI-1
I-1
I0
tbI00
S'\x03\x00\x00\x00\x00\x00\x00\x00'
tbsS'params'
p2381
g237
((lp2382
(lp2383
S'-conv1_depth'
p2384
aS'158.0'
p2385
aa(lp2386
S'-conv2_depth'
p2387
aS'94.0'
p2388
aa(lp2389
S'-fc_depth'
p2390
aS'226.0'
p2391
aa(lp2392
S'-filter_size'
p2393
aS'6.0'
p2394
aatRp2395
sS'result'
p2396
g222
(g224
S'\x8f\xc2\xf5(\\\x8f\xf2?'
tRp2397
sS'duration'
p2398
g222
(g224
S'\xd4\x9a\xe6\x1d\xa74P@'
tRp2399
sS'test_error'
p2400
Fnan
sa(dp2401
S'status'
p2402
I3
sS'std'
p2403
g222
(g224
S'\x00\x00\x00\x00\x00\x00\x00\x00'
tRp2404
sS'instance_durations'
p2405
g227
(g228
(I0
tS'b'
tRp2406
(I1
(I1
tg223
(S'f8'
I0
I1
tRp2407
(I3
S'<'
NNNI-1
I-1
I0
tbI00
S'd]\xdcF\x03hD@'
tbsS'instance_results'
p2408
g227
(g228
(I0
tS'b'
tRp2409
(I1
(I1
tg2407
I00
S'R\xb8\x1e\x85\xebQ\xf4?'
tbsS'test_error'
p2410
Fnan
sS'params'
p2411
g237
((lp2412
(lp2413
S'-conv1_depth'
p2414
aS'84.0'
p2415
aa(lp2416
S'-conv2_depth'
p2417
aS'114.0'
p2418
aa(lp2419
S'-fc_depth'
p2420
aS'339.0'
p2421
aa(lp2422
S'-filter_size'
p2423
aS'4.0'
p2424
aatRp2425
sS'result'
p2426
g222
(g224
S'R\xb8\x1e\x85\xebQ\xf4?'
tRp2427
sS'duration'
p2428
g222
(g224
S'd]\xdcF\x03hD@'
tRp2429
sS'instance_status'
p2430
g227
(g228
(I0
tS'b'
tRp2431
(I1
(I1
tg223
(S'i8'
I0
I1
tRp2432
(I3
S'<'
NNNI-1
I-1
I0
tbI00
S'\x03\x00\x00\x00\x00\x00\x00\x00'
tbsa(dp2433
S'status'
p2434
I3
sS'std'
p2435
g222
(g224
S'\x00\x00\x00\x00\x00\x00\x00\x00'
tRp2436
sS'instance_durations'
p2437
g227
(g228
(I0
tS'b'
tRp2438
(I1
(I1
tg223
(S'f8'
I0
I1
tRp2439
(I3
S'<'
NNNI-1
I-1
I0
tbI00
S'\xb6\x84|\xd0\xb3\x05V@'
tbsS'instance_results'
p2440
g227
(g228
(I0
tS'b'
tRp2441
(I1
(I1
tg2439
I00
S'\xb8\x1e\x85\xebQ\xb8\xfa?'
tbsS'test_error'
p2442
Fnan
sS'params'
p2443
g237
((lp2444
(lp2445
S'-conv1_depth'
p2446
aS'148.0'
p2447
aa(lp2448
S'-conv2_depth'
p2449
aS'160.0'
p2450
aa(lp2451
S'-fc_depth'
p2452
aS'254.0'
p2453
aa(lp2454
S'-filter_size'
p2455
aS'8.0'
p2456
aatRp2457
sS'result'
p2458
g222
(g224
S'\xb8\x1e\x85\xebQ\xb8\xfa?'
tRp2459
sS'duration'
p2460
g222
(g224
S'\xb6\x84|\xd0\xb3\x05V@'
tRp2461
sS'instance_status'
p2462
g227
(g228
(I0
tS'b'
tRp2463
(I1
(I1
tg223
(S'i8'
I0
I1
tRp2464
(I3
S'<'
NNNI-1
I-1
I0
tbI00
S'\x03\x00\x00\x00\x00\x00\x00\x00'
tbsa(dp2465
S'status'
p2466
I3
sS'std'
p2467
g222
(g224
S'\x00\x00\x00\x00\x00\x00\x00\x00'
tRp2468
sS'instance_durations'
p2469
g227
(g228
(I0
tS'b'
tRp2470
(I1
(I1
tg223
(S'f8'
I0
I1
tRp2471
(I3
S'<'
NNNI-1
I-1
I0
tbI00
S'b\x10X9\xb4\xe0]@'
tbsS'instance_results'
p2472
g227
(g228
(I0
tS'b'
tRp2473
(I1
(I1
tg2471
I00
S'\xf6(\\\x8f\xc2\xf5\x0c@'
tbsS'instance_status'
p2474
g227
(g228
(I0
tS'b'
tRp2475
(I1
(I1
tg223
(S'i8'
I0
I1
tRp2476
(I3
S'<'
NNNI-1
I-1
I0
tbI00
S'\x03\x00\x00\x00\x00\x00\x00\x00'
tbsS'params'
p2477
g237
((lp2478
(lp2479
S'-conv1_depth'
p2480
aS'274.0'
p2481
aa(lp2482
S'-conv2_depth'
p2483
aS'136.0'
p2484
aa(lp2485
S'-fc_depth'
p2486
aS'439.0'
p2487
aa(lp2488
S'-filter_size'
p2489
aS'8.0'
p2490
aatRp2491
sS'result'
p2492
g222
(g224
S'\xf6(\\\x8f\xc2\xf5\x0c@'
tRp2493
sS'duration'
p2494
g222
(g224
S'b\x10X9\xb4\xe0]@'
tRp2495
sS'test_error'
p2496
Fnan
sa(dp2497
S'status'
p2498
I3
sS'std'
p2499
g222
(g224
S'\x00\x00\x00\x00\x00\x00\x00\x00'
tRp2500
sS'instance_durations'
p2501
g227
(g228
(I0
tS'b'
tRp2502
(I1
(I1
tg223
(S'f8'
I0
I1
tRp2503
(I3
S'<'
NNNI-1
I-1
I0
tbI00
S'\x03x\x0b$(\x92R@'
tbsS'instance_results'
p2504
g227
(g228
(I0
tS'b'
tRp2505
(I1
(I1
tg2503
I00
S'H\xe1z\x14\xaeG\xf9?'
tbsS'test_error'
p2506
Fnan
sS'params'
p2507
g237
((lp2508
(lp2509
S'-conv1_depth'
p2510
aS'222.0'
p2511
aa(lp2512
S'-conv2_depth'
p2513
aS'80.0'
p2514
aa(lp2515
S'-fc_depth'
p2516
aS'206.0'
p2517
aa(lp2518
S'-filter_size'
p2519
aS'6.0'
p2520
aatRp2521
sS'result'
p2522
g222
(g224
S'H\xe1z\x14\xaeG\xf9?'
tRp2523
sS'duration'
p2524
g222
(g224
S'\x03x\x0b$(\x92R@'
tRp2525
sS'instance_status'
p2526
g227
(g228
(I0
tS'b'
tRp2527
(I1
(I1
tg223
(S'i8'
I0
I1
tRp2528
(I3
S'<'
NNNI-1
I-1
I0
tbI00
S'\x03\x00\x00\x00\x00\x00\x00\x00'
tbsa(dp2529
S'status'
p2530
I3
sS'std'
p2531
g222
(g224
S'\x00\x00\x00\x00\x00\x00\x00\x00'
tRp2532
sS'instance_durations'
p2533
g227
(g228
(I0
tS'b'
tRp2534
(I1
(I1
tg223
(S'f8'
I0
I1
tRp2535
(I3
S'<'
NNNI-1
I-1
I0
tbI00
S'\x7f\xfb:p\xce\x98F@'
tbsS'instance_results'
p2536
g227
(g228
(I0
tS'b'
tRp2537
(I1
(I1
tg2535
I00
S'\xaeG\xe1z\x14\xae\xf3?'
tbsS'test_error'
p2538
Fnan
sS'params'
p2539
g237
((lp2540
(lp2541
S'-conv1_depth'
p2542
aS'174.0'
p2543
aa(lp2544
S'-conv2_depth'
p2545
aS'20.0'
p2546
aa(lp2547
S'-fc_depth'
p2548
aS'289.0'
p2549
aa(lp2550
S'-filter_size'
p2551
aS'5.0'
p2552
aatRp2553
sS'result'
p2554
g222
(g224
S'\xaeG\xe1z\x14\xae\xf3?'
tRp2555
sS'duration'
p2556
g222
(g224
S'\x7f\xfb:p\xce\x98F@'
tRp2557
sS'instance_status'
p2558
g227
(g228
(I0
tS'b'
tRp2559
(I1
(I1
tg223
(S'i8'
I0
I1
tRp2560
(I3
S'<'
NNNI-1
I-1
I0
tbI00
S'\x03\x00\x00\x00\x00\x00\x00\x00'
tbsa(dp2561
S'status'
p2562
I3
sS'std'
p2563
g222
(g224
S'\x00\x00\x00\x00\x00\x00\x00\x00'
tRp2564
sS'instance_durations'
p2565
g227
(g228
(I0
tS'b'
tRp2566
(I1
(I1
tg223
(S'f8'
I0
I1
tRp2567
(I3
S'<'
NNNI-1
I-1
I0
tbI00
S'$\x97\xff\x90~\xa3@@'
tbsS'instance_results'
p2568
g227
(g228
(I0
tS'b'
tRp2569
(I1
(I1
tg2567
I00
S'q=\n\xd7\xa3p\xfd?'
tbsS'test_error'
p2570
Fnan
sS'params'
p2571
g237
((lp2572
(lp2573
S'-conv1_depth'
p2574
aS'112.0'
p2575
aa(lp2576
S'-conv2_depth'
p2577
aS'56.0'
p2578
aa(lp2579
S'-fc_depth'
p2580
aS'265.0'
p2581
aa(lp2582
S'-filter_size'
p2583
aS'2.0'
p2584
aatRp2585
sS'result'
p2586
g222
(g224
S'q=\n\xd7\xa3p\xfd?'
tRp2587
sS'duration'
p2588
g222
(g224
S'$\x97\xff\x90~\xa3@@'
tRp2589
sS'instance_status'
p2590
g227
(g228
(I0
tS'b'
tRp2591
(I1
(I1
tg223
(S'i8'
I0
I1
tRp2592
(I3
S'<'
NNNI-1
I-1
I0
tbI00
S'\x03\x00\x00\x00\x00\x00\x00\x00'
tbsa(dp2593
S'status'
p2594
I3
sS'std'
p2595
g222
(g224
S'\x00\x00\x00\x00\x00\x00\x00\x00'
tRp2596
sS'instance_durations'
p2597
g227
(g228
(I0
tS'b'
tRp2598
(I1
(I1
tg223
(S'f8'
I0
I1
tRp2599
(I3
S'<'
NNNI-1
I-1
I0
tbI00
S'\xe6\xae%\xe4\x83\x12P@'
tbsS'instance_results'
p2600
g227
(g228
(I0
tS'b'
tRp2601
(I1
(I1
tg2599
I00
S'H\xe1z\x14\xaeG\xf1?'
tbsS'test_error'
p2602
Fnan
sS'params'
p2603
g237
((lp2604
(lp2605
S'-conv1_depth'
p2606
aS'140.0'
p2607
aa(lp2608
S'-conv2_depth'
p2609
aS'154.0'
p2610
aa(lp2611
S'-fc_depth'
p2612
aS'406.0'
p2613
aa(lp2614
S'-filter_size'
p2615
aS'4.0'
p2616
aatRp2617
sS'result'
p2618
g222
(g224
S'H\xe1z\x14\xaeG\xf1?'
tRp2619
sS'duration'
p2620
g222
(g224
S'\xe6\xae%\xe4\x83\x12P@'
tRp2621
sS'instance_status'
p2622
g227
(g228
(I0
tS'b'
tRp2623
(I1
(I1
tg223
(S'i8'
I0
I1
tRp2624
(I3
S'<'
NNNI-1
I-1
I0
tbI00
S'\x03\x00\x00\x00\x00\x00\x00\x00'
tbsa(dp2625
S'status'
p2626
I3
sS'std'
p2627
g222
(g224
S'\x00\x00\x00\x00\x00\x00\x00\x00'
tRp2628
sS'instance_durations'
p2629
g227
(g228
(I0
tS'b'
tRp2630
(I1
(I1
tg223
(S'f8'
I0
I1
tRp2631
(I3
S'<'
NNNI-1
I-1
I0
tbI00
S'\x18&S\x05\xa3\xb2L@'
tbsS'instance_results'
p2632
g227
(g228
(I0
tS'b'
tRp2633
(I1
(I1
tg2631
I00
S'\n\xd7\xa3p=\n\xfb?'
tbsS'instance_status'
p2634
g227
(g228
(I0
tS'b'
tRp2635
(I1
(I1
tg223
(S'i8'
I0
I1
tRp2636
(I3
S'<'
NNNI-1
I-1
I0
tbI00
S'\x03\x00\x00\x00\x00\x00\x00\x00'
tbsS'params'
p2637
g237
((lp2638
(lp2639
S'-conv1_depth'
p2640
aS'192.0'
p2641
aa(lp2642
S'-conv2_depth'
p2643
aS'152.0'
p2644
aa(lp2645
S'-fc_depth'
p2646
aS'408.0'
p2647
aa(lp2648
S'-filter_size'
p2649
aS'2.0'
p2650
aatRp2651
sS'result'
p2652
g222
(g224
S'\n\xd7\xa3p=\n\xfb?'
tRp2653
sS'duration'
p2654
g222
(g224
S'\x18&S\x05\xa3\xb2L@'
tRp2655
sS'test_error'
p2656
Fnan
sa(dp2657
S'status'
p2658
I3
sS'std'
p2659
g222
(g224
S'\x00\x00\x00\x00\x00\x00\x00\x00'
tRp2660
sS'instance_durations'
p2661
g227
(g228
(I0
tS'b'
tRp2662
(I1
(I1
tg223
(S'f8'
I0
I1
tRp2663
(I3
S'<'
NNNI-1
I-1
I0
tbI00
S'\xd3\xde\xe0\x0b\x93\xa1E@'
tbsS'instance_results'
p2664
g227
(g228
(I0
tS'b'
tRp2665
(I1
(I1
tg2663
I00
S'\xecQ\xb8\x1e\x85\xeb\x1c@'
tbsS'test_error'
p2666
Fnan
sS'params'
p2667
g237
((lp2668
(lp2669
S'-conv1_depth'
p2670
aS'134.0'
p2671
aa(lp2672
S'-conv2_depth'
p2673
aS'196.0'
p2674
aa(lp2675
S'-fc_depth'
p2676
aS'375.0'
p2677
aa(lp2678
S'-filter_size'
p2679
aS'1.0'
p2680
aatRp2681
sS'result'
p2682
g222
(g224
S'\xecQ\xb8\x1e\x85\xeb\x1c@'
tRp2683
sS'duration'
p2684
g222
(g224
S'\xd3\xde\xe0\x0b\x93\xa1E@'
tRp2685
sS'instance_status'
p2686
g227
(g228
(I0
tS'b'
tRp2687
(I1
(I1
tg223
(S'i8'
I0
I1
tRp2688
(I3
S'<'
NNNI-1
I-1
I0
tbI00
S'\x03\x00\x00\x00\x00\x00\x00\x00'
tbsa(dp2689
S'status'
p2690
I3
sS'std'
p2691
g222
(g224
S'\x00\x00\x00\x00\x00\x00\x00\x00'
tRp2692
sS'instance_durations'
p2693
g227
(g228
(I0
tS'b'
tRp2694
(I1
(I1
tg223
(S'f8'
I0
I1
tRp2695
(I3
S'<'
NNNI-1
I-1
I0
tbI00
S'$(~\x8c\xb9sE@'
tbsS'instance_results'
p2696
g227
(g228
(I0
tS'b'
tRp2697
(I1
(I1
tg2695
I00
S'\x00\x00\x00\x00\x00\x00\xf8?'
tbsS'test_error'
p2698
Fnan
sS'params'
p2699
g237
((lp2700
(lp2701
S'-conv1_depth'
p2702
aS'24.0'
p2703
aa(lp2704
S'-conv2_depth'
p2705
aS'266.0'
p2706
aa(lp2707
S'-fc_depth'
p2708
aS'509.0'
p2709
aa(lp2710
S'-filter_size'
p2711
aS'3.0'
p2712
aatRp2713
sS'result'
p2714
g222
(g224
S'\x00\x00\x00\x00\x00\x00\xf8?'
tRp2715
sS'duration'
p2716
g222
(g224
S'$(~\x8c\xb9sE@'
tRp2717
sS'instance_status'
p2718
g227
(g228
(I0
tS'b'
tRp2719
(I1
(I1
tg223
(S'i8'
I0
I1
tRp2720
(I3
S'<'
NNNI-1
I-1
I0
tbI00
S'\x03\x00\x00\x00\x00\x00\x00\x00'
tbsa(dp2721
S'status'
p2722
I3
sS'std'
p2723
g222
(g224
S'\x00\x00\x00\x00\x00\x00\x00\x00'
tRp2724
sS'instance_durations'
p2725
g227
(g228
(I0
tS'b'
tRp2726
(I1
(I1
tg223
(S'f8'
I0
I1
tRp2727
(I3
S'<'
NNNI-1
I-1
I0
tbI00
S'\x8d\x97n\x12\x83\xe0Y@'
tbsS'instance_results'
p2728
g227
(g228
(I0
tS'b'
tRp2729
(I1
(I1
tg2727
I00
S'{\x14\xaeG\xe1z\xf4?'
tbsS'test_error'
p2730
Fnan
sS'params'
p2731
g237
((lp2732
(lp2733
S'-conv1_depth'
p2734
aS'236.0'
p2735
aa(lp2736
S'-conv2_depth'
p2737
aS'230.0'
p2738
aa(lp2739
S'-fc_depth'
p2740
aS'328.0'
p2741
aa(lp2742
S'-filter_size'
p2743
aS'4.0'
p2744
aatRp2745
sS'result'
p2746
g222
(g224
S'{\x14\xaeG\xe1z\xf4?'
tRp2747
sS'duration'
p2748
g222
(g224
S'\x8d\x97n\x12\x83\xe0Y@'
tRp2749
sS'instance_status'
p2750
g227
(g228
(I0
tS'b'
tRp2751
(I1
(I1
tg223
(S'i8'
I0
I1
tRp2752
(I3
S'<'
NNNI-1
I-1
I0
tbI00
S'\x03\x00\x00\x00\x00\x00\x00\x00'
tbsa(dp2753
S'status'
p2754
I3
sS'std'
p2755
g222
(g224
S'\x00\x00\x00\x00\x00\x00\x00\x00'
tRp2756
sS'instance_durations'
p2757
g227
(g228
(I0
tS'b'
tRp2758
(I1
(I1
tg223
(S'f8'
I0
I1
tRp2759
(I3
S'<'
NNNI-1
I-1
I0
tbI00
S'\xf2\xd2Mb\x10PA@'
tbsS'instance_results'
p2760
g227
(g228
(I0
tS'b'
tRp2761
(I1
(I1
tg2759
I00
S'\x00\x00\x00\x00\x00\x00\xf4?'
tbsS'test_error'
p2762
Fnan
sS'params'
p2763
g237
((lp2764
(lp2765
S'-conv1_depth'
p2766
aS'82.0'
p2767
aa(lp2768
S'-conv2_depth'
p2769
aS'110.0'
p2770
aa(lp2771
S'-fc_depth'
p2772
aS'357.0'
p2773
aa(lp2774
S'-filter_size'
p2775
aS'3.0'
p2776
aatRp2777
sS'result'
p2778
g222
(g224
S'\x00\x00\x00\x00\x00\x00\xf4?'
tRp2779
sS'duration'
p2780
g222
(g224
S'\xf2\xd2Mb\x10PA@'
tRp2781
sS'instance_status'
p2782
g227
(g228
(I0
tS'b'
tRp2783
(I1
(I1
tg223
(S'i8'
I0
I1
tRp2784
(I3
S'<'
NNNI-1
I-1
I0
tbI00
S'\x03\x00\x00\x00\x00\x00\x00\x00'
tbsa(dp2785
S'status'
p2786
I3
sS'std'
p2787
g222
(g224
S'\x00\x00\x00\x00\x00\x00\x00\x00'
tRp2788
sS'instance_durations'
p2789
g227
(g228
(I0
tS'b'
tRp2790
(I1
(I1
tg223
(S'f8'
I0
I1
tRp2791
(I3
S'<'
NNNI-1
I-1
I0
tbI00
S's\xd7\x12\xf2ACP@'
tbsS'instance_results'
p2792
g227
(g228
(I0
tS'b'
tRp2793
(I1
(I1
tg2791
I00
S'\\\x8f\xc2\xf5(\\\xf7?'
tbsS'test_error'
p2794
Fnan
sS'params'
p2795
g237
((lp2796
(lp2797
S'-conv1_depth'
p2798
aS'56.0'
p2799
aa(lp2800
S'-conv2_depth'
p2801
aS'358.0'
p2802
aa(lp2803
S'-fc_depth'
p2804
aS'435.0'
p2805
aa(lp2806
S'-filter_size'
p2807
aS'4.0'
p2808
aatRp2809
sS'result'
p2810
g222
(g224
S'\\\x8f\xc2\xf5(\\\xf7?'
tRp2811
sS'duration'
p2812
g222
(g224
S's\xd7\x12\xf2ACP@'
tRp2813
sS'instance_status'
p2814
g227
(g228
(I0
tS'b'
tRp2815
(I1
(I1
tg223
(S'i8'
I0
I1
tRp2816
(I3
S'<'
NNNI-1
I-1
I0
tbI00
S'\x03\x00\x00\x00\x00\x00\x00\x00'
tbsa(dp2817
S'status'
p2818
I3
sS'std'
p2819
g222
(g224
S'\x00\x00\x00\x00\x00\x00\x00\x00'
tRp2820
sS'instance_durations'
p2821
g227
(g228
(I0
tS'b'
tRp2822
(I1
(I1
tg223
(S'f8'
I0
I1
tRp2823
(I3
S'<'
NNNI-1
I-1
I0
tbI00
S'\xe3\xa5\x9b\xc4 \xf2r@'
tbsS'instance_results'
p2824
g227
(g228
(I0
tS'b'
tRp2825
(I1
(I1
tg2823
I00
S'\xaeG\xe1z\x14nV@'
tbsS'instance_status'
p2826
g227
(g228
(I0
tS'b'
tRp2827
(I1
(I1
tg223
(S'i8'
I0
I1
tRp2828
(I3
S'<'
NNNI-1
I-1
I0
tbI00
S'\x03\x00\x00\x00\x00\x00\x00\x00'
tbsS'params'
p2829
g237
((lp2830
(lp2831
S'-conv1_depth'
p2832
aS'310.0'
p2833
aa(lp2834
S'-conv2_depth'
p2835
aS'512.0'
p2836
aa(lp2837
S'-fc_depth'
p2838
aS'459.0'
p2839
aa(lp2840
S'-filter_size'
p2841
aS'7.0'
p2842
aatRp2843
sS'result'
p2844
g222
(g224
S'\xaeG\xe1z\x14nV@'
tRp2845
sS'duration'
p2846
g222
(g224
S'\xe3\xa5\x9b\xc4 \xf2r@'
tRp2847
sS'test_error'
p2848
Fnan
sa(dp2849
S'status'
p2850
I3
sS'std'
p2851
g222
(g224
S'\x00\x00\x00\x00\x00\x00\x00\x00'
tRp2852
sS'instance_durations'
p2853
g227
(g228
(I0
tS'b'
tRp2854
(I1
(I1
tg223
(S'f8'
I0
I1
tRp2855
(I3
S'<'
NNNI-1
I-1
I0
tbI00
S'\x91\x0fz6\xab\xfeO@'
tbsS'instance_results'
p2856
g227
(g228
(I0
tS'b'
tRp2857
(I1
(I1
tg2855
I00
S'\x14\xaeG\xe1z\x14\xf2?'
tbsS'test_error'
p2858
Fnan
sS'params'
p2859
g237
((lp2860
(lp2861
S'-conv1_depth'
p2862
aS'98.0'
p2863
aa(lp2864
S'-conv2_depth'
p2865
aS'176.0'
p2866
aa(lp2867
S'-fc_depth'
p2868
aS'478.0'
p2869
aa(lp2870
S'-filter_size'
p2871
aS'5.0'
p2872
aatRp2873
sS'result'
p2874
g222
(g224
S'\x14\xaeG\xe1z\x14\xf2?'
tRp2875
sS'duration'
p2876
g222
(g224
S'\x91\x0fz6\xab\xfeO@'
tRp2877
sS'instance_status'
p2878
g227
(g228
(I0
tS'b'
tRp2879
(I1
(I1
tg223
(S'i8'
I0
I1
tRp2880
(I3
S'<'
NNNI-1
I-1
I0
tbI00
S'\x03\x00\x00\x00\x00\x00\x00\x00'
tbsa(dp2881
S'status'
p2882
I3
sS'std'
p2883
g222
(g224
S'\x00\x00\x00\x00\x00\x00\x00\x00'
tRp2884
sS'instance_durations'
p2885
g227
(g228
(I0
tS'b'
tRp2886
(I1
(I1
tg223
(S'f8'
I0
I1
tRp2887
(I3
S'<'
NNNI-1
I-1
I0
tbI00
S'\x86Z\xd3\xbc\xe3\xfcI@'
tbsS'instance_results'
p2888
g227
(g228
(I0
tS'b'
tRp2889
(I1
(I1
tg2887
I00
S'\xc3\xf5(\\\x8f\xc2\xf5?'
tbsS'test_error'
p2890
Fnan
sS'params'
p2891
g237
((lp2892
(lp2893
S'-conv1_depth'
p2894
aS'70.0'
p2895
aa(lp2896
S'-conv2_depth'
p2897
aS'212.0'
p2898
aa(lp2899
S'-fc_depth'
p2900
aS'385.0'
p2901
aa(lp2902
S'-filter_size'
p2903
aS'4.0'
p2904
aatRp2905
sS'result'
p2906
g222
(g224
S'\xc3\xf5(\\\x8f\xc2\xf5?'
tRp2907
sS'duration'
p2908
g222
(g224
S'\x86Z\xd3\xbc\xe3\xfcI@'
tRp2909
sS'instance_status'
p2910
g227
(g228
(I0
tS'b'
tRp2911
(I1
(I1
tg223
(S'i8'
I0
I1
tRp2912
(I3
S'<'
NNNI-1
I-1
I0
tbI00
S'\x03\x00\x00\x00\x00\x00\x00\x00'
tbsa(dp2913
S'status'
p2914
I3
sS'std'
p2915
g222
(g224
S'\x00\x00\x00\x00\x00\x00\x00\x00'
tRp2916
sS'instance_durations'
p2917
g227
(g228
(I0
tS'b'
tRp2918
(I1
(I1
tg223
(S'f8'
I0
I1
tRp2919
(I3
S'<'
NNNI-1
I-1
I0
tbI00
S"R'\xa0\x89\xb0\rQ@"
tbsS'instance_results'
p2920
g227
(g228
(I0
tS'b'
tRp2921
(I1
(I1
tg2919
I00
S'\xecQ\xb8\x1e\x85\xeb\x1c@'
tbsS'test_error'
p2922
Fnan
sS'params'
p2923
g237
((lp2924
(lp2925
S'-conv1_depth'
p2926
aS'244.0'
p2927
aa(lp2928
S'-conv2_depth'
p2929
aS'294.0'
p2930
aa(lp2931
S'-fc_depth'
p2932
aS'407.0'
p2933
aa(lp2934
S'-filter_size'
p2935
aS'1.0'
p2936
aatRp2937
sS'result'
p2938
g222
(g224
S'\xecQ\xb8\x1e\x85\xeb\x1c@'
tRp2939
sS'duration'
p2940
g222
(g224
S"R'\xa0\x89\xb0\rQ@"
tRp2941
sS'instance_status'
p2942
g227
(g228
(I0
tS'b'
tRp2943
(I1
(I1
tg223
(S'i8'
I0
I1
tRp2944
(I3
S'<'
NNNI-1
I-1
I0
tbI00
S'\x03\x00\x00\x00\x00\x00\x00\x00'
tbsa(dp2945
S'status'
p2946
I3
sS'std'
p2947
g222
(g224
S'\x00\x00\x00\x00\x00\x00\x00\x00'
tRp2948
sS'instance_durations'
p2949
g227
(g228
(I0
tS'b'
tRp2950
(I1
(I1
tg223
(S'f8'
I0
I1
tRp2951
(I3
S'<'
NNNI-1
I-1
I0
tbI00
S'}\xae\xb6b\x7f\xc9I@'
tbsS'instance_results'
p2952
g227
(g228
(I0
tS'b'
tRp2953
(I1
(I1
tg2951
I00
S')\\\x8f\xc2\xf5(\xf8?'
tbsS'test_error'
p2954
Fnan
sS'params'
p2955
g237
((lp2956
(lp2957
S'-conv1_depth'
p2958
aS'184.0'
p2959
aa(lp2960
S'-conv2_depth'
p2961
aS'126.0'
p2962
aa(lp2963
S'-fc_depth'
p2964
aS'306.0'
p2965
aa(lp2966
S'-filter_size'
p2967
aS'2.0'
p2968
aatRp2969
sS'result'
p2970
g222
(g224
S')\\\x8f\xc2\xf5(\xf8?'
tRp2971
sS'duration'
p2972
g222
(g224
S'}\xae\xb6b\x7f\xc9I@'
tRp2973
sS'instance_status'
p2974
g227
(g228
(I0
tS'b'
tRp2975
(I1
(I1
tg223
(S'i8'
I0
I1
tRp2976
(I3
S'<'
NNNI-1
I-1
I0
tbI00
S'\x03\x00\x00\x00\x00\x00\x00\x00'
tbsa(dp2977
S'status'
p2978
I3
sS'std'
p2979
g222
(g224
S'\x00\x00\x00\x00\x00\x00\x00\x00'
tRp2980
sS'instance_durations'
p2981
g227
(g228
(I0
tS'b'
tRp2982
(I1
(I1
tg223
(S'f8'
I0
I1
tRp2983
(I3
S'<'
NNNI-1
I-1
I0
tbI00
S'\x1b/\xdd$\x06\x93p@'
tbsS'instance_results'
p2984
g227
(g228
(I0
tS'b'
tRp2985
(I1
(I1
tg2983
I00
S'\xcd\xcc\xcc\xcc\xcc\x8cV@'
tbsS'test_error'
p2986
Fnan
sS'params'
p2987
g237
((lp2988
(lp2989
S'-conv1_depth'
p2990
aS'510.0'
p2991
aa(lp2992
S'-conv2_depth'
p2993
aS'154.0'
p2994
aa(lp2995
S'-fc_depth'
p2996
aS'367.0'
p2997
aa(lp2998
S'-filter_size'
p2999
aS'9.0'
p3000
aatRp3001
sS'result'
p3002
g222
(g224
S'\xcd\xcc\xcc\xcc\xcc\x8cV@'
tRp3003
sS'duration'
p3004
g222
(g224
S'\x1b/\xdd$\x06\x93p@'
tRp3005
sS'instance_status'
p3006
g227
(g228
(I0
tS'b'
tRp3007
(I1
(I1
tg223
(S'i8'
I0
I1
tRp3008
(I3
S'<'
NNNI-1
I-1
I0
tbI00
S'\x03\x00\x00\x00\x00\x00\x00\x00'
tbsa(dp3009
S'status'
p3010
I3
sS'std'
p3011
g222
(g224
S'\x00\x00\x00\x00\x00\x00\x00\x00'
tRp3012
sS'instance_durations'
p3013
g227
(g228
(I0
tS'b'
tRp3014
(I1
(I1
tg223
(S'f8'
I0
I1
tRp3015
(I3
S'<'
NNNI-1
I-1
I0
tbI00
S'C\x1c\xeb\xe26\xcaE@'
tbsS'instance_results'
p3016
g227
(g228
(I0
tS'b'
tRp3017
(I1
(I1
tg3015
I00
S'\xa4p=\n\xd7\xa3\xf4?'
tbsS'test_error'
p3018
Fnan
sS'params'
p3019
g237
((lp3020
(lp3021
S'-conv1_depth'
p3022
aS'170.0'
p3023
aa(lp3024
S'-conv2_depth'
p3025
aS'38.0'
p3026
aa(lp3027
S'-fc_depth'
p3028
aS'498.0'
p3029
aa(lp3030
S'-filter_size'
p3031
aS'3.0'
p3032
aatRp3033
sS'result'
p3034
g222
(g224
S'\xa4p=\n\xd7\xa3\xf4?'
tRp3035
sS'duration'
p3036
g222
(g224
S'C\x1c\xeb\xe26\xcaE@'
tRp3037
sS'instance_status'
p3038
g227
(g228
(I0
tS'b'
tRp3039
(I1
(I1
tg223
(S'i8'
I0
I1
tRp3040
(I3
S'<'
NNNI-1
I-1
I0
tbI00
S'\x03\x00\x00\x00\x00\x00\x00\x00'
tbsa(dp3041
S'status'
p3042
I3
sS'std'
p3043
g222
(g224
S'\x00\x00\x00\x00\x00\x00\x00\x00'
tRp3044
sS'instance_durations'
p3045
g227
(g228
(I0
tS'b'
tRp3046
(I1
(I1
tg223
(S'f8'
I0
I1
tRp3047
(I3
S'<'
NNNI-1
I-1
I0
tbI00
S'}?5^\xba\xe5d@'
tbsS'instance_results'
p3048
g227
(g228
(I0
tS'b'
tRp3049
(I1
(I1
tg3047
I00
S'=\n\xd7\xa3p=\xfa?'
tbsS'test_error'
p3050
Fnan
sS'params'
p3051
g237
((lp3052
(lp3053
S'-conv1_depth'
p3054
aS'212.0'
p3055
aa(lp3056
S'-conv2_depth'
p3057
aS'312.0'
p3058
aa(lp3059
S'-fc_depth'
p3060
aS'445.0'
p3061
aa(lp3062
S'-filter_size'
p3063
aS'6.0'
p3064
aatRp3065
sS'result'
p3066
g222
(g224
S'=\n\xd7\xa3p=\xfa?'
tRp3067
sS'duration'
p3068
g222
(g224
S'}?5^\xba\xe5d@'
tRp3069
sS'instance_status'
p3070
g227
(g228
(I0
tS'b'
tRp3071
(I1
(I1
tg223
(S'i8'
I0
I1
tRp3072
(I3
S'<'
NNNI-1
I-1
I0
tbI00
S'\x03\x00\x00\x00\x00\x00\x00\x00'
tbsa(dp3073
S'status'
p3074
I3
sS'std'
p3075
g222
(g224
S'\x00\x00\x00\x00\x00\x00\x00\x00'
tRp3076
sS'instance_durations'
p3077
g227
(g228
(I0
tS'b'
tRp3078
(I1
(I1
tg223
(S'f8'
I0
I1
tRp3079
(I3
S'<'
NNNI-1
I-1
I0
tbI00
S'\xe8\xd9\xac\xfa\\\x19R@'
tbsS'instance_results'
p3080
g227
(g228
(I0
tS'b'
tRp3081
(I1
(I1
tg3079
I00
S'\x8f\xc2\xf5(\\\x8f\xf2?'
tbsS'test_error'
p3082
Fnan
sS'params'
p3083
g237
((lp3084
(lp3085
S'-conv1_depth'
p3086
aS'146.0'
p3087
aa(lp3088
S'-conv2_depth'
p3089
aS'136.0'
p3090
aa(lp3091
S'-fc_depth'
p3092
aS'420.0'
p3093
aa(lp3094
S'-filter_size'
p3095
aS'5.0'
p3096
aatRp3097
sS'result'
p3098
g222
(g224
S'\x8f\xc2\xf5(\\\x8f\xf2?'
tRp3099
sS'duration'
p3100
g222
(g224
S'\xe8\xd9\xac\xfa\\\x19R@'
tRp3101
sS'instance_status'
p3102
g227
(g228
(I0
tS'b'
tRp3103
(I1
(I1
tg223
(S'i8'
I0
I1
tRp3104
(I3
S'<'
NNNI-1
I-1
I0
tbI00
S'\x03\x00\x00\x00\x00\x00\x00\x00'
tbsa(dp3105
S'status'
p3106
I3
sS'std'
p3107
g222
(g224
S'\x00\x00\x00\x00\x00\x00\x00\x00'
tRp3108
sS'instance_durations'
p3109
g227
(g228
(I0
tS'b'
tRp3110
(I1
(I1
tg223
(S'f8'
I0
I1
tRp3111
(I3
S'<'
NNNI-1
I-1
I0
tbI00
S"TR'\xa0\x89hQ@"
tbsS'instance_results'
p3112
g227
(g228
(I0
tS'b'
tRp3113
(I1
(I1
tg3111
I00
S'\xaeG\xe1z\x14nV@'
tbsS'test_error'
p3114
Fnan
sS'params'
p3115
g237
((lp3116
(lp3117
S'-conv1_depth'
p3118
aS'198.0'
p3119
aa(lp3120
S'-conv2_depth'
p3121
aS'80.0'
p3122
aa(lp3123
S'-fc_depth'
p3124
aS'471.0'
p3125
aa(lp3126
S'-filter_size'
p3127
aS'7.0'
p3128
aatRp3129
sS'result'
p3130
g222
(g224
S'\xaeG\xe1z\x14nV@'
tRp3131
sS'duration'
p3132
g222
(g224
S"TR'\xa0\x89hQ@"
tRp3133
sS'instance_status'
p3134
g227
(g228
(I0
tS'b'
tRp3135
(I1
(I1
tg223
(S'i8'
I0
I1
tRp3136
(I3
S'<'
NNNI-1
I-1
I0
tbI00
S'\x03\x00\x00\x00\x00\x00\x00\x00'
tbsa(dp3137
S'status'
p3138
I3
sS'std'
p3139
g222
(g224
S'\x00\x00\x00\x00\x00\x00\x00\x00'
tRp3140
sS'instance_durations'
p3141
g227
(g228
(I0
tS'b'
tRp3142
(I1
(I1
tg223
(S'f8'
I0
I1
tRp3143
(I3
S'<'
NNNI-1
I-1
I0
tbI00
S'\xc5\xfe\xb2{\xf28C@'
tbsS'instance_results'
p3144
g227
(g228
(I0
tS'b'
tRp3145
(I1
(I1
tg3143
I00
S'\xaeG\xe1z\x14\xae\xf3?'
tbsS'instance_status'
p3146
g227
(g228
(I0
tS'b'
tRp3147
(I1
(I1
tg223
(S'i8'
I0
I1
tRp3148
(I3
S'<'
NNNI-1
I-1
I0
tbI00
S'\x03\x00\x00\x00\x00\x00\x00\x00'
tbsS'params'
p3149
g237
((lp3150
(lp3151
S'-conv1_depth'
p3152
aS'30.0'
p3153
aa(lp3154
S'-conv2_depth'
p3155
aS'236.0'
p3156
aa(lp3157
S'-fc_depth'
p3158
aS'352.0'
p3159
aa(lp3160
S'-filter_size'
p3161
aS'4.0'
p3162
aatRp3163
sS'result'
p3164
g222
(g224
S'\xaeG\xe1z\x14\xae\xf3?'
tRp3165
sS'duration'
p3166
g222
(g224
S'\xc5\xfe\xb2{\xf28C@'
tRp3167
sS'test_error'
p3168
Fnan
sa(dp3169
S'status'
p3170
I3
sS'std'
p3171
g222
(g224
S'\x00\x00\x00\x00\x00\x00\x00\x00'
tRp3172
sS'instance_durations'
p3173
g227
(g228
(I0
tS'b'
tRp3174
(I1
(I1
tg223
(S'f8'
I0
I1
tRp3175
(I3
S'<'
NNNI-1
I-1
I0
tbI00
S'\xe3\xa5\x9b\xc4 Dk@'
tbsS'instance_results'
p3176
g227
(g228
(I0
tS'b'
tRp3177
(I1
(I1
tg3175
I00
S'\xaeG\xe1z\x14nV@'
tbsS'instance_status'
p3178
g227
(g228
(I0
tS'b'
tRp3179
(I1
(I1
tg223
(S'i8'
I0
I1
tRp3180
(I3
S'<'
NNNI-1
I-1
I0
tbI00
S'\x03\x00\x00\x00\x00\x00\x00\x00'
tbsS'params'
p3181
g237
((lp3182
(lp3183
S'-conv1_depth'
p3184
aS'380.0'
p3185
aa(lp3186
S'-conv2_depth'
p3187
aS'204.0'
p3188
aa(lp3189
S'-fc_depth'
p3190
aS'400.0'
p3191
aa(lp3192
S'-filter_size'
p3193
aS'10.0'
p3194
aatRp3195
sS'result'
p3196
g222
(g224
S'\xaeG\xe1z\x14nV@'
tRp3197
sS'duration'
p3198
g222
(g224
S'\xe3\xa5\x9b\xc4 Dk@'
tRp3199
sS'test_error'
p3200
Fnan
sa(dp3201
S'status'
p3202
I3
sS'std'
p3203
g222
(g224
S'\x00\x00\x00\x00\x00\x00\x00\x00'
tRp3204
sS'instance_durations'
p3205
g227
(g228
(I0
tS'b'
tRp3206
(I1
(I1
tg223
(S'f8'
I0
I1
tRp3207
(I3
S'<'
NNNI-1
I-1
I0
tbI00
S'\x0eO\xaf\x94e\xd8U@'
tbsS'instance_results'
p3208
g227
(g228
(I0
tS'b'
tRp3209
(I1
(I1
tg3207
I00
S'\xaeG\xe1z\x14nV@'
tbsS'test_error'
p3210
Fnan
sS'params'
p3211
g237
((lp3212
(lp3213
S'-conv1_depth'
p3214
aS'344.0'
p3215
aa(lp3216
S'-conv2_depth'
p3217
aS'2.0'
p3218
aa(lp3219
S'-fc_depth'
p3220
aS'432.0'
p3221
aa(lp3222
S'-filter_size'
p3223
aS'12.0'
p3224
aatRp3225
sS'result'
p3226
g222
(g224
S'\xaeG\xe1z\x14nV@'
tRp3227
sS'duration'
p3228
g222
(g224
S'\x0eO\xaf\x94e\xd8U@'
tRp3229
sS'instance_status'
p3230
g227
(g228
(I0
tS'b'
tRp3231
(I1
(I1
tg223
(S'i8'
I0
I1
tRp3232
(I3
S'<'
NNNI-1
I-1
I0
tbI00
S'\x03\x00\x00\x00\x00\x00\x00\x00'
tbsa(dp3233
S'status'
p3234
I3
sS'std'
p3235
g222
(g224
S'\x00\x00\x00\x00\x00\x00\x00\x00'
tRp3236
sS'instance_durations'
p3237
g227
(g228
(I0
tS'b'
tRp3238
(I1
(I1
tg223
(S'f8'
I0
I1
tRp3239
(I3
S'<'
NNNI-1
I-1
I0
tbI00
S'\xc7K7\x89A\xa2p@'
tbsS'instance_results'
p3240
g227
(g228
(I0
tS'b'
tRp3241
(I1
(I1
tg3239
I00
S'\xaeG\xe1z\x14nV@'
tbsS'test_error'
p3242
Fnan
sS'params'
p3243
g237
((lp3244
(lp3245
S'-conv1_depth'
p3246
aS'270.0'
p3247
aa(lp3248
S'-conv2_depth'
p3249
aS'452.0'
p3250
aa(lp3251
S'-fc_depth'
p3252
aS'454.0'
p3253
aa(lp3254
S'-filter_size'
p3255
aS'6.0'
p3256
aatRp3257
sS'result'
p3258
g222
(g224
S'\xaeG\xe1z\x14nV@'
tRp3259
sS'duration'
p3260
g222
(g224
S'\xc7K7\x89A\xa2p@'
tRp3261
sS'instance_status'
p3262
g227
(g228
(I0
tS'b'
tRp3263
(I1
(I1
tg223
(S'i8'
I0
I1
tRp3264
(I3
S'<'
NNNI-1
I-1
I0
tbI00
S'\x03\x00\x00\x00\x00\x00\x00\x00'
tbsa(dp3265
S'status'
p3266
I3
sS'std'
p3267
g222
(g224
S'\x00\x00\x00\x00\x00\x00\x00\x00'
tRp3268
sS'instance_durations'
p3269
g227
(g228
(I0
tS'b'
tRp3270
(I1
(I1
tg223
(S'f8'
I0
I1
tRp3271
(I3
S'<'
NNNI-1
I-1
I0
tbI00
S'\xebs\xb5\x15\xfb;U@'
tbsS'instance_results'
p3272
g227
(g228
(I0
tS'b'
tRp3273
(I1
(I1
tg3271
I00
S'ffffff\xfa?'
tbsS'test_error'
p3274
Fnan
sS'params'
p3275
g237
((lp3276
(lp3277
S'-conv1_depth'
p3278
aS'138.0'
p3279
aa(lp3280
S'-conv2_depth'
p3281
aS'178.0'
p3282
aa(lp3283
S'-fc_depth'
p3284
aS'374.0'
p3285
aa(lp3286
S'-filter_size'
p3287
aS'8.0'
p3288
aatRp3289
sS'result'
p3290
g222
(g224
S'ffffff\xfa?'
tRp3291
sS'duration'
p3292
g222
(g224
S'\xebs\xb5\x15\xfb;U@'
tRp3293
sS'instance_status'
p3294
g227
(g228
(I0
tS'b'
tRp3295
(I1
(I1
tg223
(S'i8'
I0
I1
tRp3296
(I3
S'<'
NNNI-1
I-1
I0
tbI00
S'\x03\x00\x00\x00\x00\x00\x00\x00'
tbsa(dp3297
S'status'
p3298
I3
sS'std'
p3299
g222
(g224
S'\x00\x00\x00\x00\x00\x00\x00\x00'
tRp3300
sS'instance_durations'
p3301
g227
(g228
(I0
tS'b'
tRp3302
(I1
(I1
tg223
(S'f8'
I0
I1
tRp3303
(I3
S'<'
NNNI-1
I-1
I0
tbI00
S'H\xe1z\x14\xae\x87=@'
tbsS'instance_results'
p3304
g227
(g228
(I0
tS'b'
tRp3305
(I1
(I1
tg3303
I00
S'333333\xf7?'
tbsS'test_error'
p3306
Fnan
sS'params'
p3307
g237
((lp3308
(lp3309
S'-conv1_depth'
p3310
aS'4.0'
p3311
aa(lp3312
S'-conv2_depth'
p3313
aS'258.0'
p3314
aa(lp3315
S'-fc_depth'
p3316
aS'239.0'
p3317
aa(lp3318
S'-filter_size'
p3319
aS'5.0'
p3320
aatRp3321
sS'result'
p3322
g222
(g224
S'333333\xf7?'
tRp3323
sS'duration'
p3324
g222
(g224
S'H\xe1z\x14\xae\x87=@'
tRp3325
sS'instance_status'
p3326
g227
(g228
(I0
tS'b'
tRp3327
(I1
(I1
tg223
(S'i8'
I0
I1
tRp3328
(I3
S'<'
NNNI-1
I-1
I0
tbI00
S'\x03\x00\x00\x00\x00\x00\x00\x00'
tbsa(dp3329
S'status'
p3330
I3
sS'std'
p3331
g222
(g224
S'\x00\x00\x00\x00\x00\x00\x00\x00'
tRp3332
sS'instance_durations'
p3333
g227
(g228
(I0
tS'b'
tRp3334
(I1
(I1
tg223
(S'f8'
I0
I1
tRp3335
(I3
S'<'
NNNI-1
I-1
I0
tbI00
S'Z\xf5\xb9\xda\x8a\xddB@'
tbsS'instance_results'
p3336
g227
(g228
(I0
tS'b'
tRp3337
(I1
(I1
tg3335
I00
S'\\\x8f\xc2\xf5(\\\xf3?'
tbsS'instance_status'
p3338
g227
(g228
(I0
tS'b'
tRp3339
(I1
(I1
tg223
(S'i8'
I0
I1
tRp3340
(I3
S'<'
NNNI-1
I-1
I0
tbI00
S'\x03\x00\x00\x00\x00\x00\x00\x00'
tbsS'params'
p3341
g237
((lp3342
(lp3343
S'-conv1_depth'
p3344
aS'104.0'
p3345
aa(lp3346
S'-conv2_depth'
p3347
aS'102.0'
p3348
aa(lp3349
S'-fc_depth'
p3350
aS'326.0'
p3351
aa(lp3352
S'-filter_size'
p3353
aS'3.0'
p3354
aatRp3355
sS'result'
p3356
g222
(g224
S'\\\x8f\xc2\xf5(\\\xf3?'
tRp3357
sS'duration'
p3358
g222
(g224
S'Z\xf5\xb9\xda\x8a\xddB@'
tRp3359
sS'test_error'
p3360
Fnan
sa(dp3361
S'status'
p3362
I3
sS'std'
p3363
g222
(g224
S'\x00\x00\x00\x00\x00\x00\x00\x00'
tRp3364
sS'instance_durations'
p3365
g227
(g228
(I0
tS'b'
tRp3366
(I1
(I1
tg223
(S'f8'
I0
I1
tRp3367
(I3
S'<'
NNNI-1
I-1
I0
tbI00
S'vO\x1e\x16j%U@'
tbsS'instance_results'
p3368
g227
(g228
(I0
tS'b'
tRp3369
(I1
(I1
tg3367
I00
S'\x1f\x85\xebQ\xb8\x1e\xf5?'
tbsS'test_error'
p3370
Fnan
sS'params'
p3371
g237
((lp3372
(lp3373
S'-conv1_depth'
p3374
aS'122.0'
p3375
aa(lp3376
S'-conv2_depth'
p3377
aS'220.0'
p3378
aa(lp3379
S'-fc_depth'
p3380
aS'299.0'
p3381
aa(lp3382
S'-filter_size'
p3383
aS'7.0'
p3384
aatRp3385
sS'result'
p3386
g222
(g224
S'\x1f\x85\xebQ\xb8\x1e\xf5?'
tRp3387
sS'duration'
p3388
g222
(g224
S'vO\x1e\x16j%U@'
tRp3389
sS'instance_status'
p3390
g227
(g228
(I0
tS'b'
tRp3391
(I1
(I1
tg223
(S'i8'
I0
I1
tRp3392
(I3
S'<'
NNNI-1
I-1
I0
tbI00
S'\x03\x00\x00\x00\x00\x00\x00\x00'
tbsa(dp3393
S'status'
p3394
I3
sS'std'
p3395
g222
(g224
S'\x00\x00\x00\x00\x00\x00\x00\x00'
tRp3396
sS'instance_durations'
p3397
g227
(g228
(I0
tS'b'
tRp3398
(I1
(I1
tg223
(S'f8'
I0
I1
tRp3399
(I3
S'<'
NNNI-1
I-1
I0
tbI00
S'\x00o\x81\x04\xc5\xaf7@'
tbsS'instance_results'
p3400
g227
(g228
(I0
tS'b'
tRp3401
(I1
(I1
tg3399
I00
S'\x9a\x99\x99\x99\x99\x99\xfd?'
tbsS'instance_status'
p3402
g227
(g228
(I0
tS'b'
tRp3403
(I1
(I1
tg223
(S'i8'
I0
I1
tRp3404
(I3
S'<'
NNNI-1
I-1
I0
tbI00
S'\x03\x00\x00\x00\x00\x00\x00\x00'
tbsS'params'
p3405
g237
((lp3406
(lp3407
S'-conv1_depth'
p3408
aS'52.0'
p3409
aa(lp3410
S'-conv2_depth'
p3411
aS'14.0'
p3412
aa(lp3413
S'-fc_depth'
p3414
aS'348.0'
p3415
aa(lp3416
S'-filter_size'
p3417
aS'8.0'
p3418
aatRp3419
sS'result'
p3420
g222
(g224
S'\x9a\x99\x99\x99\x99\x99\xfd?'
tRp3421
sS'duration'
p3422
g222
(g224
S'\x00o\x81\x04\xc5\xaf7@'
tRp3423
sS'test_error'
p3424
Fnan
sa(dp3425
S'status'
p3426
I3
sS'std'
p3427
g222
(g224
S'\x00\x00\x00\x00\x00\x00\x00\x00'
tRp3428
sS'instance_durations'
p3429
g227
(g228
(I0
tS'b'
tRp3430
(I1
(I1
tg223
(S'f8'
I0
I1
tRp3431
(I3
S'<'
NNNI-1
I-1
I0
tbI00
S'Nb\x10X9\x14`@'
tbsS'instance_results'
p3432
g227
(g228
(I0
tS'b'
tRp3433
(I1
(I1
tg3431
I00
S'\\\x8f\xc2\xf5(\\\xf7?'
tbsS'test_error'
p3434
Fnan
sS'params'
p3435
g237
((lp3436
(lp3437
S'-conv1_depth'
p3438
aS'302.0'
p3439
aa(lp3440
S'-conv2_depth'
p3441
aS'166.0'
p3442
aa(lp3443
S'-fc_depth'
p3444
aS'282.0'
p3445
aa(lp3446
S'-filter_size'
p3447
aS'5.0'
p3448
aatRp3449
sS'result'
p3450
g222
(g224
S'\\\x8f\xc2\xf5(\\\xf7?'
tRp3451
sS'duration'
p3452
g222
(g224
S'Nb\x10X9\x14`@'
tRp3453
sS'instance_status'
p3454
g227
(g228
(I0
tS'b'
tRp3455
(I1
(I1
tg223
(S'i8'
I0
I1
tRp3456
(I3
S'<'
NNNI-1
I-1
I0
tbI00
S'\x03\x00\x00\x00\x00\x00\x00\x00'
tbsa(dp3457
S'status'
p3458
I3
sS'std'
p3459
g222
(g224
S'\x00\x00\x00\x00\x00\x00\x00\x00'
tRp3460
sS'instance_durations'
p3461
g227
(g228
(I0
tS'b'
tRp3462
(I1
(I1
tg223
(S'f8'
I0
I1
tRp3463
(I3
S'<'
NNNI-1
I-1
I0
tbI00
S'\x87\x16\xd9\xce\xf7\xa39@'
tbsS'instance_results'
p3464
g227
(g228
(I0
tS'b'
tRp3465
(I1
(I1
tg3463
I00
S'\xaeG\xe1z\x14\xae\x1c@'
tbsS'instance_status'
p3466
g227
(g228
(I0
tS'b'
tRp3467
(I1
(I1
tg223
(S'i8'
I0
I1
tRp3468
(I3
S'<'
NNNI-1
I-1
I0
tbI00
S'\x03\x00\x00\x00\x00\x00\x00\x00'
tbsS'params'
p3469
g237
((lp3470
(lp3471
S'-conv1_depth'
p3472
aS'12.0'
p3473
aa(lp3474
S'-conv2_depth'
p3475
aS'148.0'
p3476
aa(lp3477
S'-fc_depth'
p3478
aS'492.0'
p3479
aa(lp3480
S'-filter_size'
p3481
aS'1.0'
p3482
aatRp3483
sS'result'
p3484
g222
(g224
S'\xaeG\xe1z\x14\xae\x1c@'
tRp3485
sS'duration'
p3486
g222
(g224
S'\x87\x16\xd9\xce\xf7\xa39@'
tRp3487
sS'test_error'
p3488
Fnan
sa(dp3489
S'status'
p3490
I3
sS'std'
p3491
g222
(g224
S'\x00\x00\x00\x00\x00\x00\x00\x00'
tRp3492
sS'instance_durations'
p3493
g227
(g228
(I0
tS'b'
tRp3494
(I1
(I1
tg223
(S'f8'
I0
I1
tRp3495
(I3
S'<'
NNNI-1
I-1
I0
tbI00
S'\x12\x83\xc0\xca\xa1\xa5^@'
tbsS'instance_results'
p3496
g227
(g228
(I0
tS'b'
tRp3497
(I1
(I1
tg3495
I00
S'\xaeG\xe1z\x14\xae\x07@'
tbsS'test_error'
p3498
Fnan
sS'params'
p3499
g237
((lp3500
(lp3501
S'-conv1_depth'
p3502
aS'224.0'
p3503
aa(lp3504
S'-conv2_depth'
p3505
aS'198.0'
p3506
aa(lp3507
S'-fc_depth'
p3508
aS'412.0'
p3509
aa(lp3510
S'-filter_size'
p3511
aS'9.0'
p3512
aatRp3513
sS'result'
p3514
g222
(g224
S'\xaeG\xe1z\x14\xae\x07@'
tRp3515
sS'duration'
p3516
g222
(g224
S'\x12\x83\xc0\xca\xa1\xa5^@'
tRp3517
sS'instance_status'
p3518
g227
(g228
(I0
tS'b'
tRp3519
(I1
(I1
tg223
(S'i8'
I0
I1
tRp3520
(I3
S'<'
NNNI-1
I-1
I0
tbI00
S'\x03\x00\x00\x00\x00\x00\x00\x00'
tbsa(dp3521
S'status'
p3522
I3
sS'std'
p3523
g222
(g224
S'\x00\x00\x00\x00\x00\x00\x00\x00'
tRp3524
sS'instance_durations'
p3525
g227
(g228
(I0
tS'b'
tRp3526
(I1
(I1
tg223
(S'f8'
I0
I1
tRp3527
(I3
S'<'
NNNI-1
I-1
I0
tbI00
S'\xcb\x10\xc7\xba\xb8\xfdQ@'
tbsS'instance_results'
p3528
g227
(g228
(I0
tS'b'
tRp3529
(I1
(I1
tg3527
I00
S'\xecQ\xb8\x1e\x85\xeb\xfd?'
tbsS'instance_status'
p3530
g227
(g228
(I0
tS'b'
tRp3531
(I1
(I1
tg223
(S'i8'
I0
I1
tRp3532
(I3
S'<'
NNNI-1
I-1
I0
tbI00
S'\x03\x00\x00\x00\x00\x00\x00\x00'
tbsS'params'
p3533
g237
((lp3534
(lp3535
S'-conv1_depth'
p3536
aS'184.0'
p3537
aa(lp3538
S'-conv2_depth'
p3539
aS'94.0'
p3540
aa(lp3541
S'-fc_depth'
p3542
aS'394.0'
p3543
aa(lp3544
S'-filter_size'
p3545
aS'6.0'
p3546
aatRp3547
sS'result'
p3548
g222
(g224
S'\xecQ\xb8\x1e\x85\xeb\xfd?'
tRp3549
sS'duration'
p3550
g222
(g224
S'\xcb\x10\xc7\xba\xb8\xfdQ@'
tRp3551
sS'test_error'
p3552
Fnan
sa(dp3553
S'status'
p3554
I3
sS'std'
p3555
g222
(g224
S'\x00\x00\x00\x00\x00\x00\x00\x00'
tRp3556
sS'instance_durations'
p3557
g227
(g228
(I0
tS'b'
tRp3558
(I1
(I1
tg223
(S'f8'
I0
I1
tRp3559
(I3
S'<'
NNNI-1
I-1
I0
tbI00
S'\xbdR\x96!\x8e5>@'
tbsS'instance_results'
p3560
g227
(g228
(I0
tS'b'
tRp3561
(I1
(I1
tg3559
I00
S'\x1f\x85\xebQ\xb8\x1e\xfd?'
tbsS'instance_status'
p3562
g227
(g228
(I0
tS'b'
tRp3563
(I1
(I1
tg223
(S'i8'
I0
I1
tRp3564
(I3
S'<'
NNNI-1
I-1
I0
tbI00
S'\x03\x00\x00\x00\x00\x00\x00\x00'
tbsS'params'
p3565
g237
((lp3566
(lp3567
S'-conv1_depth'
p3568
aS'92.0'
p3569
aa(lp3570
S'-conv2_depth'
p3571
aS'56.0'
p3572
aa(lp3573
S'-fc_depth'
p3574
aS'316.0'
p3575
aa(lp3576
S'-filter_size'
p3577
aS'2.0'
p3578
aatRp3579
sS'result'
p3580
g222
(g224
S'\x1f\x85\xebQ\xb8\x1e\xfd?'
tRp3581
sS'duration'
p3582
g222
(g224
S'\xbdR\x96!\x8e5>@'
tRp3583
sS'test_error'
p3584
Fnan
sa(dp3585
S'status'
p3586
I3
sS'std'
p3587
g222
(g224
S'\x00\x00\x00\x00\x00\x00\x00\x00'
tRp3588
sS'instance_durations'
p3589
g227
(g228
(I0
tS'b'
tRp3590
(I1
(I1
tg223
(S'f8'
I0
I1
tRp3591
(I3
S'<'
NNNI-1
I-1
I0
tbI00
S'\xfe\xd4x\xe9&\xe9Z@'
tbsS'instance_results'
p3592
g227
(g228
(I0
tS'b'
tRp3593
(I1
(I1
tg3591
I00
S'\xcd\xcc\xcc\xcc\xcc\xcc\x08@'
tbsS'test_error'
p3594
Fnan
sS'params'
p3595
g237
((lp3596
(lp3597
S'-conv1_depth'
p3598
aS'254.0'
p3599
aa(lp3600
S'-conv2_depth'
p3601
aS'128.0'
p3602
aa(lp3603
S'-fc_depth'
p3604
aS'265.0'
p3605
aa(lp3606
S'-filter_size'
p3607
aS'11.0'
p3608
aatRp3609
sS'result'
p3610
g222
(g224
S'\xcd\xcc\xcc\xcc\xcc\xcc\x08@'
tRp3611
sS'duration'
p3612
g222
(g224
S'\xfe\xd4x\xe9&\xe9Z@'
tRp3613
sS'instance_status'
p3614
g227
(g228
(I0
tS'b'
tRp3615
(I1
(I1
tg223
(S'i8'
I0
I1
tRp3616
(I3
S'<'
NNNI-1
I-1
I0
tbI00
S'\x03\x00\x00\x00\x00\x00\x00\x00'
tbsa(dp3617
S'status'
p3618
I3
sS'std'
p3619
g222
(g224
S'\x00\x00\x00\x00\x00\x00\x00\x00'
tRp3620
sS'instance_durations'
p3621
g227
(g228
(I0
tS'b'
tRp3622
(I1
(I1
tg223
(S'f8'
I0
I1
tRp3623
(I3
S'<'
NNNI-1
I-1
I0
tbI00
S'H\xbf}\x1d8\xf3Q@'
tbsS'instance_results'
p3624
g227
(g228
(I0
tS'b'
tRp3625
(I1
(I1
tg3623
I00
S'\xd7\xa3p=\n\xd7\xf3?'
tbsS'instance_status'
p3626
g227
(g228
(I0
tS'b'
tRp3627
(I1
(I1
tg223
(S'i8'
I0
I1
tRp3628
(I3
S'<'
NNNI-1
I-1
I0
tbI00
S'\x03\x00\x00\x00\x00\x00\x00\x00'
tbsS'params'
p3629
g237
((lp3630
(lp3631
S'-conv1_depth'
p3632
aS'160.0'
p3633
aa(lp3634
S'-conv2_depth'
p3635
aS'188.0'
p3636
aa(lp3637
S'-fc_depth'
p3638
aS'338.0'
p3639
aa(lp3640
S'-filter_size'
p3641
aS'4.0'
p3642
aatRp3643
sS'result'
p3644
g222
(g224
S'\xd7\xa3p=\n\xd7\xf3?'
tRp3645
sS'duration'
p3646
g222
(g224
S'H\xbf}\x1d8\xf3Q@'
tRp3647
sS'test_error'
p3648
Fnan
sa(dp3649
S'status'
p3650
I3
sS'std'
p3651
g222
(g224
S'\x00\x00\x00\x00\x00\x00\x00\x00'
tRp3652
sS'instance_durations'
p3653
g227
(g228
(I0
tS'b'
tRp3654
(I1
(I1
tg223
(S'f8'
I0
I1
tRp3655
(I3
S'<'
NNNI-1
I-1
I0
tbI00
S'\xc7K7\x89A\x00=@'
tbsS'instance_results'
p3656
g227
(g228
(I0
tS'b'
tRp3657
(I1
(I1
tg3655
I00
S'\xe1z\x14\xaeG\xe1\xf6?'
tbsS'test_error'
p3658
Fnan
sS'params'
p3659
g237
((lp3660
(lp3661
S'-conv1_depth'
p3662
aS'68.0'
p3663
aa(lp3664
S'-conv2_depth'
p3665
aS'44.0'
p3666
aa(lp3667
S'-fc_depth'
p3668
aS'364.0'
p3669
aa(lp3670
S'-filter_size'
p3671
aS'4.0'
p3672
aatRp3673
sS'result'
p3674
g222
(g224
S'\xe1z\x14\xaeG\xe1\xf6?'
tRp3675
sS'duration'
p3676
g222
(g224
S'\xc7K7\x89A\x00=@'
tRp3677
sS'instance_status'
p3678
g227
(g228
(I0
tS'b'
tRp3679
(I1
(I1
tg223
(S'i8'
I0
I1
tRp3680
(I3
S'<'
NNNI-1
I-1
I0
tbI00
S'\x03\x00\x00\x00\x00\x00\x00\x00'
tbsa(dp3681
S'status'
p3682
I3
sS'std'
p3683
g222
(g224
S'\x00\x00\x00\x00\x00\x00\x00\x00'
tRp3684
sS'instance_durations'
p3685
g227
(g228
(I0
tS'b'
tRp3686
(I1
(I1
tg223
(S'f8'
I0
I1
tRp3687
(I3
S'<'
NNNI-1
I-1
I0
tbI00
S'\xf2\xb0Pk\x9a\x8fL@'
tbsS'instance_results'
p3688
g227
(g228
(I0
tS'b'
tRp3689
(I1
(I1
tg3687
I00
S'\xaeG\xe1z\x14\xae\x07@'
tbsS'test_error'
p3690
Fnan
sS'params'
p3691
g237
((lp3692
(lp3693
S'-conv1_depth'
p3694
aS'110.0'
p3695
aa(lp3696
S'-conv2_depth'
p3697
aS'114.0'
p3698
aa(lp3699
S'-fc_depth'
p3700
aS'510.0'
p3701
aa(lp3702
S'-filter_size'
p3703
aS'7.0'
p3704
aatRp3705
sS'result'
p3706
g222
(g224
S'\xaeG\xe1z\x14\xae\x07@'
tRp3707
sS'duration'
p3708
g222
(g224
S'\xf2\xb0Pk\x9a\x8fL@'
tRp3709
sS'instance_status'
p3710
g227
(g228
(I0
tS'b'
tRp3711
(I1
(I1
tg223
(S'i8'
I0
I1
tRp3712
(I3
S'<'
NNNI-1
I-1
I0
tbI00
S'\x03\x00\x00\x00\x00\x00\x00\x00'
tbsa(dp3713
S'status'
p3714
I3
sS'std'
p3715
g222
(g224
S'\x00\x00\x00\x00\x00\x00\x00\x00'
tRp3716
sS'instance_durations'
p3717
g227
(g228
(I0
tS'b'
tRp3718
(I1
(I1
tg223
(S'f8'
I0
I1
tRp3719
(I3
S'<'
NNNI-1
I-1
I0
tbI00
S'n4\x80\xb7@\x8aR@'
tbsS'instance_results'
p3720
g227
(g228
(I0
tS'b'
tRp3721
(I1
(I1
tg3719
I00
S'\xcd\xcc\xcc\xcc\xcc\xcc\xf4?'
tbsS'instance_status'
p3722
g227
(g228
(I0
tS'b'
tRp3723
(I1
(I1
tg223
(S'i8'
I0
I1
tRp3724
(I3
S'<'
NNNI-1
I-1
I0
tbI00
S'\x03\x00\x00\x00\x00\x00\x00\x00'
tbsS'params'
p3725
g237
((lp3726
(lp3727
S'-conv1_depth'
p3728
aS'206.0'
p3729
aa(lp3730
S'-conv2_depth'
p3731
aS'240.0'
p3732
aa(lp3733
S'-fc_depth'
p3734
aS'378.0'
p3735
aa(lp3736
S'-filter_size'
p3737
aS'3.0'
p3738
aatRp3739
sS'result'
p3740
g222
(g224
S'\xcd\xcc\xcc\xcc\xcc\xcc\xf4?'
tRp3741
sS'duration'
p3742
g222
(g224
S'n4\x80\xb7@\x8aR@'
tRp3743
sS'test_error'
p3744
Fnan
sa(dp3745
S'status'
p3746
I3
sS'std'
p3747
g222
(g224
S'\x00\x00\x00\x00\x00\x00\x00\x00'
tRp3748
sS'instance_durations'
p3749
g227
(g228
(I0
tS'b'
tRp3750
(I1
(I1
tg223
(S'f8'
I0
I1
tRp3751
(I3
S'<'
NNNI-1
I-1
I0
tbI00
S'8\xf8\xc2d\xaa\\X@'
tbsS'instance_results'
p3752
g227
(g228
(I0
tS'b'
tRp3753
(I1
(I1
tg3751
I00
S'\xaeG\xe1z\x14nV@'
tbsS'test_error'
p3754
Fnan
sS'params'
p3755
g237
((lp3756
(lp3757
S'-conv1_depth'
p3758
aS'320.0'
p3759
aa(lp3760
S'-conv2_depth'
p3761
aS'76.0'
p3762
aa(lp3763
S'-fc_depth'
p3764
aS'446.0'
p3765
aa(lp3766
S'-filter_size'
p3767
aS'8.0'
p3768
aatRp3769
sS'result'
p3770
g222
(g224
S'\xaeG\xe1z\x14nV@'
tRp3771
sS'duration'
p3772
g222
(g224
S'8\xf8\xc2d\xaa\\X@'
tRp3773
sS'instance_status'
p3774
g227
(g228
(I0
tS'b'
tRp3775
(I1
(I1
tg223
(S'i8'
I0
I1
tRp3776
(I3
S'<'
NNNI-1
I-1
I0
tbI00
S'\x03\x00\x00\x00\x00\x00\x00\x00'
tbsa(dp3777
S'status'
p3778
I3
sS'std'
p3779
g222
(g224
S'\x00\x00\x00\x00\x00\x00\x00\x00'
tRp3780
sS'instance_durations'
p3781
g227
(g228
(I0
tS'b'
tRp3782
(I1
(I1
tg223
(S'f8'
I0
I1
tRp3783
(I3
S'<'
NNNI-1
I-1
I0
tbI00
S'\xc0[ A\xf1CR@'
tbsS'instance_results'
p3784
g227
(g228
(I0
tS'b'
tRp3785
(I1
(I1
tg3783
I00
S'H\xe1z\x14\xaeG\xf5?'
tbsS'instance_status'
p3786
g227
(g228
(I0
tS'b'
tRp3787
(I1
(I1
tg223
(S'i8'
I0
I1
tRp3788
(I3
S'<'
NNNI-1
I-1
I0
tbI00
S'\x03\x00\x00\x00\x00\x00\x00\x00'
tbsS'params'
p3789
g237
((lp3790
(lp3791
S'-conv1_depth'
p3792
aS'282.0'
p3793
aa(lp3794
S'-conv2_depth'
p3795
aS'30.0'
p3796
aa(lp3797
S'-fc_depth'
p3798
aS'142.0'
p3799
aa(lp3800
S'-filter_size'
p3801
aS'6.0'
p3802
aatRp3803
sS'result'
p3804
g222
(g224
S'H\xe1z\x14\xaeG\xf5?'
tRp3805
sS'duration'
p3806
g222
(g224
S'\xc0[ A\xf1CR@'
tRp3807
sS'test_error'
p3808
Fnan
sa(dp3809
S'status'
p3810
I3
sS'std'
p3811
g222
(g224
S'\x00\x00\x00\x00\x00\x00\x00\x00'
tRp3812
sS'instance_durations'
p3813
g227
(g228
(I0
tS'b'
tRp3814
(I1
(I1
tg223
(S'f8'
I0
I1
tRp3815
(I3
S'<'
NNNI-1
I-1
I0
tbI00
S'0L\xa6\nF\xadG@'
tbsS'instance_results'
p3816
g227
(g228
(I0
tS'b'
tRp3817
(I1
(I1
tg3815
I00
S'\xb8\x1e\x85\xebQ\xb8\xf6?'
tbsS'instance_status'
p3818
g227
(g228
(I0
tS'b'
tRp3819
(I1
(I1
tg223
(S'i8'
I0
I1
tRp3820
(I3
S'<'
NNNI-1
I-1
I0
tbI00
S'\x03\x00\x00\x00\x00\x00\x00\x00'
tbsS'params'
p3821
g237
((lp3822
(lp3823
S'-conv1_depth'
p3824
aS'38.0'
p3825
aa(lp3826
S'-conv2_depth'
p3827
aS'218.0'
p3828
aa(lp3829
S'-fc_depth'
p3830
aS'483.0'
p3831
aa(lp3832
S'-filter_size'
p3833
aS'5.0'
p3834
aatRp3835
sS'result'
p3836
g222
(g224
S'\xb8\x1e\x85\xebQ\xb8\xf6?'
tRp3837
sS'duration'
p3838
g222
(g224
S'0L\xa6\nF\xadG@'
tRp3839
sS'test_error'
p3840
Fnan
sa(dp3841
S'status'
p3842
I3
sS'std'
p3843
g222
(g224
S'\x00\x00\x00\x00\x00\x00\x00\x00'
tRp3844
sS'instance_durations'
p3845
g227
(g228
(I0
tS'b'
tRp3846
(I1
(I1
tg223
(S'f8'
I0
I1
tRp3847
(I3
S'<'
NNNI-1
I-1
I0
tbI00
S'\x06\x12\x14?\xc6\xccR@'
tbsS'instance_results'
p3848
g227
(g228
(I0
tS'b'
tRp3849
(I1
(I1
tg3847
I00
S'\xcd\xcc\xcc\xcc\xcc\xcc\x02@'
tbsS'instance_status'
p3850
g227
(g228
(I0
tS'b'
tRp3851
(I1
(I1
tg223
(S'i8'
I0
I1
tRp3852
(I3
S'<'
NNNI-1
I-1
I0
tbI00
S'\x03\x00\x00\x00\x00\x00\x00\x00'
tbsS'params'
p3853
g237
((lp3854
(lp3855
S'-conv1_depth'
p3856
aS'80.0'
p3857
aa(lp3858
S'-conv2_depth'
p3859
aS'162.0'
p3860
aa(lp3861
S'-fc_depth'
p3862
aS'461.0'
p3863
aa(lp3864
S'-filter_size'
p3865
aS'10.0'
p3866
aatRp3867
sS'result'
p3868
g222
(g224
S'\xcd\xcc\xcc\xcc\xcc\xcc\x02@'
tRp3869
sS'duration'
p3870
g222
(g224
S'\x06\x12\x14?\xc6\xccR@'
tRp3871
sS'test_error'
p3872
Fnan
sa(dp3873
S'status'
p3874
I3
sS'std'
p3875
g222
(g224
S'\x00\x00\x00\x00\x00\x00\x00\x00'
tRp3876
sS'instance_durations'
p3877
g227
(g228
(I0
tS'b'
tRp3878
(I1
(I1
tg223
(S'f8'
I0
I1
tRp3879
(I3
S'<'
NNNI-1
I-1
I0
tbI00
S'\xc1\xca\xa1E\xb6{P@'
tbsS'instance_results'
p3880
g227
(g228
(I0
tS'b'
tRp3881
(I1
(I1
tg3879
I00
S'\x1f\x85\xebQ\xb8\x1e\xfd?'
tbsS'instance_status'
p3882
g227
(g228
(I0
tS'b'
tRp3883
(I1
(I1
tg223
(S'i8'
I0
I1
tRp3884
(I3
S'<'
NNNI-1
I-1
I0
tbI00
S'\x03\x00\x00\x00\x00\x00\x00\x00'
tbsS'params'
p3885
g237
((lp3886
(lp3887
S'-conv1_depth'
p3888
aS'168.0'
p3889
aa(lp3890
S'-conv2_depth'
p3891
aS'278.0'
p3892
aa(lp3893
S'-fc_depth'
p3894
aS'386.0'
p3895
aa(lp3896
S'-filter_size'
p3897
aS'2.0'
p3898
aatRp3899
sS'result'
p3900
g222
(g224
S'\x1f\x85\xebQ\xb8\x1e\xfd?'
tRp3901
sS'duration'
p3902
g222
(g224
S'\xc1\xca\xa1E\xb6{P@'
tRp3903
sS'test_error'
p3904
Fnan
sa(dp3905
S'status'
p3906
I3
sS'std'
p3907
g222
(g224
S'\x00\x00\x00\x00\x00\x00\x00\x00'
tRp3908
sS'instance_durations'
p3909
g227
(g228
(I0
tS'b'
tRp3910
(I1
(I1
tg223
(S'f8'
I0
I1
tRp3911
(I3
S'<'
NNNI-1
I-1
I0
tbI00
S'\x08\xac\x1cZd\x8fQ@'
tbsS'instance_results'
p3912
g227
(g228
(I0
tS'b'
tRp3913
(I1
(I1
tg3911
I00
S'=\n\xd7\xa3p=\x00@'
tbsS'test_error'
p3914
Fnan
sS'params'
p3915
g237
((lp3916
(lp3917
S'-conv1_depth'
p3918
aS'136.0'
p3919
aa(lp3920
S'-conv2_depth'
p3921
aS'92.0'
p3922
aa(lp3923
S'-fc_depth'
p3924
aS'431.0'
p3925
aa(lp3926
S'-filter_size'
p3927
aS'9.0'
p3928
aatRp3929
sS'result'
p3930
g222
(g224
S'=\n\xd7\xa3p=\x00@'
tRp3931
sS'duration'
p3932
g222
(g224
S'\x08\xac\x1cZd\x8fQ@'
tRp3933
sS'instance_status'
p3934
g227
(g228
(I0
tS'b'
tRp3935
(I1
(I1
tg223
(S'i8'
I0
I1
tRp3936
(I3
S'<'
NNNI-1
I-1
I0
tbI00
S'\x03\x00\x00\x00\x00\x00\x00\x00'
tbsa(dp3937
S'status'
p3938
I3
sS'std'
p3939
g222
(g224
S'\x00\x00\x00\x00\x00\x00\x00\x00'
tRp3940
sS'instance_durations'
p3941
g227
(g228
(I0
tS'b'
tRp3942
(I1
(I1
tg223
(S'f8'
I0
I1
tRp3943
(I3
S'<'
NNNI-1
I-1
I0
tbI00
S'\x00\x00\x00\x00\x000i@'
tbsS'instance_results'
p3944
g227
(g228
(I0
tS'b'
tRp3945
(I1
(I1
tg3943
I00
S'\xaeG\xe1z\x14nV@'
tbsS'instance_status'
p3946
g227
(g228
(I0
tS'b'
tRp3947
(I1
(I1
tg223
(S'i8'
I0
I1
tRp3948
(I3
S'<'
NNNI-1
I-1
I0
tbI00
S'\x03\x00\x00\x00\x00\x00\x00\x00'
tbsS'params'
p3949
g237
((lp3950
(lp3951
S'-conv1_depth'
p3952
aS'244.0'
p3953
aa(lp3954
S'-conv2_depth'
p3955
aS'348.0'
p3956
aa(lp3957
S'-fc_depth'
p3958
aS'401.0'
p3959
aa(lp3960
S'-filter_size'
p3961
aS'6.0'
p3962
aatRp3963
sS'result'
p3964
g222
(g224
S'\xaeG\xe1z\x14nV@'
tRp3965
sS'duration'
p3966
g222
(g224
S'\x00\x00\x00\x00\x000i@'
tRp3967
sS'test_error'
p3968
Fnan
sa(dp3969
S'status'
p3970
I3
sS'std'
p3971
g222
(g224
S'\x00\x00\x00\x00\x00\x00\x00\x00'
tRp3972
sS'instance_durations'
p3973
g227
(g228
(I0
tS'b'
tRp3974
(I1
(I1
tg223
(S'f8'
I0
I1
tRp3975
(I3
S'<'
NNNI-1
I-1
I0
tbI00
S'j\xdeq\x8a\x8e\xccN@'
tbsS'instance_results'
p3976
g227
(g228
(I0
tS'b'
tRp3977
(I1
(I1
tg3975
I00
S'333333\xf3?'
tbsS'instance_status'
p3978
g227
(g228
(I0
tS'b'
tRp3979
(I1
(I1
tg223
(S'i8'
I0
I1
tRp3980
(I3
S'<'
NNNI-1
I-1
I0
tbI00
S'\x03\x00\x00\x00\x00\x00\x00\x00'
tbsS'params'
p3981
g237
((lp3982
(lp3983
S'-conv1_depth'
p3984
aS'128.0'
p3985
aa(lp3986
S'-conv2_depth'
p3987
aS'140.0'
p3988
aa(lp3989
S'-fc_depth'
p3990
aS'222.0'
p3991
aa(lp3992
S'-filter_size'
p3993
aS'7.0'
p3994
aatRp3995
sS'result'
p3996
g222
(g224
S'333333\xf3?'
tRp3997
sS'duration'
p3998
g222
(g224
S'j\xdeq\x8a\x8e\xccN@'
tRp3999
sS'test_error'
p4000
Fnan
sa(dp4001
S'status'
p4002
I3
sS'std'
p4003
g222
(g224
S'\x00\x00\x00\x00\x00\x00\x00\x00'
tRp4004
sS'instance_durations'
p4005
g227
(g228
(I0
tS'b'
tRp4006
(I1
(I1
tg223
(S'f8'
I0
I1
tRp4007
(I3
S'<'
NNNI-1
I-1
I0
tbI00
S'\x9e\xef\xa7\xc6K\x13k@'
tbsS'instance_results'
p4008
g227
(g228
(I0
tS'b'
tRp4009
(I1
(I1
tg4007
I00
S'\xaeG\xe1z\x14nV@'
tbsS'test_error'
p4010
Fnan
sS'params'
p4011
g237
((lp4012
(lp4013
S'-conv1_depth'
p4014
aS'482.0'
p4015
aa(lp4016
S'-conv2_depth'
p4017
aS'312.0'
p4018
aa(lp4019
S'-fc_depth'
p4020
aS'68.0'
p4021
aa(lp4022
S'-filter_size'
p4023
aS'4.0'
p4024
aatRp4025
sS'result'
p4026
g222
(g224
S'\xaeG\xe1z\x14nV@'
tRp4027
sS'duration'
p4028
g222
(g224
S'\x9e\xef\xa7\xc6K\x13k@'
tRp4029
sS'instance_status'
p4030
g227
(g228
(I0
tS'b'
tRp4031
(I1
(I1
tg223
(S'i8'
I0
I1
tRp4032
(I3
S'<'
NNNI-1
I-1
I0
tbI00
S'\x03\x00\x00\x00\x00\x00\x00\x00'
tbsa(dp4033
S'status'
p4034
I3
sS'std'
p4035
g222
(g224
S'\x00\x00\x00\x00\x00\x00\x00\x00'
tRp4036
sS'instance_durations'
p4037
g227
(g228
(I0
tS'b'
tRp4038
(I1
(I1
tg223
(S'f8'
I0
I1
tRp4039
(I3
S'<'
NNNI-1
I-1
I0
tbI00
S'd\xcc]K\xc8\xe7V@'
tbsS'instance_results'
p4040
g227
(g228
(I0
tS'b'
tRp4041
(I1
(I1
tg4039
I00
S'\xd7\xa3p=\n\xd7\xf7?'
tbsS'test_error'
p4042
Fnan
sS'params'
p4043
g237
((lp4044
(lp4045
S'-conv1_depth'
p4046
aS'62.0'
p4047
aa(lp4048
S'-conv2_depth'
p4049
aS'496.0'
p4050
aa(lp4051
S'-fc_depth'
p4052
aS'328.0'
p4053
aa(lp4054
S'-filter_size'
p4055
aS'5.0'
p4056
aatRp4057
sS'result'
p4058
g222
(g224
S'\xd7\xa3p=\n\xd7\xf7?'
tRp4059
sS'duration'
p4060
g222
(g224
S'd\xcc]K\xc8\xe7V@'
tRp4061
sS'instance_status'
p4062
g227
(g228
(I0
tS'b'
tRp4063
(I1
(I1
tg223
(S'i8'
I0
I1
tRp4064
(I3
S'<'
NNNI-1
I-1
I0
tbI00
S'\x03\x00\x00\x00\x00\x00\x00\x00'
tbsa(dp4065
S'status'
p4066
I3
sS'std'
p4067
g222
(g224
S'\x00\x00\x00\x00\x00\x00\x00\x00'
tRp4068
sS'instance_durations'
p4069
g227
(g228
(I0
tS'b'
tRp4070
(I1
(I1
tg223
(S'f8'
I0
I1
tRp4071
(I3
S'<'
NNNI-1
I-1
I0
tbI00
S'/\xdd$\x06\x81!W@'
tbsS'instance_results'
p4072
g227
(g228
(I0
tS'b'
tRp4073
(I1
(I1
tg4071
I00
S'q=\n\xd7\xa3p\xf1?'
tbsS'test_error'
p4074
Fnan
sS'params'
p4075
g237
((lp4076
(lp4077
S'-conv1_depth'
p4078
aS'422.0'
p4079
aa(lp4080
S'-conv2_depth'
p4081
aS'66.0'
p4082
aa(lp4083
S'-fc_depth'
p4084
aS'470.0'
p4085
aa(lp4086
S'-filter_size'
p4087
aS'3.0'
p4088
aatRp4089
sS'result'
p4090
g222
(g224
S'q=\n\xd7\xa3p\xf1?'
tRp4091
sS'duration'
p4092
g222
(g224
S'/\xdd$\x06\x81!W@'
tRp4093
sS'instance_status'
p4094
g227
(g228
(I0
tS'b'
tRp4095
(I1
(I1
tg223
(S'i8'
I0
I1
tRp4096
(I3
S'<'
NNNI-1
I-1
I0
tbI00
S'\x03\x00\x00\x00\x00\x00\x00\x00'
tbsa(dp4097
S'status'
p4098
I3
sS'std'
p4099
g222
(g224
S'\x00\x00\x00\x00\x00\x00\x00\x00'
tRp4100
sS'instance_durations'
p4101
g227
(g228
(I0
tS'b'
tRp4102
(I1
(I1
tg223
(S'f8'
I0
I1
tRp4103
(I3
S'<'
NNNI-1
I-1
I0
tbI00
S'\xd4+e\x19\xe2\xb8O@'
tbsS'instance_results'
p4104
g227
(g228
(I0
tS'b'
tRp4105
(I1
(I1
tg4103
I00
S'\x9a\x99\x99\x99\x99\x99\x1e@'
tbsS'test_error'
p4106
Fnan
sS'params'
p4107
g237
((lp4108
(lp4109
S'-conv1_depth'
p4110
aS'426.0'
p4111
aa(lp4112
S'-conv2_depth'
p4113
aS'8.0'
p4114
aa(lp4115
S'-fc_depth'
p4116
aS'195.0'
p4117
aa(lp4118
S'-filter_size'
p4119
aS'1.0'
p4120
aatRp4121
sS'result'
p4122
g222
(g224
S'\x9a\x99\x99\x99\x99\x99\x1e@'
tRp4123
sS'duration'
p4124
g222
(g224
S'\xd4+e\x19\xe2\xb8O@'
tRp4125
sS'instance_status'
p4126
g227
(g228
(I0
tS'b'
tRp4127
(I1
(I1
tg223
(S'i8'
I0
I1
tRp4128
(I3
S'<'
NNNI-1
I-1
I0
tbI00
S'\x03\x00\x00\x00\x00\x00\x00\x00'
tbsa(dp4129
S'status'
p4130
I3
sS'std'
p4131
g222
(g224
S'\x00\x00\x00\x00\x00\x00\x00\x00'
tRp4132
sS'instance_durations'
p4133
g227
(g228
(I0
tS'b'
tRp4134
(I1
(I1
tg223
(S'f8'
I0
I1
tRp4135
(I3
S'<'
NNNI-1
I-1
I0
tbI00
S'\x93\x18\x04V\x0e-Z@'
tbsS'instance_results'
p4136
g227
(g228
(I0
tS'b'
tRp4137
(I1
(I1
tg4135
I00
S'\xf6(\\\x8f\xc2\xf5\xf4?'
tbsS'instance_status'
p4138
g227
(g228
(I0
tS'b'
tRp4139
(I1
(I1
tg223
(S'i8'
I0
I1
tRp4140
(I3
S'<'
NNNI-1
I-1
I0
tbI00
S'\x03\x00\x00\x00\x00\x00\x00\x00'
tbsS'params'
p4141
g237
((lp4142
(lp4143
S'-conv1_depth'
p4144
aS'456.0'
p4145
aa(lp4146
S'-conv2_depth'
p4147
aS'116.0'
p4148
aa(lp4149
S'-fc_depth'
p4150
aS'505.0'
p4151
aa(lp4152
S'-filter_size'
p4153
aS'3.0'
p4154
aatRp4155
sS'result'
p4156
g222
(g224
S'\xf6(\\\x8f\xc2\xf5\xf4?'
tRp4157
sS'duration'
p4158
g222
(g224
S'\x93\x18\x04V\x0e-Z@'
tRp4159
sS'test_error'
p4160
Fnan
sa(dp4161
S'status'
p4162
I3
sS'std'
p4163
g222
(g224
S'\x00\x00\x00\x00\x00\x00\x00\x00'
tRp4164
sS'instance_durations'
p4165
g227
(g228
(I0
tS'b'
tRp4166
(I1
(I1
tg223
(S'f8'
I0
I1
tRp4167
(I3
S'<'
NNNI-1
I-1
I0
tbI00
S'\xd0D\xd8\xf0\xf4\x16Q@'
tbsS'instance_results'
p4168
g227
(g228
(I0
tS'b'
tRp4169
(I1
(I1
tg4167
I00
S'\n\xd7\xa3p=\n\x1c@'
tbsS'test_error'
p4170
Fnan
sS'params'
p4171
g237
((lp4172
(lp4173
S'-conv1_depth'
p4174
aS'422.0'
p4175
aa(lp4176
S'-conv2_depth'
p4177
aS'66.0'
p4178
aa(lp4179
S'-fc_depth'
p4180
aS'470.0'
p4181
aa(lp4182
S'-filter_size'
p4183
aS'1.0'
p4184
aatRp4185
sS'result'
p4186
g222
(g224
S'\n\xd7\xa3p=\n\x1c@'
tRp4187
sS'duration'
p4188
g222
(g224
S'\xd0D\xd8\xf0\xf4\x16Q@'
tRp4189
sS'instance_status'
p4190
g227
(g228
(I0
tS'b'
tRp4191
(I1
(I1
tg223
(S'i8'
I0
I1
tRp4192
(I3
S'<'
NNNI-1
I-1
I0
tbI00
S'\x03\x00\x00\x00\x00\x00\x00\x00'
tbsa(dp4193
S'status'
p4194
I3
sS'std'
p4195
g222
(g224
S'\x00\x00\x00\x00\x00\x00\x00\x00'
tRp4196
sS'instance_durations'
p4197
g227
(g228
(I0
tS'b'
tRp4198
(I1
(I1
tg223
(S'f8'
I0
I1
tRp4199
(I3
S'<'
NNNI-1
I-1
I0
tbI00
S'\x0eO\xaf\x94e\xbcS@'
tbsS'instance_results'
p4200
g227
(g228
(I0
tS'b'
tRp4201
(I1
(I1
tg4199
I00
S'\x00\x00\x00\x00\x00\x00\xf8?'
tbsS'instance_status'
p4202
g227
(g228
(I0
tS'b'
tRp4203
(I1
(I1
tg223
(S'i8'
I0
I1
tRp4204
(I3
S'<'
NNNI-1
I-1
I0
tbI00
S'\x03\x00\x00\x00\x00\x00\x00\x00'
tbsS'params'
p4205
g237
((lp4206
(lp4207
S'-conv1_depth'
p4208
aS'388.0'
p4209
aa(lp4210
S'-conv2_depth'
p4211
aS'52.0'
p4212
aa(lp4213
S'-fc_depth'
p4214
aS'417.0'
p4215
aa(lp4216
S'-filter_size'
p4217
aS'2.0'
p4218
aatRp4219
sS'result'
p4220
g222
(g224
S'\x00\x00\x00\x00\x00\x00\xf8?'
tRp4221
sS'duration'
p4222
g222
(g224
S'\x0eO\xaf\x94e\xbcS@'
tRp4223
sS'test_error'
p4224
Fnan
sa(dp4225
S'status'
p4226
I3
sS'std'
p4227
g222
(g224
S'\x00\x00\x00\x00\x00\x00\x00\x00'
tRp4228
sS'instance_durations'
p4229
g227
(g228
(I0
tS'b'
tRp4230
(I1
(I1
tg223
(S'f8'
I0
I1
tRp4231
(I3
S'<'
NNNI-1
I-1
I0
tbI00
S'?5^\xbaI\x0cY@'
tbsS'instance_results'
p4232
g227
(g228
(I0
tS'b'
tRp4233
(I1
(I1
tg4231
I00
S'\xf6(\\\x8f\xc2\xf5\xf8?'
tbsS'instance_status'
p4234
g227
(g228
(I0
tS'b'
tRp4235
(I1
(I1
tg223
(S'i8'
I0
I1
tRp4236
(I3
S'<'
NNNI-1
I-1
I0
tbI00
S'\x03\x00\x00\x00\x00\x00\x00\x00'
tbsS'params'
p4237
g237
((lp4238
(lp4239
S'-conv1_depth'
p4240
aS'478.0'
p4241
aa(lp4242
S'-conv2_depth'
p4243
aS'86.0'
p4244
aa(lp4245
S'-fc_depth'
p4246
aS'494.0'
p4247
aa(lp4248
S'-filter_size'
p4249
aS'2.0'
p4250
aatRp4251
sS'result'
p4252
g222
(g224
S'\xf6(\\\x8f\xc2\xf5\xf8?'
tRp4253
sS'duration'
p4254
g222
(g224
S'?5^\xbaI\x0cY@'
tRp4255
sS'test_error'
p4256
Fnan
sa(dp4257
S'status'
p4258
I3
sS'std'
p4259
g222
(g224
S'\x00\x00\x00\x00\x00\x00\x00\x00'
tRp4260
sS'instance_durations'
p4261
g227
(g228
(I0
tS'b'
tRp4262
(I1
(I1
tg223
(S'f8'
I0
I1
tRp4263
(I3
S'<'
NNNI-1
I-1
I0
tbI00
S'\x89A`\xe5\xd0jb@'
tbsS'instance_results'
p4264
g227
(g228
(I0
tS'b'
tRp4265
(I1
(I1
tg4263
I00
S'H\xe1z\x14\xaeG\xf9?'
tbsS'test_error'
p4266
Fnan
sS'params'
p4267
g237
((lp4268
(lp4269
S'-conv1_depth'
p4270
aS'446.0'
p4271
aa(lp4272
S'-conv2_depth'
p4273
aS'376.0'
p4274
aa(lp4275
S'-fc_depth'
p4276
aS'168.0'
p4277
aa(lp4278
S'-filter_size'
p4279
aS'3.0'
p4280
aatRp4281
sS'result'
p4282
g222
(g224
S'H\xe1z\x14\xaeG\xf9?'
tRp4283
sS'duration'
p4284
g222
(g224
S'\x89A`\xe5\xd0jb@'
tRp4285
sS'instance_status'
p4286
g227
(g228
(I0
tS'b'
tRp4287
(I1
(I1
tg223
(S'i8'
I0
I1
tRp4288
(I3
S'<'
NNNI-1
I-1
I0
tbI00
S'\x03\x00\x00\x00\x00\x00\x00\x00'
tbsa(dp4289
S'status'
p4290
I3
sS'std'
p4291
g222
(g224
S'\x00\x00\x00\x00\x00\x00\x00\x00'
tRp4292
sS'instance_durations'
p4293
g227
(g228
(I0
tS'b'
tRp4294
(I1
(I1
tg223
(S'f8'
I0
I1
tRp4295
(I3
S'<'
NNNI-1
I-1
I0
tbI00
S'(\x0f\x0b\xb5\xa6IX@'
tbsS'instance_results'
p4296
g227
(g228
(I0
tS'b'
tRp4297
(I1
(I1
tg4295
I00
S'{\x14\xaeG\xe1z\x1c@'
tbsS'test_error'
p4298
Fnan
sS'params'
p4299
g237
((lp4300
(lp4301
S'-conv1_depth'
p4302
aS'362.0'
p4303
aa(lp4304
S'-conv2_depth'
p4305
aS'422.0'
p4306
aa(lp4307
S'-fc_depth'
p4308
aS'441.0'
p4309
aa(lp4310
S'-filter_size'
p4311
aS'1.0'
p4312
aatRp4313
sS'result'
p4314
g222
(g224
S'{\x14\xaeG\xe1z\x1c@'
tRp4315
sS'duration'
p4316
g222
(g224
S'(\x0f\x0b\xb5\xa6IX@'
tRp4317
sS'instance_status'
p4318
g227
(g228
(I0
tS'b'
tRp4319
(I1
(I1
tg223
(S'i8'
I0
I1
tRp4320
(I3
S'<'
NNNI-1
I-1
I0
tbI00
S'\x03\x00\x00\x00\x00\x00\x00\x00'
tbsa(dp4321
S'status'
p4322
I3
sS'std'
p4323
g222
(g224
S'\x00\x00\x00\x00\x00\x00\x00\x00'
tRp4324
sS'instance_durations'
p4325
g227
(g228
(I0
tS'b'
tRp4326
(I1
(I1
tg223
(S'f8'
I0
I1
tRp4327
(I3
S'<'
NNNI-1
I-1
I0
tbI00
S'\xbct\x93\x18\x04\nb@'
tbsS'instance_results'
p4328
g227
(g228
(I0
tS'b'
tRp4329
(I1
(I1
tg4327
I00
S'\xe1z\x14\xaeG\xe1\xf6?'
tbsS'test_error'
p4330
Fnan
sS'params'
p4331
g237
((lp4332
(lp4333
S'-conv1_depth'
p4334
aS'498.0'
p4335
aa(lp4336
S'-conv2_depth'
p4337
aS'254.0'
p4338
aa(lp4339
S'-fc_depth'
p4340
aS'307.0'
p4341
aa(lp4342
S'-filter_size'
p4343
aS'3.0'
p4344
aatRp4345
sS'result'
p4346
g222
(g224
S'\xe1z\x14\xaeG\xe1\xf6?'
tRp4347
sS'duration'
p4348
g222
(g224
S'\xbct\x93\x18\x04\nb@'
tRp4349
sS'instance_status'
p4350
g227
(g228
(I0
tS'b'
tRp4351
(I1
(I1
tg223
(S'i8'
I0
I1
tRp4352
(I3
S'<'
NNNI-1
I-1
I0
tbI00
S'\x03\x00\x00\x00\x00\x00\x00\x00'
tbsa(dp4353
S'status'
p4354
I3
sS'std'
p4355
g222
(g224
S'\x00\x00\x00\x00\x00\x00\x00\x00'
tRp4356
sS'instance_durations'
p4357
g227
(g228
(I0
tS'b'
tRp4358
(I1
(I1
tg223
(S'f8'
I0
I1
tRp4359
(I3
S'<'
NNNI-1
I-1
I0
tbI00
S'\x92\xcb\x7fH\xbfmU@'
tbsS'instance_results'
p4360
g227
(g228
(I0
tS'b'
tRp4361
(I1
(I1
tg4359
I00
S'\xecQ\xb8\x1e\x85\xeb\xf9?'
tbsS'instance_status'
p4362
g227
(g228
(I0
tS'b'
tRp4363
(I1
(I1
tg223
(S'i8'
I0
I1
tRp4364
(I3
S'<'
NNNI-1
I-1
I0
tbI00
S'\x03\x00\x00\x00\x00\x00\x00\x00'
tbsS'params'
p4365
g237
((lp4366
(lp4367
S'-conv1_depth'
p4368
aS'402.0'
p4369
aa(lp4370
S'-conv2_depth'
p4371
aS'24.0'
p4372
aa(lp4373
S'-fc_depth'
p4374
aS'454.0'
p4375
aa(lp4376
S'-filter_size'
p4377
aS'4.0'
p4378
aatRp4379
sS'result'
p4380
g222
(g224
S'\xecQ\xb8\x1e\x85\xeb\xf9?'
tRp4381
sS'duration'
p4382
g222
(g224
S'\x92\xcb\x7fH\xbfmU@'
tRp4383
sS'test_error'
p4384
Fnan
sa(dp4385
S'status'
p4386
I3
sS'std'
p4387
g222
(g224
S'\x00\x00\x00\x00\x00\x00\x00\x00'
tRp4388
sS'instance_durations'
p4389
g227
(g228
(I0
tS'b'
tRp4390
(I1
(I1
tg223
(S'f8'
I0
I1
tRp4391
(I3
S'<'
NNNI-1
I-1
I0
tbI00
S'yX\xa85\xcd\x97R@'
tbsS'instance_results'
p4392
g227
(g228
(I0
tS'b'
tRp4393
(I1
(I1
tg4391
I00
S'\x8f\xc2\xf5(\\\x8f\xfa?'
tbsS'instance_status'
p4394
g227
(g228
(I0
tS'b'
tRp4395
(I1
(I1
tg223
(S'i8'
I0
I1
tRp4396
(I3
S'<'
NNNI-1
I-1
I0
tbI00
S'\x03\x00\x00\x00\x00\x00\x00\x00'
tbsS'params'
p4397
g237
((lp4398
(lp4399
S'-conv1_depth'
p4400
aS'314.0'
p4401
aa(lp4402
S'-conv2_depth'
p4403
aS'122.0'
p4404
aa(lp4405
S'-fc_depth'
p4406
aS'294.0'
p4407
aa(lp4408
S'-filter_size'
p4409
aS'2.0'
p4410
aatRp4411
sS'result'
p4412
g222
(g224
S'\x8f\xc2\xf5(\\\x8f\xfa?'
tRp4413
sS'duration'
p4414
g222
(g224
S'yX\xa85\xcd\x97R@'
tRp4415
sS'test_error'
p4416
Fnan
sa(dp4417
S'status'
p4418
I3
sS'std'
p4419
g222
(g224
S'\x00\x00\x00\x00\x00\x00\x00\x00'
tRp4420
sS'instance_durations'
p4421
g227
(g228
(I0
tS'b'
tRp4422
(I1
(I1
tg223
(S'f8'
I0
I1
tRp4423
(I3
S'<'
NNNI-1
I-1
I0
tbI00
S'?5^\xbaI\x08`@'
tbsS'instance_results'
p4424
g227
(g228
(I0
tS'b'
tRp4425
(I1
(I1
tg4423
I00
S'q=\n\xd7\xa3p\x03@'
tbsS'test_error'
p4426
Fnan
sS'params'
p4427
g237
((lp4428
(lp4429
S'-conv1_depth'
p4430
aS'378.0'
p4431
aa(lp4432
S'-conv2_depth'
p4433
aS'184.0'
p4434
aa(lp4435
S'-fc_depth'
p4436
aS'22.0'
p4437
aa(lp4438
S'-filter_size'
p4439
aS'4.0'
p4440
aatRp4441
sS'result'
p4442
g222
(g224
S'q=\n\xd7\xa3p\x03@'
tRp4443
sS'duration'
p4444
g222
(g224
S'?5^\xbaI\x08`@'
tRp4445
sS'instance_status'
p4446
g227
(g228
(I0
tS'b'
tRp4447
(I1
(I1
tg223
(S'i8'
I0
I1
tRp4448
(I3
S'<'
NNNI-1
I-1
I0
tbI00
S'\x03\x00\x00\x00\x00\x00\x00\x00'
tbsa(dp4449
S'status'
p4450
I3
sS'std'
p4451
g222
(g224
S'\x00\x00\x00\x00\x00\x00\x00\x00'
tRp4452
sS'instance_durations'
p4453
g227
(g228
(I0
tS'b'
tRp4454
(I1
(I1
tg223
(S'f8'
I0
I1
tRp4455
(I3
S'<'
NNNI-1
I-1
I0
tbI00
S'\xd1\x91\\\xfeC\xfeQ@'
tbsS'instance_results'
p4456
g227
(g228
(I0
tS'b'
tRp4457
(I1
(I1
tg4455
I00
S'\xaeG\xe1z\x14\xae\xf7?'
tbsS'test_error'
p4458
Fnan
sS'params'
p4459
g237
((lp4460
(lp4461
S'-conv1_depth'
p4462
aS'294.0'
p4463
aa(lp4464
S'-conv2_depth'
p4465
aS'108.0'
p4466
aa(lp4467
S'-fc_depth'
p4468
aS'206.0'
p4469
aa(lp4470
S'-filter_size'
p4471
aS'3.0'
p4472
aatRp4473
sS'result'
p4474
g222
(g224
S'\xaeG\xe1z\x14\xae\xf7?'
tRp4475
sS'duration'
p4476
g222
(g224
S'\xd1\x91\\\xfeC\xfeQ@'
tRp4477
sS'instance_status'
p4478
g227
(g228
(I0
tS'b'
tRp4479
(I1
(I1
tg223
(S'i8'
I0
I1
tRp4480
(I3
S'<'
NNNI-1
I-1
I0
tbI00
S'\x03\x00\x00\x00\x00\x00\x00\x00'
tbsa(dp4481
S'status'
p4482
I3
sS'std'
p4483
g222
(g224
S'\x00\x00\x00\x00\x00\x00\x00\x00'
tRp4484
sS'instance_durations'
p4485
g227
(g228
(I0
tS'b'
tRp4486
(I1
(I1
tg223
(S'f8'
I0
I1
tRp4487
(I3
S'<'
NNNI-1
I-1
I0
tbI00
S'\x91\xed|?5Ja@'
tbsS'instance_results'
p4488
g227
(g228
(I0
tS'b'
tRp4489
(I1
(I1
tg4487
I00
S'\xaeG\xe1z\x14nV@'
tbsS'test_error'
p4490
Fnan
sS'params'
p4491
g237
((lp4492
(lp4493
S'-conv1_depth'
p4494
aS'330.0'
p4495
aa(lp4496
S'-conv2_depth'
p4497
aS'170.0'
p4498
aa(lp4499
S'-fc_depth'
p4500
aS'238.0'
p4501
aa(lp4502
S'-filter_size'
p4503
aS'5.0'
p4504
aatRp4505
sS'result'
p4506
g222
(g224
S'\xaeG\xe1z\x14nV@'
tRp4507
sS'duration'
p4508
g222
(g224
S'\x91\xed|?5Ja@'
tRp4509
sS'instance_status'
p4510
g227
(g228
(I0
tS'b'
tRp4511
(I1
(I1
tg223
(S'i8'
I0
I1
tRp4512
(I3
S'<'
NNNI-1
I-1
I0
tbI00
S'\x03\x00\x00\x00\x00\x00\x00\x00'
tbsa(dp4513
S'status'
p4514
I3
sS'std'
p4515
g222
(g224
S'\x00\x00\x00\x00\x00\x00\x00\x00'
tRp4516
sS'instance_durations'
p4517
g227
(g228
(I0
tS'b'
tRp4518
(I1
(I1
tg223
(S'f8'
I0
I1
tRp4519
(I3
S'<'
NNNI-1
I-1
I0
tbI00
S'\x1b/\xdd$\x06\x11^@'
tbsS'instance_results'
p4520
g227
(g228
(I0
tS'b'
tRp4521
(I1
(I1
tg4519
I00
S'\xcd\xcc\xcc\xcc\xcc\xcc\xf4?'
tbsS'instance_status'
p4522
g227
(g228
(I0
tS'b'
tRp4523
(I1
(I1
tg223
(S'i8'
I0
I1
tRp4524
(I3
S'<'
NNNI-1
I-1
I0
tbI00
S'\x03\x00\x00\x00\x00\x00\x00\x00'
tbsS'params'
p4525
g237
((lp4526
(lp4527
S'-conv1_depth'
p4528
aS'350.0'
p4529
aa(lp4530
S'-conv2_depth'
p4531
aS'152.0'
p4532
aa(lp4533
S'-fc_depth'
p4534
aS'351.0'
p4535
aa(lp4536
S'-filter_size'
p4537
aS'4.0'
p4538
aatRp4539
sS'result'
p4540
g222
(g224
S'\xcd\xcc\xcc\xcc\xcc\xcc\xf4?'
tRp4541
sS'duration'
p4542
g222
(g224
S'\x1b/\xdd$\x06\x11^@'
tRp4543
sS'test_error'
p4544
Fnan
sa(dp4545
S'status'
p4546
I3
sS'std'
p4547
g222
(g224
S'\x00\x00\x00\x00\x00\x00\x00\x00'
tRp4548
sS'instance_durations'
p4549
g227
(g228
(I0
tS'b'
tRp4550
(I1
(I1
tg223
(S'f8'
I0
I1
tRp4551
(I3
S'<'
NNNI-1
I-1
I0
tbI00
S'T\xe3\xa5\x9b\xc4\xb8]@'
tbsS'instance_results'
p4552
g227
(g228
(I0
tS'b'
tRp4553
(I1
(I1
tg4551
I00
S'q=\n\xd7\xa3p\xf5?'
tbsS'instance_status'
p4554
g227
(g228
(I0
tS'b'
tRp4555
(I1
(I1
tg223
(S'i8'
I0
I1
tRp4556
(I3
S'<'
NNNI-1
I-1
I0
tbI00
S'\x03\x00\x00\x00\x00\x00\x00\x00'
tbsS'params'
p4557
g237
((lp4558
(lp4559
S'-conv1_depth'
p4560
aS'214.0'
p4561
aa(lp4562
S'-conv2_depth'
p4563
aS'202.0'
p4564
aa(lp4565
S'-fc_depth'
p4566
aS'371.0'
p4567
aa(lp4568
S'-filter_size'
p4569
aS'6.0'
p4570
aatRp4571
sS'result'
p4572
g222
(g224
S'q=\n\xd7\xa3p\xf5?'
tRp4573
sS'duration'
p4574
g222
(g224
S'T\xe3\xa5\x9b\xc4\xb8]@'
tRp4575
sS'test_error'
p4576
Fnan
sa(dp4577
S'status'
p4578
I3
sS'std'
p4579
g222
(g224
S'\x00\x00\x00\x00\x00\x00\x00\x00'
tRp4580
sS'instance_durations'
p4581
g227
(g228
(I0
tS'b'
tRp4582
(I1
(I1
tg223
(S'f8'
I0
I1
tRp4583
(I3
S'<'
NNNI-1
I-1
I0
tbI00
S'\x8d\x97n\x12\x83d`@'
tbsS'instance_results'
p4584
g227
(g228
(I0
tS'b'
tRp4585
(I1
(I1
tg4583
I00
S'\xecQ\xb8\x1e\x85\xeb\xf5?'
tbsS'test_error'
p4586
Fnan
sS'params'
p4587
g237
((lp4588
(lp4589
S'-conv1_depth'
p4590
aS'408.0'
p4591
aa(lp4592
S'-conv2_depth'
p4593
aS'292.0'
p4594
aa(lp4595
S'-fc_depth'
p4596
aS'485.0'
p4597
aa(lp4598
S'-filter_size'
p4599
aS'3.0'
p4600
aatRp4601
sS'result'
p4602
g222
(g224
S'\xecQ\xb8\x1e\x85\xeb\xf5?'
tRp4603
sS'duration'
p4604
g222
(g224
S'\x8d\x97n\x12\x83d`@'
tRp4605
sS'instance_status'
p4606
g227
(g228
(I0
tS'b'
tRp4607
(I1
(I1
tg223
(S'i8'
I0
I1
tRp4608
(I3
S'<'
NNNI-1
I-1
I0
tbI00
S'\x03\x00\x00\x00\x00\x00\x00\x00'
tbsa(dp4609
S'status'
p4610
I3
sS'std'
p4611
g222
(g224
S'\x00\x00\x00\x00\x00\x00\x00\x00'
tRp4612
sS'instance_durations'
p4613
g227
(g228
(I0
tS'b'
tRp4614
(I1
(I1
tg223
(S'f8'
I0
I1
tRp4615
(I3
S'<'
NNNI-1
I-1
I0
tbI00
S'\xda\x1b|a2\xb5N@'
tbsS'instance_results'
p4616
g227
(g228
(I0
tS'b'
tRp4617
(I1
(I1
tg4615
I00
S'\x14\xaeG\xe1z\x14\x1d@'
tbsS'test_error'
p4618
Fnan
sS'params'
p4619
g237
((lp4620
(lp4621
S'-conv1_depth'
p4622
aS'264.0'
p4623
aa(lp4624
S'-conv2_depth'
p4625
aS'268.0'
p4626
aa(lp4627
S'-fc_depth'
p4628
aS'273.0'
p4629
aa(lp4630
S'-filter_size'
p4631
aS'1.0'
p4632
aatRp4633
sS'result'
p4634
g222
(g224
S'\x14\xaeG\xe1z\x14\x1d@'
tRp4635
sS'duration'
p4636
g222
(g224
S'\xda\x1b|a2\xb5N@'
tRp4637
sS'instance_status'
p4638
g227
(g228
(I0
tS'b'
tRp4639
(I1
(I1
tg223
(S'i8'
I0
I1
tRp4640
(I3
S'<'
NNNI-1
I-1
I0
tbI00
S'\x03\x00\x00\x00\x00\x00\x00\x00'
tbsa(dp4641
S'status'
p4642
I3
sS'std'
p4643
g222
(g224
S'\x00\x00\x00\x00\x00\x00\x00\x00'
tRp4644
sS'instance_durations'
p4645
g227
(g228
(I0
tS'b'
tRp4646
(I1
(I1
tg223
(S'f8'
I0
I1
tRp4647
(I3
S'<'
NNNI-1
I-1
I0
tbI00
S'\xf9\x0f\xe9\xb7\xaf\x9bO@'
tbsS'instance_results'
p4648
g227
(g228
(I0
tS'b'
tRp4649
(I1
(I1
tg4647
I00
S'\xaeG\xe1z\x14\xae\xf7?'
tbsS'instance_status'
p4650
g227
(g228
(I0
tS'b'
tRp4651
(I1
(I1
tg223
(S'i8'
I0
I1
tRp4652
(I3
S'<'
NNNI-1
I-1
I0
tbI00
S'\x03\x00\x00\x00\x00\x00\x00\x00'
tbsS'params'
p4653
g237
((lp4654
(lp4655
S'-conv1_depth'
p4656
aS'232.0'
p4657
aa(lp4658
S'-conv2_depth'
p4659
aS'134.0'
p4660
aa(lp4661
S'-fc_depth'
p4662
aS'391.0'
p4663
aa(lp4664
S'-filter_size'
p4665
aS'2.0'
p4666
aatRp4667
sS'result'
p4668
g222
(g224
S'\xaeG\xe1z\x14\xae\xf7?'
tRp4669
sS'duration'
p4670
g222
(g224
S'\xf9\x0f\xe9\xb7\xaf\x9bO@'
tRp4671
sS'test_error'
p4672
Fnan
sa(dp4673
S'status'
p4674
I3
sS'std'
p4675
g222
(g224
S'\x00\x00\x00\x00\x00\x00\x00\x00'
tRp4676
sS'instance_durations'
p4677
g227
(g228
(I0
tS'b'
tRp4678
(I1
(I1
tg223
(S'f8'
I0
I1
tRp4679
(I3
S'<'
NNNI-1
I-1
I0
tbI00
S'\xbd\xe3\x14\x1d\xc9\tU@'
tbsS'instance_results'
p4680
g227
(g228
(I0
tS'b'
tRp4681
(I1
(I1
tg4679
I00
S'ffffff\xf2?'
tbsS'instance_status'
p4682
g227
(g228
(I0
tS'b'
tRp4683
(I1
(I1
tg223
(S'i8'
I0
I1
tRp4684
(I3
S'<'
NNNI-1
I-1
I0
tbI00
S'\x03\x00\x00\x00\x00\x00\x00\x00'
tbsS'params'
p4685
g237
((lp4686
(lp4687
S'-conv1_depth'
p4688
aS'280.0'
p4689
aa(lp4690
S'-conv2_depth'
p4691
aS'72.0'
p4692
aa(lp4693
S'-fc_depth'
p4694
aS'359.0'
p4695
aa(lp4696
S'-filter_size'
p4697
aS'5.0'
p4698
aatRp4699
sS'result'
p4700
g222
(g224
S'ffffff\xf2?'
tRp4701
sS'duration'
p4702
g222
(g224
S'\xbd\xe3\x14\x1d\xc9\tU@'
tRp4703
sS'test_error'
p4704
Fnan
sa(dp4705
S'status'
p4706
I3
sS'std'
p4707
g222
(g224
S'\x00\x00\x00\x00\x00\x00\x00\x00'
tRp4708
sS'instance_durations'
p4709
g227
(g228
(I0
tS'b'
tRp4710
(I1
(I1
tg223
(S'f8'
I0
I1
tRp4711
(I3
S'<'
NNNI-1
I-1
I0
tbI00
S'B\xcff\xd5\xe7\x9aG@'
tbsS'instance_results'
p4712
g227
(g228
(I0
tS'b'
tRp4713
(I1
(I1
tg4711
I00
S'\xa4p=\n\xd7\xa3\xf8?'
tbsS'instance_status'
p4714
g227
(g228
(I0
tS'b'
tRp4715
(I1
(I1
tg223
(S'i8'
I0
I1
tRp4716
(I3
S'<'
NNNI-1
I-1
I0
tbI00
S'\x03\x00\x00\x00\x00\x00\x00\x00'
tbsS'params'
p4717
g237
((lp4718
(lp4719
S'-conv1_depth'
p4720
aS'194.0'
p4721
aa(lp4722
S'-conv2_depth'
p4723
aS'42.0'
p4724
aa(lp4725
S'-fc_depth'
p4726
aS'408.0'
p4727
aa(lp4728
S'-filter_size'
p4729
aS'2.0'
p4730
aatRp4731
sS'result'
p4732
g222
(g224
S'\xa4p=\n\xd7\xa3\xf8?'
tRp4733
sS'duration'
p4734
g222
(g224
S'B\xcff\xd5\xe7\x9aG@'
tRp4735
sS'test_error'
p4736
Fnan
sa(dp4737
S'status'
p4738
I3
sS'std'
p4739
g222
(g224
S'\x00\x00\x00\x00\x00\x00\x00\x00'
tRp4740
sS'instance_durations'
p4741
g227
(g228
(I0
tS'b'
tRp4742
(I1
(I1
tg223
(S'f8'
I0
I1
tRp4743
(I3
S'<'
NNNI-1
I-1
I0
tbI00
S'\x116<\xbdR.T@'
tbsS'instance_results'
p4744
g227
(g228
(I0
tS'b'
tRp4745
(I1
(I1
tg4743
I00
S'R\xb8\x1e\x85\xebQ\x02@'
tbsS'test_error'
p4746
Fnan
sS'params'
p4747
g237
((lp4748
(lp4749
S'-conv1_depth'
p4750
aS'436.0'
p4751
aa(lp4752
S'-conv2_depth'
p4753
aS'14.0'
p4754
aa(lp4755
S'-fc_depth'
p4756
aS'344.0'
p4757
aa(lp4758
S'-filter_size'
p4759
aS'3.0'
p4760
aatRp4761
sS'result'
p4762
g222
(g224
S'R\xb8\x1e\x85\xebQ\x02@'
tRp4763
sS'duration'
p4764
g222
(g224
S'\x116<\xbdR.T@'
tRp4765
sS'instance_status'
p4766
g227
(g228
(I0
tS'b'
tRp4767
(I1
(I1
tg223
(S'i8'
I0
I1
tRp4768
(I3
S'<'
NNNI-1
I-1
I0
tbI00
S'\x03\x00\x00\x00\x00\x00\x00\x00'
tbsa(dp4769
S'status'
p4770
I3
sS'std'
p4771
g222
(g224
S'\x00\x00\x00\x00\x00\x00\x00\x00'
tRp4772
sS'instance_durations'
p4773
g227
(g228
(I0
tS'b'
tRp4774
(I1
(I1
tg223
(S'f8'
I0
I1
tRp4775
(I3
S'<'
NNNI-1
I-1
I0
tbI00
S'\xf1c\xcc]K0I@'
tbsS'instance_results'
p4776
g227
(g228
(I0
tS'b'
tRp4777
(I1
(I1
tg4775
I00
S'R\xb8\x1e\x85\xebQ\xf4?'
tbsS'instance_status'
p4778
g227
(g228
(I0
tS'b'
tRp4779
(I1
(I1
tg223
(S'i8'
I0
I1
tRp4780
(I3
S'<'
NNNI-1
I-1
I0
tbI00
S'\x03\x00\x00\x00\x00\x00\x00\x00'
tbsS'params'
p4781
g237
((lp4782
(lp4783
S'-conv1_depth'
p4784
aS'148.0'
p4785
aa(lp4786
S'-conv2_depth'
p4787
aS'60.0'
p4788
aa(lp4789
S'-fc_depth'
p4790
aS'476.0'
p4791
aa(lp4792
S'-filter_size'
p4793
aS'5.0'
p4794
aatRp4795
sS'result'
p4796
g222
(g224
S'R\xb8\x1e\x85\xebQ\xf4?'
tRp4797
sS'duration'
p4798
g222
(g224
S'\xf1c\xcc]K0I@'
tRp4799
sS'test_error'
p4800
Fnan
sa(dp4801
S'status'
p4802
I3
sS'std'
p4803
g222
(g224
S'\x00\x00\x00\x00\x00\x00\x00\x00'
tRp4804
sS'instance_durations'
p4805
g227
(g228
(I0
tS'b'
tRp4806
(I1
(I1
tg223
(S'f8'
I0
I1
tRp4807
(I3
S'<'
NNNI-1
I-1
I0
tbI00
S'7\x89A`\xe5\x00b@'
tbsS'instance_results'
p4808
g227
(g228
(I0
tS'b'
tRp4809
(I1
(I1
tg4807
I00
S'\xa4p=\n\xd7\xa3\xf4?'
tbsS'instance_status'
p4810
g227
(g228
(I0
tS'b'
tRp4811
(I1
(I1
tg223
(S'i8'
I0
I1
tRp4812
(I3
S'<'
NNNI-1
I-1
I0
tbI00
S'\x03\x00\x00\x00\x00\x00\x00\x00'
tbsS'params'
p4813
g237
((lp4814
(lp4815
S'-conv1_depth'
p4816
aS'372.0'
p4817
aa(lp4818
S'-conv2_depth'
p4819
aS'212.0'
p4820
aa(lp4821
S'-fc_depth'
p4822
aS'423.0'
p4823
aa(lp4824
S'-filter_size'
p4825
aS'4.0'
p4826
aatRp4827
sS'result'
p4828
g222
(g224
S'\xa4p=\n\xd7\xa3\xf4?'
tRp4829
sS'duration'
p4830
g222
(g224
S'7\x89A`\xe5\x00b@'
tRp4831
sS'test_error'
p4832
Fnan
sa(dp4833
S'status'
p4834
I3
sS'std'
p4835
g222
(g224
S'\x00\x00\x00\x00\x00\x00\x00\x00'
tRp4836
sS'instance_durations'
p4837
g227
(g228
(I0
tS'b'
tRp4838
(I1
(I1
tg223
(S'f8'
I0
I1
tRp4839
(I3
S'<'
NNNI-1
I-1
I0
tbI00
S'<N\xd1\x91\\\x16I@'
tbsS'instance_results'
p4840
g227
(g228
(I0
tS'b'
tRp4841
(I1
(I1
tg4839
I00
S'\x00\x00\x00\x00\x00\x00\xf4?'
tbsS'test_error'
p4842
Fnan
sS'params'
p4843
g237
((lp4844
(lp4845
S'-conv1_depth'
p4846
aS'92.0'
p4847
aa(lp4848
S'-conv2_depth'
p4849
aS'158.0'
p4850
aa(lp4851
S'-fc_depth'
p4852
aS'322.0'
p4853
aa(lp4854
S'-filter_size'
p4855
aS'4.0'
p4856
aatRp4857
sS'result'
p4858
g222
(g224
S'\x00\x00\x00\x00\x00\x00\xf4?'
tRp4859
sS'duration'
p4860
g222
(g224
S'<N\xd1\x91\\\x16I@'
tRp4861
sS'instance_status'
p4862
g227
(g228
(I0
tS'b'
tRp4863
(I1
(I1
tg223
(S'i8'
I0
I1
tRp4864
(I3
S'<'
NNNI-1
I-1
I0
tbI00
S'\x03\x00\x00\x00\x00\x00\x00\x00'
tbsa(dp4865
S'status'
p4866
I3
sS'std'
p4867
g222
(g224
S'\x00\x00\x00\x00\x00\x00\x00\x00'
tRp4868
sS'instance_durations'
p4869
g227
(g228
(I0
tS'b'
tRp4870
(I1
(I1
tg223
(S'f8'
I0
I1
tRp4871
(I3
S'<'
NNNI-1
I-1
I0
tbI00
S'\x14\xd0D\xd8\xf0\x9cL@'
tbsS'instance_results'
p4872
g227
(g228
(I0
tS'b'
tRp4873
(I1
(I1
tg4871
I00
S'ffffff\xf2?'
tbsS'test_error'
p4874
Fnan
sS'params'
p4875
g237
((lp4876
(lp4877
S'-conv1_depth'
p4878
aS'120.0'
p4879
aa(lp4880
S'-conv2_depth'
p4881
aS'100.0'
p4882
aa(lp4883
S'-fc_depth'
p4884
aS'428.0'
p4885
aa(lp4886
S'-filter_size'
p4887
aS'6.0'
p4888
aatRp4889
sS'result'
p4890
g222
(g224
S'ffffff\xf2?'
tRp4891
sS'duration'
p4892
g222
(g224
S'\x14\xd0D\xd8\xf0\x9cL@'
tRp4893
sS'instance_status'
p4894
g227
(g228
(I0
tS'b'
tRp4895
(I1
(I1
tg223
(S'i8'
I0
I1
tRp4896
(I3
S'<'
NNNI-1
I-1
I0
tbI00
S'\x03\x00\x00\x00\x00\x00\x00\x00'
tbsa(dp4897
S'status'
p4898
I3
sS'std'
p4899
g222
(g224
S'\x00\x00\x00\x00\x00\x00\x00\x00'
tRp4900
sS'instance_durations'
p4901
g227
(g228
(I0
tS'b'
tRp4902
(I1
(I1
tg223
(S'f8'
I0
I1
tRp4903
(I3
S'<'
NNNI-1
I-1
I0
tbI00
S'}\xae\xb6b\x7f\x05R@'
tbsS'instance_results'
p4904
g227
(g228
(I0
tS'b'
tRp4905
(I1
(I1
tg4903
I00
S'R\xb8\x1e\x85\xebQ\x04@'
tbsS'test_error'
p4906
Fnan
sS'params'
p4907
g237
((lp4908
(lp4909
S'-conv1_depth'
p4910
aS'174.0'
p4911
aa(lp4912
S'-conv2_depth'
p4913
aS'86.0'
p4914
aa(lp4915
S'-fc_depth'
p4916
aS'454.0'
p4917
aa(lp4918
S'-filter_size'
p4919
aS'7.0'
p4920
aatRp4921
sS'result'
p4922
g222
(g224
S'R\xb8\x1e\x85\xebQ\x04@'
tRp4923
sS'duration'
p4924
g222
(g224
S'}\xae\xb6b\x7f\x05R@'
tRp4925
sS'instance_status'
p4926
g227
(g228
(I0
tS'b'
tRp4927
(I1
(I1
tg223
(S'i8'
I0
I1
tRp4928
(I3
S'<'
NNNI-1
I-1
I0
tbI00
S'\x03\x00\x00\x00\x00\x00\x00\x00'
tbsa(dp4929
S'status'
p4930
I3
sS'std'
p4931
g222
(g224
S'\x00\x00\x00\x00\x00\x00\x00\x00'
tRp4932
sS'instance_durations'
p4933
g227
(g228
(I0
tS'b'
tRp4934
(I1
(I1
tg223
(S'f8'
I0
I1
tRp4935
(I3
S'<'
NNNI-1
I-1
I0
tbI00
S't\xb5\x15\xfb\xcb\x96E@'
tbsS'instance_results'
p4936
g227
(g228
(I0
tS'b'
tRp4937
(I1
(I1
tg4935
I00
S'\xf6(\\\x8f\xc2\xf5\x00@'
tbsS'instance_status'
p4938
g227
(g228
(I0
tS'b'
tRp4939
(I1
(I1
tg223
(S'i8'
I0
I1
tRp4940
(I3
S'<'
NNNI-1
I-1
I0
tbI00
S'\x03\x00\x00\x00\x00\x00\x00\x00'
tbsS'params'
p4941
g237
((lp4942
(lp4943
S'-conv1_depth'
p4944
aS'106.0'
p4945
aa(lp4946
S'-conv2_depth'
p4947
aS'36.0'
p4948
aa(lp4949
S'-fc_depth'
p4950
aS'469.0'
p4951
aa(lp4952
S'-filter_size'
p4953
aS'8.0'
p4954
aatRp4955
sS'result'
p4956
g222
(g224
S'\xf6(\\\x8f\xc2\xf5\x00@'
tRp4957
sS'duration'
p4958
g222
(g224
S't\xb5\x15\xfb\xcb\x96E@'
tRp4959
sS'test_error'
p4960
Fnan
sa(dp4961
S'status'
p4962
I3
sS'std'
p4963
g222
(g224
S'\x00\x00\x00\x00\x00\x00\x00\x00'
tRp4964
sS'instance_durations'
p4965
g227
(g228
(I0
tS'b'
tRp4966
(I1
(I1
tg223
(S'f8'
I0
I1
tRp4967
(I3
S'<'
NNNI-1
I-1
I0
tbI00
S'F\xb6\xf3\xfd\xd4\xb8C@'
tbsS'instance_results'
p4968
g227
(g228
(I0
tS'b'
tRp4969
(I1
(I1
tg4967
I00
S'\xaeG\xe1z\x14nV@'
tbsS'test_error'
p4970
Fnan
sS'params'
p4971
g237
((lp4972
(lp4973
S'-conv1_depth'
p4974
aS'158.0'
p4975
aa(lp4976
S'-conv2_depth'
p4977
aS'2.0'
p4978
aa(lp4979
S'-fc_depth'
p4980
aS'400.0'
p4981
aa(lp4982
S'-filter_size'
p4983
aS'7.0'
p4984
aatRp4985
sS'result'
p4986
g222
(g224
S'\xaeG\xe1z\x14nV@'
tRp4987
sS'duration'
p4988
g222
(g224
S'F\xb6\xf3\xfd\xd4\xb8C@'
tRp4989
sS'instance_status'
p4990
g227
(g228
(I0
tS'b'
tRp4991
(I1
(I1
tg223
(S'i8'
I0
I1
tRp4992
(I3
S'<'
NNNI-1
I-1
I0
tbI00
S'\x03\x00\x00\x00\x00\x00\x00\x00'
tbsa(dp4993
S'status'
p4994
I3
sS'std'
p4995
g222
(g224
S'\x00\x00\x00\x00\x00\x00\x00\x00'
tRp4996
sS'instance_durations'
p4997
g227
(g228
(I0
tS'b'
tRp4998
(I1
(I1
tg223
(S'f8'
I0
I1
tRp4999
(I3
S'<'
NNNI-1
I-1
I0
tbI00
S'\xe0\xbe\x0e\x9c3"U@'
tbsS'instance_results'
p5000
g227
(g228
(I0
tS'b'
tRp5001
(I1
(I1
tg4999
I00
S'\xecQ\xb8\x1e\x85\xeb\xf1?'
tbsS'test_error'
p5002
Fnan
sS'params'
p5003
g237
((lp5004
(lp5005
S'-conv1_depth'
p5006
aS'186.0'
p5007
aa(lp5008
S'-conv2_depth'
p5009
aS'130.0'
p5010
aa(lp5011
S'-fc_depth'
p5012
aS'497.0'
p5013
aa(lp5014
S'-filter_size'
p5015
aS'6.0'
p5016
aatRp5017
sS'result'
p5018
g222
(g224
S'\xecQ\xb8\x1e\x85\xeb\xf1?'
tRp5019
sS'duration'
p5020
g222
(g224
S'\xe0\xbe\x0e\x9c3"U@'
tRp5021
sS'instance_status'
p5022
g227
(g228
(I0
tS'b'
tRp5023
(I1
(I1
tg223
(S'i8'
I0
I1
tRp5024
(I3
S'<'
NNNI-1
I-1
I0
tbI00
S'\x03\x00\x00\x00\x00\x00\x00\x00'
tbsa(dp5025
S'status'
p5026
I3
sS'std'
p5027
g222
(g224
S'\x00\x00\x00\x00\x00\x00\x00\x00'
tRp5028
sS'instance_durations'
p5029
g227
(g228
(I0
tS'b'
tRp5030
(I1
(I1
tg223
(S'f8'
I0
I1
tRp5031
(I3
S'<'
NNNI-1
I-1
I0
tbI00
S'\x8a\xb0\xe1\xe9\x95\xe2V@'
tbsS'instance_results'
p5032
g227
(g228
(I0
tS'b'
tRp5033
(I1
(I1
tg5031
I00
S'\x9a\x99\x99\x99\x99\x99\xf1?'
tbsS'test_error'
p5034
Fnan
sS'params'
p5035
g237
((lp5036
(lp5037
S'-conv1_depth'
p5038
aS'200.0'
p5039
aa(lp5040
S'-conv2_depth'
p5041
aS'146.0'
p5042
aa(lp5043
S'-fc_depth'
p5044
aS'438.0'
p5045
aa(lp5046
S'-filter_size'
p5047
aS'5.0'
p5048
aatRp5049
sS'result'
p5050
g222
(g224
S'\x9a\x99\x99\x99\x99\x99\xf1?'
tRp5051
sS'duration'
p5052
g222
(g224
S'\x8a\xb0\xe1\xe9\x95\xe2V@'
tRp5053
sS'instance_status'
p5054
g227
(g228
(I0
tS'b'
tRp5055
(I1
(I1
tg223
(S'i8'
I0
I1
tRp5056
(I3
S'<'
NNNI-1
I-1
I0
tbI00
S'\x03\x00\x00\x00\x00\x00\x00\x00'
tbsa(dp5057
S'status'
p5058
I3
sS'std'
p5059
g222
(g224
S'\x00\x00\x00\x00\x00\x00\x00\x00'
tRp5060
sS'instance_durations'
p5061
g227
(g228
(I0
tS'b'
tRp5062
(I1
(I1
tg223
(S'f8'
I0
I1
tRp5063
(I3
S'<'
NNNI-1
I-1
I0
tbI00
S'o\x12\x83\xc0\xca\xd1?@'
tbsS'instance_results'
p5064
g227
(g228
(I0
tS'b'
tRp5065
(I1
(I1
tg5063
I00
S'\xa4p=\n\xd7\xa3\xf4?'
tbsS'instance_status'
p5066
g227
(g228
(I0
tS'b'
tRp5067
(I1
(I1
tg223
(S'i8'
I0
I1
tRp5068
(I3
S'<'
NNNI-1
I-1
I0
tbI00
S'\x03\x00\x00\x00\x00\x00\x00\x00'
tbsS'params'
p5069
g237
((lp5070
(lp5071
S'-conv1_depth'
p5072
aS'46.0'
p5073
aa(lp5074
S'-conv2_depth'
p5075
aS'80.0'
p5076
aa(lp5077
S'-fc_depth'
p5078
aS'382.0'
p5079
aa(lp5080
S'-filter_size'
p5081
aS'6.0'
p5082
aatRp5083
sS'result'
p5084
g222
(g224
S'\xa4p=\n\xd7\xa3\xf4?'
tRp5085
sS'duration'
p5086
g222
(g224
S'o\x12\x83\xc0\xca\xd1?@'
tRp5087
sS'test_error'
p5088
Fnan
sa(dp5089
S'status'
p5090
I3
sS'std'
p5091
g222
(g224
S'\x00\x00\x00\x00\x00\x00\x00\x00'
tRp5092
sS'instance_durations'
p5093
g227
(g228
(I0
tS'b'
tRp5094
(I1
(I1
tg223
(S'f8'
I0
I1
tRp5095
(I3
S'<'
NNNI-1
I-1
I0
tbI00
S'Gr\xf9\x0f\xe9\xf7T@'
tbsS'instance_results'
p5096
g227
(g228
(I0
tS'b'
tRp5097
(I1
(I1
tg5095
I00
S'\n\xd7\xa3p=\n\xf3?'
tbsS'test_error'
p5098
Fnan
sS'params'
p5099
g237
((lp5100
(lp5101
S'-conv1_depth'
p5102
aS'222.0'
p5103
aa(lp5104
S'-conv2_depth'
p5105
aS'144.0'
p5106
aa(lp5107
S'-fc_depth'
p5108
aS'334.0'
p5109
aa(lp5110
S'-filter_size'
p5111
aS'4.0'
p5112
aatRp5113
sS'result'
p5114
g222
(g224
S'\n\xd7\xa3p=\n\xf3?'
tRp5115
sS'duration'
p5116
g222
(g224
S'Gr\xf9\x0f\xe9\xf7T@'
tRp5117
sS'instance_status'
p5118
g227
(g228
(I0
tS'b'
tRp5119
(I1
(I1
tg223
(S'i8'
I0
I1
tRp5120
(I3
S'<'
NNNI-1
I-1
I0
tbI00
S'\x03\x00\x00\x00\x00\x00\x00\x00'
tbsa(dp5121
S'status'
p5122
I3
sS'std'
p5123
g222
(g224
S'\x00\x00\x00\x00\x00\x00\x00\x00'
tRp5124
sS'instance_durations'
p5125
g227
(g228
(I0
tS'b'
tRp5126
(I1
(I1
tg223
(S'f8'
I0
I1
tRp5127
(I3
S'<'
NNNI-1
I-1
I0
tbI00
S'\x0c\x02+\x87\x16Q]@'
tbsS'instance_results'
p5128
g227
(g228
(I0
tS'b'
tRp5129
(I1
(I1
tg5127
I00
S'{\x14\xaeG\xe1z\xf4?'
tbsS'instance_status'
p5130
g227
(g228
(I0
tS'b'
tRp5131
(I1
(I1
tg223
(S'i8'
I0
I1
tRp5132
(I3
S'<'
NNNI-1
I-1
I0
tbI00
S'\x03\x00\x00\x00\x00\x00\x00\x00'
tbsS'params'
p5133
g237
((lp5134
(lp5135
S'-conv1_depth'
p5136
aS'204.0'
p5137
aa(lp5138
S'-conv2_depth'
p5139
aS'228.0'
p5140
aa(lp5141
S'-fc_depth'
p5142
aS'442.0'
p5143
aa(lp5144
S'-filter_size'
p5145
aS'5.0'
p5146
aatRp5147
sS'result'
p5148
g222
(g224
S'{\x14\xaeG\xe1z\xf4?'
tRp5149
sS'duration'
p5150
g222
(g224
S'\x0c\x02+\x87\x16Q]@'
tRp5151
sS'test_error'
p5152
Fnan
sa(dp5153
S'status'
p5154
I3
sS'std'
p5155
g222
(g224
S'\x00\x00\x00\x00\x00\x00\x00\x00'
tRp5156
sS'instance_durations'
p5157
g227
(g228
(I0
tS'b'
tRp5158
(I1
(I1
tg223
(S'f8'
I0
I1
tRp5159
(I3
S'<'
NNNI-1
I-1
I0
tbI00
S'9\xd6\xc5m4\xacP@'
tbsS'instance_results'
p5160
g227
(g228
(I0
tS'b'
tRp5161
(I1
(I1
tg5159
I00
S'333333\xf3?'
tbsS'test_error'
p5162
Fnan
sS'params'
p5163
g237
((lp5164
(lp5165
S'-conv1_depth'
p5166
aS'256.0'
p5167
aa(lp5168
S'-conv2_depth'
p5169
aS'118.0'
p5170
aa(lp5171
S'-fc_depth'
p5172
aS'464.0'
p5173
aa(lp5174
S'-filter_size'
p5175
aS'3.0'
p5176
aatRp5177
sS'result'
p5178
g222
(g224
S'333333\xf3?'
tRp5179
sS'duration'
p5180
g222
(g224
S'9\xd6\xc5m4\xacP@'
tRp5181
sS'instance_status'
p5182
g227
(g228
(I0
tS'b'
tRp5183
(I1
(I1
tg223
(S'i8'
I0
I1
tRp5184
(I3
S'<'
NNNI-1
I-1
I0
tbI00
S'\x03\x00\x00\x00\x00\x00\x00\x00'
tbsa(dp5185
S'status'
p5186
I3
sS'std'
p5187
g222
(g224
S'\x00\x00\x00\x00\x00\x00\x00\x00'
tRp5188
sS'instance_durations'
p5189
g227
(g228
(I0
tS'b'
tRp5190
(I1
(I1
tg223
(S'f8'
I0
I1
tRp5191
(I3
S'<'
NNNI-1
I-1
I0
tbI00
S'P\x8d\x97n\x12\xcb[@'
tbsS'instance_results'
p5192
g227
(g228
(I0
tS'b'
tRp5193
(I1
(I1
tg5191
I00
S')\\\x8f\xc2\xf5(\xf8?'
tbsS'instance_status'
p5194
g227
(g228
(I0
tS'b'
tRp5195
(I1
(I1
tg223
(S'i8'
I0
I1
tRp5196
(I3
S'<'
NNNI-1
I-1
I0
tbI00
S'\x03\x00\x00\x00\x00\x00\x00\x00'
tbsS'params'
p5197
g237
((lp5198
(lp5199
S'-conv1_depth'
p5200
aS'238.0'
p5201
aa(lp5202
S'-conv2_depth'
p5203
aS'176.0'
p5204
aa(lp5205
S'-fc_depth'
p5206
aS'417.0'
p5207
aa(lp5208
S'-filter_size'
p5209
aS'5.0'
p5210
aatRp5211
sS'result'
p5212
g222
(g224
S')\\\x8f\xc2\xf5(\xf8?'
tRp5213
sS'duration'
p5214
g222
(g224
S'P\x8d\x97n\x12\xcb[@'
tRp5215
sS'test_error'
p5216
Fnan
sa(dp5217
S'status'
p5218
I3
sS'std'
p5219
g222
(g224
S'\x00\x00\x00\x00\x00\x00\x00\x00'
tRp5220
sS'instance_durations'
p5221
g227
(g228
(I0
tS'b'
tRp5222
(I1
(I1
tg223
(S'f8'
I0
I1
tRp5223
(I3
S'<'
NNNI-1
I-1
I0
tbI00
S"'\xa0\x89\xb0\xe1\x81M@"
tbsS'instance_results'
p5224
g227
(g228
(I0
tS'b'
tRp5225
(I1
(I1
tg5223
I00
S'\x14\xaeG\xe1z\x14\xf2?'
tbsS'test_error'
p5226
Fnan
sS'params'
p5227
g237
((lp5228
(lp5229
S'-conv1_depth'
p5230
aS'128.0'
p5231
aa(lp5232
S'-conv2_depth'
p5233
aS'102.0'
p5234
aa(lp5235
S'-fc_depth'
p5236
aS'365.0'
p5237
aa(lp5238
S'-filter_size'
p5239
aS'7.0'
p5240
aatRp5241
sS'result'
p5242
g222
(g224
S'\x14\xaeG\xe1z\x14\xf2?'
tRp5243
sS'duration'
p5244
g222
(g224
S"'\xa0\x89\xb0\xe1\x81M@"
tRp5245
sS'instance_status'
p5246
g227
(g228
(I0
tS'b'
tRp5247
(I1
(I1
tg223
(S'i8'
I0
I1
tRp5248
(I3
S'<'
NNNI-1
I-1
I0
tbI00
S'\x03\x00\x00\x00\x00\x00\x00\x00'
tbsa(dp5249
S'status'
p5250
I3
sS'std'
p5251
g222
(g224
S'\x00\x00\x00\x00\x00\x00\x00\x00'
tRp5252
sS'instance_durations'
p5253
g227
(g228
(I0
tS'b'
tRp5254
(I1
(I1
tg223
(S'f8'
I0
I1
tRp5255
(I3
S'<'
NNNI-1
I-1
I0
tbI00
S'\x82sF\x94\xf6vT@'
tbsS'instance_results'
p5256
g227
(g228
(I0
tS'b'
tRp5257
(I1
(I1
tg5255
I00
S'\n\xd7\xa3p=\n\xf3?'
tbsS'test_error'
p5258
Fnan
sS'params'
p5259
g237
((lp5260
(lp5261
S'-conv1_depth'
p5262
aS'298.0'
p5263
aa(lp5264
S'-conv2_depth'
p5265
aS'146.0'
p5266
aa(lp5267
S'-fc_depth'
p5268
aS'512.0'
p5269
aa(lp5270
S'-filter_size'
p5271
aS'3.0'
p5272
aatRp5273
sS'result'
p5274
g222
(g224
S'\n\xd7\xa3p=\n\xf3?'
tRp5275
sS'duration'
p5276
g222
(g224
S'\x82sF\x94\xf6vT@'
tRp5277
sS'instance_status'
p5278
g227
(g228
(I0
tS'b'
tRp5279
(I1
(I1
tg223
(S'i8'
I0
I1
tRp5280
(I3
S'<'
NNNI-1
I-1
I0
tbI00
S'\x03\x00\x00\x00\x00\x00\x00\x00'
tbsa(dp5281
S'status'
p5282
I3
sS'std'
p5283
g222
(g224
S'\x00\x00\x00\x00\x00\x00\x00\x00'
tRp5284
sS'instance_durations'
p5285
g227
(g228
(I0
tS'b'
tRp5286
(I1
(I1
tg223
(S'f8'
I0
I1
tRp5287
(I3
S'<'
NNNI-1
I-1
I0
tbI00
S'\x96!\x8euq\x1b4@'
tbsS'instance_results'
p5288
g227
(g228
(I0
tS'b'
tRp5289
(I1
(I1
tg5287
I00
S'\xcd\xcc\xcc\xcc\xcc\xcc\xf4?'
tbsS'instance_status'
p5290
g227
(g228
(I0
tS'b'
tRp5291
(I1
(I1
tg223
(S'i8'
I0
I1
tRp5292
(I3
S'<'
NNNI-1
I-1
I0
tbI00
S'\x03\x00\x00\x00\x00\x00\x00\x00'
tbsS'params'
p5293
g237
((lp5294
(lp5295
S'-conv1_depth'
p5296
aS'16.0'
p5297
aa(lp5298
S'-conv2_depth'
p5299
aS'48.0'
p5300
aa(lp5301
S'-fc_depth'
p5302
aS'389.0'
p5303
aa(lp5304
S'-filter_size'
p5305
aS'8.0'
p5306
aatRp5307
sS'result'
p5308
g222
(g224
S'\xcd\xcc\xcc\xcc\xcc\xcc\xf4?'
tRp5309
sS'duration'
p5310
g222
(g224
S'\x96!\x8euq\x1b4@'
tRp5311
sS'test_error'
p5312
Fnan
sa(dp5313
S'status'
p5314
I3
sS'std'
p5315
g222
(g224
S'\x00\x00\x00\x00\x00\x00\x00\x00'
tRp5316
sS'instance_durations'
p5317
g227
(g228
(I0
tS'b'
tRp5318
(I1
(I1
tg223
(S'f8'
I0
I1
tRp5319
(I3
S'<'
NNNI-1
I-1
I0
tbI00
S'\xc19#J{;X@'
tbsS'instance_results'
p5320
g227
(g228
(I0
tS'b'
tRp5321
(I1
(I1
tg5319
I00
S'R\xb8\x1e\x85\xebQ\x00@'
tbsS'instance_status'
p5322
g227
(g228
(I0
tS'b'
tRp5323
(I1
(I1
tg223
(S'i8'
I0
I1
tRp5324
(I3
S'<'
NNNI-1
I-1
I0
tbI00
S'\x03\x00\x00\x00\x00\x00\x00\x00'
tbsS'params'
p5325
g237
((lp5326
(lp5327
S'-conv1_depth'
p5328
aS'140.0'
p5329
aa(lp5330
S'-conv2_depth'
p5331
aS'194.0'
p5332
aa(lp5333
S'-fc_depth'
p5334
aS'409.0'
p5335
aa(lp5336
S'-filter_size'
p5337
aS'10.0'
p5338
aatRp5339
sS'result'
p5340
g222
(g224
S'R\xb8\x1e\x85\xebQ\x00@'
tRp5341
sS'duration'
p5342
g222
(g224
S'\xc19#J{;X@'
tRp5343
sS'test_error'
p5344
Fnan
sa(dp5345
S'status'
p5346
I3
sS'std'
p5347
g222
(g224
S'\x00\x00\x00\x00\x00\x00\x00\x00'
tRp5348
sS'instance_durations'
p5349
g227
(g228
(I0
tS'b'
tRp5350
(I1
(I1
tg223
(S'f8'
I0
I1
tRp5351
(I3
S'<'
NNNI-1
I-1
I0
tbI00
S'#J{\x83/\xacC@'
tbsS'instance_results'
p5352
g227
(g228
(I0
tS'b'
tRp5353
(I1
(I1
tg5351
I00
S'\x1f\x85\xebQ\xb8\x1e\xf1?'
tbsS'instance_status'
p5354
g227
(g228
(I0
tS'b'
tRp5355
(I1
(I1
tg223
(S'i8'
I0
I1
tRp5356
(I3
S'<'
NNNI-1
I-1
I0
tbI00
S'\x03\x00\x00\x00\x00\x00\x00\x00'
tbsS'params'
p5357
g237
((lp5358
(lp5359
S'-conv1_depth'
p5360
aS'74.0'
p5361
aa(lp5362
S'-conv2_depth'
p5363
aS'68.0'
p5364
aa(lp5365
S'-fc_depth'
p5366
aS'479.0'
p5367
aa(lp5368
S'-filter_size'
p5369
aS'9.0'
p5370
aatRp5371
sS'result'
p5372
g222
(g224
S'\x1f\x85\xebQ\xb8\x1e\xf1?'
tRp5373
sS'duration'
p5374
g222
(g224
S'#J{\x83/\xacC@'
tRp5375
sS'test_error'
p5376
Fnan
sa(dp5377
S'status'
p5378
I3
sS'std'
p5379
g222
(g224
S'\x00\x00\x00\x00\x00\x00\x00\x00'
tRp5380
sS'instance_durations'
p5381
g227
(g228
(I0
tS'b'
tRp5382
(I1
(I1
tg223
(S'f8'
I0
I1
tRp5383
(I3
S'<'
NNNI-1
I-1
I0
tbI00
S'\x17HP\xfc\x18s@@'
tbsS'instance_results'
p5384
g227
(g228
(I0
tS'b'
tRp5385
(I1
(I1
tg5383
I00
S'\xaeG\xe1z\x14nV@'
tbsS'test_error'
p5386
Fnan
sS'params'
p5387
g237
((lp5388
(lp5389
S'-conv1_depth'
p5390
aS'76.0'
p5391
aa(lp5392
S'-conv2_depth'
p5393
aS'22.0'
p5394
aa(lp5395
S'-fc_depth'
p5396
aS'476.0'
p5397
aa(lp5398
S'-filter_size'
p5399
aS'11.0'
p5400
aatRp5401
sS'result'
p5402
g222
(g224
S'\xaeG\xe1z\x14nV@'
tRp5403
sS'duration'
p5404
g222
(g224
S'\x17HP\xfc\x18s@@'
tRp5405
sS'instance_status'
p5406
g227
(g228
(I0
tS'b'
tRp5407
(I1
(I1
tg223
(S'i8'
I0
I1
tRp5408
(I3
S'<'
NNNI-1
I-1
I0
tbI00
S'\x03\x00\x00\x00\x00\x00\x00\x00'
tbsa(dp5409
S'status'
p5410
I3
sS'std'
p5411
g222
(g224
S'\x00\x00\x00\x00\x00\x00\x00\x00'
tRp5412
sS'instance_durations'
p5413
g227
(g228
(I0
tS'b'
tRp5414
(I1
(I1
tg223
(S'f8'
I0
I1
tRp5415
(I3
S'<'
NNNI-1
I-1
I0
tbI00
S'\x1e\x16jM\xf3\x06G@'
tbsS'instance_results'
p5416
g227
(g228
(I0
tS'b'
tRp5417
(I1
(I1
tg5415
I00
S'\xaeG\xe1z\x14nV@'
tbsS'test_error'
p5418
Fnan
sS'params'
p5419
g237
((lp5420
(lp5421
S'-conv1_depth'
p5422
aS'90.0'
p5423
aa(lp5424
S'-conv2_depth'
p5425
aS'74.0'
p5426
aa(lp5427
S'-fc_depth'
p5428
aS'491.0'
p5429
aa(lp5430
S'-filter_size'
p5431
aS'11.0'
p5432
aatRp5433
sS'result'
p5434
g222
(g224
S'\xaeG\xe1z\x14nV@'
tRp5435
sS'duration'
p5436
g222
(g224
S'\x1e\x16jM\xf3\x06G@'
tRp5437
sS'instance_status'
p5438
g227
(g228
(I0
tS'b'
tRp5439
(I1
(I1
tg223
(S'i8'
I0
I1
tRp5440
(I3
S'<'
NNNI-1
I-1
I0
tbI00
S'\x03\x00\x00\x00\x00\x00\x00\x00'
tbsa(dp5441
S'status'
p5442
I3
sS'std'
p5443
g222
(g224
S'\x00\x00\x00\x00\x00\x00\x00\x00'
tRp5444
sS'instance_durations'
p5445
g227
(g228
(I0
tS'b'
tRp5446
(I1
(I1
tg223
(S'f8'
I0
I1
tRp5447
(I3
S'<'
NNNI-1
I-1
I0
tbI00
S'U\xc1\xa8\xa4N ?@'
tbsS'instance_results'
p5448
g227
(g228
(I0
tS'b'
tRp5449
(I1
(I1
tg5447
I00
S'\xc3\xf5(\\\x8f\xc2\xfd?'
tbsS'test_error'
p5450
Fnan
sS'params'
p5451
g237
((lp5452
(lp5453
S'-conv1_depth'
p5454
aS'30.0'
p5455
aa(lp5456
S'-conv2_depth'
p5457
aS'62.0'
p5458
aa(lp5459
S'-fc_depth'
p5460
aS'502.0'
p5461
aa(lp5462
S'-filter_size'
p5463
aS'12.0'
p5464
aatRp5465
sS'result'
p5466
g222
(g224
S'\xc3\xf5(\\\x8f\xc2\xfd?'
tRp5467
sS'duration'
p5468
g222
(g224
S'U\xc1\xa8\xa4N ?@'
tRp5469
sS'instance_status'
p5470
g227
(g228
(I0
tS'b'
tRp5471
(I1
(I1
tg223
(S'i8'
I0
I1
tRp5472
(I3
S'<'
NNNI-1
I-1
I0
tbI00
S'\x03\x00\x00\x00\x00\x00\x00\x00'
tbsa(dp5473
S'status'
p5474
I3
sS'std'
p5475
g222
(g224
S'\x00\x00\x00\x00\x00\x00\x00\x00'
tRp5476
sS'instance_durations'
p5477
g227
(g228
(I0
tS'b'
tRp5478
(I1
(I1
tg223
(S'f8'
I0
I1
tRp5479
(I3
S'<'
NNNI-1
I-1
I0
tbI00
S'\xd9\xce\xf7S\xe3e=@'
tbsS'instance_results'
p5480
g227
(g228
(I0
tS'b'
tRp5481
(I1
(I1
tg5479
I00
S'q=\n\xd7\xa3p\xf5?'
tbsS'test_error'
p5482
Fnan
sS'params'
p5483
g237
((lp5484
(lp5485
S'-conv1_depth'
p5486
aS'62.0'
p5487
aa(lp5488
S'-conv2_depth'
p5489
aS'34.0'
p5490
aa(lp5491
S'-fc_depth'
p5492
aS'451.0'
p5493
aa(lp5494
S'-filter_size'
p5495
aS'9.0'
p5496
aatRp5497
sS'result'
p5498
g222
(g224
S'q=\n\xd7\xa3p\xf5?'
tRp5499
sS'duration'
p5500
g222
(g224
S'\xd9\xce\xf7S\xe3e=@'
tRp5501
sS'instance_status'
p5502
g227
(g228
(I0
tS'b'
tRp5503
(I1
(I1
tg223
(S'i8'
I0
I1
tRp5504
(I3
S'<'
NNNI-1
I-1
I0
tbI00
S'\x03\x00\x00\x00\x00\x00\x00\x00'
tbsa(dp5505
S'status'
p5506
I3
sS'std'
p5507
g222
(g224
S'\x00\x00\x00\x00\x00\x00\x00\x00'
tRp5508
sS'instance_durations'
p5509
g227
(g228
(I0
tS'b'
tRp5510
(I1
(I1
tg223
(S'f8'
I0
I1
tRp5511
(I3
S'<'
NNNI-1
I-1
I0
tbI00
S'!\xb0rh\x91\x8dM@'
tbsS'instance_results'
p5512
g227
(g228
(I0
tS'b'
tRp5513
(I1
(I1
tg5511
I00
S'\x00\x00\x00\x00\x00\x00\x00@'
tbsS'test_error'
p5514
Fnan
sS'params'
p5515
g237
((lp5516
(lp5517
S'-conv1_depth'
p5518
aS'102.0'
p5519
aa(lp5520
S'-conv2_depth'
p5521
aS'92.0'
p5522
aa(lp5523
S'-fc_depth'
p5524
aS'510.0'
p5525
aa(lp5526
S'-filter_size'
p5527
aS'9.0'
p5528
aatRp5529
sS'result'
p5530
g222
(g224
S'\x00\x00\x00\x00\x00\x00\x00@'
tRp5531
sS'duration'
p5532
g222
(g224
S'!\xb0rh\x91\x8dM@'
tRp5533
sS'instance_status'
p5534
g227
(g228
(I0
tS'b'
tRp5535
(I1
(I1
tg223
(S'i8'
I0
I1
tRp5536
(I3
S'<'
NNNI-1
I-1
I0
tbI00
S'\x03\x00\x00\x00\x00\x00\x00\x00'
tbsa(dp5537
S'status'
p5538
I3
sS'std'
p5539
g222
(g224
S'\x00\x00\x00\x00\x00\x00\x00\x00'
tRp5540
sS'instance_durations'
p5541
g227
(g228
(I0
tS'b'
tRp5542
(I1
(I1
tg223
(S'f8'
I0
I1
tRp5543
(I3
S'<'
NNNI-1
I-1
I0
tbI00
S'\xee\xeb\xc09#\xfaG@'
tbsS'instance_results'
p5544
g227
(g228
(I0
tS'b'
tRp5545
(I1
(I1
tg5543
I00
S'\xaeG\xe1z\x14nV@'
tbsS'instance_status'
p5546
g227
(g228
(I0
tS'b'
tRp5547
(I1
(I1
tg223
(S'i8'
I0
I1
tRp5548
(I3
S'<'
NNNI-1
I-1
I0
tbI00
S'\x03\x00\x00\x00\x00\x00\x00\x00'
tbsS'params'
p5549
g237
((lp5550
(lp5551
S'-conv1_depth'
p5552
aS'178.0'
p5553
aa(lp5554
S'-conv2_depth'
p5555
aS'2.0'
p5556
aa(lp5557
S'-fc_depth'
p5558
aS'460.0'
p5559
aa(lp5560
S'-filter_size'
p5561
aS'10.0'
p5562
aatRp5563
sS'result'
p5564
g222
(g224
S'\xaeG\xe1z\x14nV@'
tRp5565
sS'duration'
p5566
g222
(g224
S'\xee\xeb\xc09#\xfaG@'
tRp5567
sS'test_error'
p5568
Fnan
sa(dp5569
S'status'
p5570
I3
sS'std'
p5571
g222
(g224
S'\x00\x00\x00\x00\x00\x00\x00\x00'
tRp5572
sS'instance_durations'
p5573
g227
(g228
(I0
tS'b'
tRp5574
(I1
(I1
tg223
(S'f8'
I0
I1
tRp5575
(I3
S'<'
NNNI-1
I-1
I0
tbI00
S'\xb0rh\x91\xed\x90U@'
tbsS'instance_results'
p5576
g227
(g228
(I0
tS'b'
tRp5577
(I1
(I1
tg5575
I00
S'\xaeG\xe1z\x14nV@'
tbsS'test_error'
p5578
Fnan
sS'params'
p5579
g237
((lp5580
(lp5581
S'-conv1_depth'
p5582
aS'166.0'
p5583
aa(lp5584
S'-conv2_depth'
p5585
aS'106.0'
p5586
aa(lp5587
S'-fc_depth'
p5588
aS'103.0'
p5589
aa(lp5590
S'-filter_size'
p5591
aS'13.0'
p5592
aatRp5593
sS'result'
p5594
g222
(g224
S'\xaeG\xe1z\x14nV@'
tRp5595
sS'duration'
p5596
g222
(g224
S'\xb0rh\x91\xed\x90U@'
tRp5597
sS'instance_status'
p5598
g227
(g228
(I0
tS'b'
tRp5599
(I1
(I1
tg223
(S'i8'
I0
I1
tRp5600
(I3
S'<'
NNNI-1
I-1
I0
tbI00
S'\x03\x00\x00\x00\x00\x00\x00\x00'
tbsa(dp5601
S'status'
p5602
I3
sS'std'
p5603
g222
(g224
S'\x00\x00\x00\x00\x00\x00\x00\x00'
tRp5604
sS'instance_durations'
p5605
g227
(g228
(I0
tS'b'
tRp5606
(I1
(I1
tg223
(S'f8'
I0
I1
tRp5607
(I3
S'<'
NNNI-1
I-1
I0
tbI00
S'\xbdR\x96!\x8e\xf5G@'
tbsS'instance_results'
p5608
g227
(g228
(I0
tS'b'
tRp5609
(I1
(I1
tg5607
I00
S'\xaeG\xe1z\x14nV@'
tbsS'test_error'
p5610
Fnan
sS'params'
p5611
g237
((lp5612
(lp5613
S'-conv1_depth'
p5614
aS'114.0'
p5615
aa(lp5616
S'-conv2_depth'
p5617
aS'54.0'
p5618
aa(lp5619
S'-fc_depth'
p5620
aS'487.0'
p5621
aa(lp5622
S'-filter_size'
p5623
aS'10.0'
p5624
aatRp5625
sS'result'
p5626
g222
(g224
S'\xaeG\xe1z\x14nV@'
tRp5627
sS'duration'
p5628
g222
(g224
S'\xbdR\x96!\x8e\xf5G@'
tRp5629
sS'instance_status'
p5630
g227
(g228
(I0
tS'b'
tRp5631
(I1
(I1
tg223
(S'i8'
I0
I1
tRp5632
(I3
S'<'
NNNI-1
I-1
I0
tbI00
S'\x03\x00\x00\x00\x00\x00\x00\x00'
tbsa(dp5633
S'status'
p5634
I3
sS'std'
p5635
g222
(g224
S'\x00\x00\x00\x00\x00\x00\x00\x00'
tRp5636
sS'instance_durations'
p5637
g227
(g228
(I0
tS'b'
tRp5638
(I1
(I1
tg223
(S'f8'
I0
I1
tRp5639
(I3
S'<'
NNNI-1
I-1
I0
tbI00
S'\x9c\xa2#\xb9\xfc\x07C@'
tbsS'instance_results'
p5640
g227
(g228
(I0
tS'b'
tRp5641
(I1
(I1
tg5639
I00
S'=\n\xd7\xa3p=\xf6?'
tbsS'instance_status'
p5642
g227
(g228
(I0
tS'b'
tRp5643
(I1
(I1
tg223
(S'i8'
I0
I1
tRp5644
(I3
S'<'
NNNI-1
I-1
I0
tbI00
S'\x03\x00\x00\x00\x00\x00\x00\x00'
tbsS'params'
p5645
g237
((lp5646
(lp5647
S'-conv1_depth'
p5648
aS'42.0'
p5649
aa(lp5650
S'-conv2_depth'
p5651
aS'120.0'
p5652
aa(lp5653
S'-fc_depth'
p5654
aS'400.0'
p5655
aa(lp5656
S'-filter_size'
p5657
aS'8.0'
p5658
aatRp5659
sS'result'
p5660
g222
(g224
S'=\n\xd7\xa3p=\xf6?'
tRp5661
sS'duration'
p5662
g222
(g224
S'\x9c\xa2#\xb9\xfc\x07C@'
tRp5663
sS'test_error'
p5664
Fnan
sa(dp5665
S'status'
p5666
I3
sS'std'
p5667
g222
(g224
S'\x00\x00\x00\x00\x00\x00\x00\x00'
tRp5668
sS'instance_durations'
p5669
g227
(g228
(I0
tS'b'
tRp5670
(I1
(I1
tg223
(S'f8'
I0
I1
tRp5671
(I3
S'<'
NNNI-1
I-1
I0
tbI00
S'\x1a\xc0[ AaG@'
tbsS'instance_results'
p5672
g227
(g228
(I0
tS'b'
tRp5673
(I1
(I1
tg5671
I00
S'\xa4p=\n\xd7\xa3\x02@'
tbsS'test_error'
p5674
Fnan
sS'params'
p5675
g237
((lp5676
(lp5677
S'-conv1_depth'
p5678
aS'154.0'
p5679
aa(lp5680
S'-conv2_depth'
p5681
aS'18.0'
p5682
aa(lp5683
S'-fc_depth'
p5684
aS'303.0'
p5685
aa(lp5686
S'-filter_size'
p5687
aS'9.0'
p5688
aatRp5689
sS'result'
p5690
g222
(g224
S'\xa4p=\n\xd7\xa3\x02@'
tRp5691
sS'duration'
p5692
g222
(g224
S'\x1a\xc0[ AaG@'
tRp5693
sS'instance_status'
p5694
g227
(g228
(I0
tS'b'
tRp5695
(I1
(I1
tg223
(S'i8'
I0
I1
tRp5696
(I3
S'<'
NNNI-1
I-1
I0
tbI00
S'\x03\x00\x00\x00\x00\x00\x00\x00'
tbsa(dp5697
S'status'
p5698
I3
sS'std'
p5699
g222
(g224
S'\x00\x00\x00\x00\x00\x00\x00\x00'
tRp5700
sS'instance_durations'
p5701
g227
(g228
(I0
tS'b'
tRp5702
(I1
(I1
tg223
(S'f8'
I0
I1
tRp5703
(I3
S'<'
NNNI-1
I-1
I0
tbI00
S'\xd5x\xe9&1\x08@@'
tbsS'instance_results'
p5704
g227
(g228
(I0
tS'b'
tRp5705
(I1
(I1
tg5703
I00
S'\xecQ\xb8\x1e\x85\xeb\x1d@'
tbsS'test_error'
p5706
Fnan
sS'params'
p5707
g237
((lp5708
(lp5709
S'-conv1_depth'
p5710
aS'78.0'
p5711
aa(lp5712
S'-conv2_depth'
p5713
aS'182.0'
p5714
aa(lp5715
S'-fc_depth'
p5716
aS'282.0'
p5717
aa(lp5718
S'-filter_size'
p5719
aS'1.0'
p5720
aatRp5721
sS'result'
p5722
g222
(g224
S'\xecQ\xb8\x1e\x85\xeb\x1d@'
tRp5723
sS'duration'
p5724
g222
(g224
S'\xd5x\xe9&1\x08@@'
tRp5725
sS'instance_status'
p5726
g227
(g228
(I0
tS'b'
tRp5727
(I1
(I1
tg223
(S'i8'
I0
I1
tRp5728
(I3
S'<'
NNNI-1
I-1
I0
tbI00
S'\x03\x00\x00\x00\x00\x00\x00\x00'
tbsa(dp5729
S'status'
p5730
I3
sS'std'
p5731
g222
(g224
S'\x00\x00\x00\x00\x00\x00\x00\x00'
tRp5732
sS'instance_durations'
p5733
g227
(g228
(I0
tS'b'
tRp5734
(I1
(I1
tg223
(S'f8'
I0
I1
tRp5735
(I3
S'<'
NNNI-1
I-1
I0
tbI00
S'"\xfd\xf6u\xe0\x9c6@'
tbsS'instance_results'
p5736
g227
(g228
(I0
tS'b'
tRp5737
(I1
(I1
tg5735
I00
S'=\n\xd7\xa3p=\x02@'
tbsS'instance_status'
p5738
g227
(g228
(I0
tS'b'
tRp5739
(I1
(I1
tg223
(S'i8'
I0
I1
tRp5740
(I3
S'<'
NNNI-1
I-1
I0
tbI00
S'\x03\x00\x00\x00\x00\x00\x00\x00'
tbsS'params'
p5741
g237
((lp5742
(lp5743
S'-conv1_depth'
p5744
aS'2.0'
p5745
aa(lp5746
S'-conv2_depth'
p5747
aS'84.0'
p5748
aa(lp5749
S'-fc_depth'
p5750
aS'426.0'
p5751
aa(lp5752
S'-filter_size'
p5753
aS'14.0'
p5754
aatRp5755
sS'result'
p5756
g222
(g224
S'=\n\xd7\xa3p=\x02@'
tRp5757
sS'duration'
p5758
g222
(g224
S'"\xfd\xf6u\xe0\x9c6@'
tRp5759
sS'test_error'
p5760
Fnan
sa(dp5761
S'status'
p5762
I3
sS'std'
p5763
g222
(g224
S'\x00\x00\x00\x00\x00\x00\x00\x00'
tRp5764
sS'instance_durations'
p5765
g227
(g228
(I0
tS'b'
tRp5766
(I1
(I1
tg223
(S'f8'
I0
I1
tRp5767
(I3
S'<'
NNNI-1
I-1
I0
tbI00
S'\xdb\xf9~j\xbc:q@'
tbsS'instance_results'
p5768
g227
(g228
(I0
tS'b'
tRp5769
(I1
(I1
tg5767
I00
S'\xaeG\xe1z\x14nV@'
tbsS'instance_status'
p5770
g227
(g228
(I0
tS'b'
tRp5771
(I1
(I1
tg223
(S'i8'
I0
I1
tRp5772
(I3
S'<'
NNNI-1
I-1
I0
tbI00
S'\x03\x00\x00\x00\x00\x00\x00\x00'
tbsS'params'
p5773
g237
((lp5774
(lp5775
S'-conv1_depth'
p5776
aS'462.0'
p5777
aa(lp5778
S'-conv2_depth'
p5779
aS'132.0'
p5780
aa(lp5781
S'-fc_depth'
p5782
aS'313.0'
p5783
aa(lp5784
S'-filter_size'
p5785
aS'12.0'
p5786
aatRp5787
sS'result'
p5788
g222
(g224
S'\xaeG\xe1z\x14nV@'
tRp5789
sS'duration'
p5790
g222
(g224
S'\xdb\xf9~j\xbc:q@'
tRp5791
sS'test_error'
p5792
Fnan
sa(dp5793
S'status'
p5794
I3
sS'std'
p5795
g222
(g224
S'\x00\x00\x00\x00\x00\x00\x00\x00'
tRp5796
sS'instance_durations'
p5797
g227
(g228
(I0
tS'b'
tRp5798
(I1
(I1
tg223
(S'f8'
I0
I1
tRp5799
(I3
S'<'
NNNI-1
I-1
I0
tbI00
S'\xb2\x9d\xef\xa7\xc6\x8bO@'
tbsS'instance_results'
p5800
g227
(g228
(I0
tS'b'
tRp5801
(I1
(I1
tg5799
I00
S'\xb8\x1e\x85\xebQ\xb8\xfa?'
tbsS'instance_status'
p5802
g227
(g228
(I0
tS'b'
tRp5803
(I1
(I1
tg223
(S'i8'
I0
I1
tRp5804
(I3
S'<'
NNNI-1
I-1
I0
tbI00
S'\x03\x00\x00\x00\x00\x00\x00\x00'
tbsS'params'
p5805
g237
((lp5806
(lp5807
S'-conv1_depth'
p5808
aS'216.0'
p5809
aa(lp5810
S'-conv2_depth'
p5811
aS'166.0'
p5812
aa(lp5813
S'-fc_depth'
p5814
aS'373.0'
p5815
aa(lp5816
S'-filter_size'
p5817
aS'2.0'
p5818
aatRp5819
sS'result'
p5820
g222
(g224
S'\xb8\x1e\x85\xebQ\xb8\xfa?'
tRp5821
sS'duration'
p5822
g222
(g224
S'\xb2\x9d\xef\xa7\xc6\x8bO@'
tRp5823
sS'test_error'
p5824
Fnan
sa(dp5825
S'status'
p5826
I3
sS'std'
p5827
g222
(g224
S'\x00\x00\x00\x00\x00\x00\x00\x00'
tRp5828
sS'instance_durations'
p5829
g227
(g228
(I0
tS'b'
tRp5830
(I1
(I1
tg223
(S'f8'
I0
I1
tRp5831
(I3
S'<'
NNNI-1
I-1
I0
tbI00
S'\xf9\x0f\xe9\xb7\xaf?P@'
tbsS'instance_results'
p5832
g227
(g228
(I0
tS'b'
tRp5833
(I1
(I1
tg5831
I00
S'\xaeG\xe1z\x14nV@'
tbsS'instance_status'
p5834
g227
(g228
(I0
tS'b'
tRp5835
(I1
(I1
tg223
(S'i8'
I0
I1
tRp5836
(I3
S'<'
NNNI-1
I-1
I0
tbI00
S'\x03\x00\x00\x00\x00\x00\x00\x00'
tbsS'params'
p5837
g237
((lp5838
(lp5839
S'-conv1_depth'
p5840
aS'134.0'
p5841
aa(lp5842
S'-conv2_depth'
p5843
aS'66.0'
p5844
aa(lp5845
S'-fc_depth'
p5846
aS'437.0'
p5847
aa(lp5848
S'-filter_size'
p5849
aS'13.0'
p5850
aatRp5851
sS'result'
p5852
g222
(g224
S'\xaeG\xe1z\x14nV@'
tRp5853
sS'duration'
p5854
g222
(g224
S'\xf9\x0f\xe9\xb7\xaf?P@'
tRp5855
sS'test_error'
p5856
Fnan
sa(dp5857
S'status'
p5858
I3
sS'std'
p5859
g222
(g224
S'\x00\x00\x00\x00\x00\x00\x00\x00'
tRp5860
sS'instance_durations'
p5861
g227
(g228
(I0
tS'b'
tRp5862
(I1
(I1
tg223
(S'f8'
I0
I1
tRp5863
(I3
S'<'
NNNI-1
I-1
I0
tbI00
S'\x99\xbb\x96\x90\x0f\xaaE@'
tbsS'instance_results'
p5864
g227
(g228
(I0
tS'b'
tRp5865
(I1
(I1
tg5863
I00
S'333333\xf3?'
tbsS'test_error'
p5866
Fnan
sS'params'
p5867
g237
((lp5868
(lp5869
S'-conv1_depth'
p5870
aS'32.0'
p5871
aa(lp5872
S'-conv2_depth'
p5873
aS'248.0'
p5874
aa(lp5875
S'-fc_depth'
p5876
aS'481.0'
p5877
aa(lp5878
S'-filter_size'
p5879
aS'4.0'
p5880
aatRp5881
sS'result'
p5882
g222
(g224
S'333333\xf3?'
tRp5883
sS'duration'
p5884
g222
(g224
S'\x99\xbb\x96\x90\x0f\xaaE@'
tRp5885
sS'instance_status'
p5886
g227
(g228
(I0
tS'b'
tRp5887
(I1
(I1
tg223
(S'i8'
I0
I1
tRp5888
(I3
S'<'
NNNI-1
I-1
I0
tbI00
S'\x03\x00\x00\x00\x00\x00\x00\x00'
tbsa(dp5889
S'status'
p5890
I3
sS'std'
p5891
g222
(g224
S'\x00\x00\x00\x00\x00\x00\x00\x00'
tRp5892
sS'instance_durations'
p5893
g227
(g228
(I0
tS'b'
tRp5894
(I1
(I1
tg223
(S'f8'
I0
I1
tRp5895
(I3
S'<'
NNNI-1
I-1
I0
tbI00
S'\x1f\xf4lV}\xb6J@'
tbsS'instance_results'
p5896
g227
(g228
(I0
tS'b'
tRp5897
(I1
(I1
tg5895
I00
S'\x9a\x99\x99\x99\x99\x99\x01@'
tbsS'instance_status'
p5898
g227
(g228
(I0
tS'b'
tRp5899
(I1
(I1
tg223
(S'i8'
I0
I1
tRp5900
(I3
S'<'
NNNI-1
I-1
I0
tbI00
S'\x03\x00\x00\x00\x00\x00\x00\x00'
tbsS'params'
p5901
g237
((lp5902
(lp5903
S'-conv1_depth'
p5904
aS'146.0'
p5905
aa(lp5906
S'-conv2_depth'
p5907
aS'36.0'
p5908
aa(lp5909
S'-fc_depth'
p5910
aS'352.0'
p5911
aa(lp5912
S'-filter_size'
p5913
aS'9.0'
p5914
aatRp5915
sS'result'
p5916
g222
(g224
S'\x9a\x99\x99\x99\x99\x99\x01@'
tRp5917
sS'duration'
p5918
g222
(g224
S'\x1f\xf4lV}\xb6J@'
tRp5919
sS'test_error'
p5920
Fnan
sa(dp5921
S'status'
p5922
I3
sS'std'
p5923
g222
(g224
S'\x00\x00\x00\x00\x00\x00\x00\x00'
tRp5924
sS'instance_durations'
p5925
g227
(g228
(I0
tS'b'
tRp5926
(I1
(I1
tg223
(S'f8'
I0
I1
tRp5927
(I3
S'<'
NNNI-1
I-1
I0
tbI00
S'\xf2\xd2Mb\x10\xc8_@'
tbsS'instance_results'
p5928
g227
(g228
(I0
tS'b'
tRp5929
(I1
(I1
tg5927
I00
S'{\x14\xaeG\xe1jS@'
tbsS'test_error'
p5930
Fnan
sS'params'
p5931
g237
((lp5932
(lp5933
S'-conv1_depth'
p5934
aS'346.0'
p5935
aa(lp5936
S'-conv2_depth'
p5937
aS'92.0'
p5938
aa(lp5939
S'-fc_depth'
p5940
aS'247.0'
p5941
aa(lp5942
S'-filter_size'
p5943
aS'11.0'
p5944
aatRp5945
sS'result'
p5946
g222
(g224
S'{\x14\xaeG\xe1jS@'
tRp5947
sS'duration'
p5948
g222
(g224
S'\xf2\xd2Mb\x10\xc8_@'
tRp5949
sS'instance_status'
p5950
g227
(g228
(I0
tS'b'
tRp5951
(I1
(I1
tg223
(S'i8'
I0
I1
tRp5952
(I3
S'<'
NNNI-1
I-1
I0
tbI00
S'\x03\x00\x00\x00\x00\x00\x00\x00'
tbsa(dp5953
S'status'
p5954
I3
sS'std'
p5955
g222
(g224
S'\x00\x00\x00\x00\x00\x00\x00\x00'
tRp5956
sS'instance_durations'
p5957
g227
(g228
(I0
tS'b'
tRp5958
(I1
(I1
tg223
(S'f8'
I0
I1
tRp5959
(I3
S'<'
NNNI-1
I-1
I0
tbI00
S'\x01M\x84\rOgB@'
tbsS'instance_results'
p5960
g227
(g228
(I0
tS'b'
tRp5961
(I1
(I1
tg5959
I00
S')\\\x8f\xc2\xf5(\xf4?'
tbsS'instance_status'
p5962
g227
(g228
(I0
tS'b'
tRp5963
(I1
(I1
tg223
(S'i8'
I0
I1
tRp5964
(I3
S'<'
NNNI-1
I-1
I0
tbI00
S'\x03\x00\x00\x00\x00\x00\x00\x00'
tbsS'params'
p5965
g237
((lp5966
(lp5967
S'-conv1_depth'
p5968
aS'96.0'
p5969
aa(lp5970
S'-conv2_depth'
p5971
aS'48.0'
p5972
aa(lp5973
S'-fc_depth'
p5974
aS'335.0'
p5975
aa(lp5976
S'-filter_size'
p5977
aS'6.0'
p5978
aatRp5979
sS'result'
p5980
g222
(g224
S')\\\x8f\xc2\xf5(\xf4?'
tRp5981
sS'duration'
p5982
g222
(g224
S'\x01M\x84\rOgB@'
tRp5983
sS'test_error'
p5984
Fnan
sa(dp5985
S'status'
p5986
I3
sS'std'
p5987
g222
(g224
S'\x00\x00\x00\x00\x00\x00\x00\x00'
tRp5988
sS'instance_durations'
p5989
g227
(g228
(I0
tS'b'
tRp5990
(I1
(I1
tg223
(S'f8'
I0
I1
tRp5991
(I3
S'<'
NNNI-1
I-1
I0
tbI00
S'7\x89A`\xe5\xb09@'
tbsS'instance_results'
p5992
g227
(g228
(I0
tS'b'
tRp5993
(I1
(I1
tg5991
I00
S'\x14\xaeG\xe1z\x14\xf6?'
tbsS'test_error'
p5994
Fnan
sS'params'
p5995
g237
((lp5996
(lp5997
S'-conv1_depth'
p5998
aS'56.0'
p5999
aa(lp6000
S'-conv2_depth'
p6001
aS'72.0'
p6002
aa(lp6003
S'-fc_depth'
p6004
aS'261.0'
p6005
aa(lp6006
S'-filter_size'
p6007
aS'3.0'
p6008
aatRp6009
sS'result'
p6010
g222
(g224
S'\x14\xaeG\xe1z\x14\xf6?'
tRp6011
sS'duration'
p6012
g222
(g224
S'7\x89A`\xe5\xb09@'
tRp6013
sS'instance_status'
p6014
g227
(g228
(I0
tS'b'
tRp6015
(I1
(I1
tg223
(S'i8'
I0
I1
tRp6016
(I3
S'<'
NNNI-1
I-1
I0
tbI00
S'\x03\x00\x00\x00\x00\x00\x00\x00'
tbsa(dp6017
S'status'
p6018
I3
sS'std'
p6019
g222
(g224
S'\x00\x00\x00\x00\x00\x00\x00\x00'
tRp6020
sS'instance_durations'
p6021
g227
(g228
(I0
tS'b'
tRp6022
(I1
(I1
tg223
(S'f8'
I0
I1
tRp6023
(I3
S'<'
NNNI-1
I-1
I0
tbI00
S'\xfa~j\xbct!|@'
tbsS'instance_results'
p6024
g227
(g228
(I0
tS'b'
tRp6025
(I1
(I1
tg6023
I00
S'\xaeG\xe1z\x14nV@'
tbsS'instance_status'
p6026
g227
(g228
(I0
tS'b'
tRp6027
(I1
(I1
tg223
(S'i8'
I0
I1
tRp6028
(I3
S'<'
NNNI-1
I-1
I0
tbI00
S'\x03\x00\x00\x00\x00\x00\x00\x00'
tbsS'params'
p6029
g237
((lp6030
(lp6031
S'-conv1_depth'
p6032
aS'502.0'
p6033
aa(lp6034
S'-conv2_depth'
p6035
aS'394.0'
p6036
aa(lp6037
S'-fc_depth'
p6038
aS'414.0'
p6039
aa(lp6040
S'-filter_size'
p6041
aS'8.0'
p6042
aatRp6043
sS'result'
p6044
g222
(g224
S'\xaeG\xe1z\x14nV@'
tRp6045
sS'duration'
p6046
g222
(g224
S'\xfa~j\xbct!|@'
tRp6047
sS'test_error'
p6048
Fnan
sa(dp6049
S'status'
p6050
I3
sS'std'
p6051
g222
(g224
S'\x00\x00\x00\x00\x00\x00\x00\x00'
tRp6052
sS'instance_durations'
p6053
g227
(g228
(I0
tS'b'
tRp6054
(I1
(I1
tg223
(S'f8'
I0
I1
tRp6055
(I3
S'<'
NNNI-1
I-1
I0
tbI00
S'O\xaf\x94e\x88\x93J@'
tbsS'instance_results'
p6056
g227
(g228
(I0
tS'b'
tRp6057
(I1
(I1
tg6055
I00
S'\x85\xebQ\xb8\x1e\x85\xf3?'
tbsS'instance_status'
p6058
g227
(g228
(I0
tS'b'
tRp6059
(I1
(I1
tg223
(S'i8'
I0
I1
tRp6060
(I3
S'<'
NNNI-1
I-1
I0
tbI00
S'\x03\x00\x00\x00\x00\x00\x00\x00'
tbsS'params'
p6061
g237
((lp6062
(lp6063
S'-conv1_depth'
p6064
aS'66.0'
p6065
aa(lp6066
S'-conv2_depth'
p6067
aS'236.0'
p6068
aa(lp6069
S'-fc_depth'
p6070
aS'386.0'
p6071
aa(lp6072
S'-filter_size'
p6073
aS'4.0'
p6074
aatRp6075
sS'result'
p6076
g222
(g224
S'\x85\xebQ\xb8\x1e\x85\xf3?'
tRp6077
sS'duration'
p6078
g222
(g224
S'O\xaf\x94e\x88\x93J@'
tRp6079
sS'test_error'
p6080
Fnan
sa(dp6081
S'status'
p6082
I3
sS'std'
p6083
g222
(g224
S'\x00\x00\x00\x00\x00\x00\x00\x00'
tRp6084
sS'instance_durations'
p6085
g227
(g228
(I0
tS'b'
tRp6086
(I1
(I1
tg223
(S'f8'
I0
I1
tRp6087
(I3
S'<'
NNNI-1
I-1
I0
tbI00
S'yX\xa85\xcd#J@'
tbsS'instance_results'
p6088
g227
(g228
(I0
tS'b'
tRp6089
(I1
(I1
tg6087
I00
S'\xe1z\x14\xaeG\xe1\xf6?'
tbsS'test_error'
p6090
Fnan
sS'params'
p6091
g237
((lp6092
(lp6093
S'-conv1_depth'
p6094
aS'190.0'
p6095
aa(lp6096
S'-conv2_depth'
p6097
aS'108.0'
p6098
aa(lp6099
S'-fc_depth'
p6100
aS'446.0'
p6101
aa(lp6102
S'-filter_size'
p6103
aS'2.0'
p6104
aatRp6105
sS'result'
p6106
g222
(g224
S'\xe1z\x14\xaeG\xe1\xf6?'
tRp6107
sS'duration'
p6108
g222
(g224
S'yX\xa85\xcd#J@'
tRp6109
sS'instance_status'
p6110
g227
(g228
(I0
tS'b'
tRp6111
(I1
(I1
tg223
(S'i8'
I0
I1
tRp6112
(I3
S'<'
NNNI-1
I-1
I0
tbI00
S'\x03\x00\x00\x00\x00\x00\x00\x00'
tbsa(dp6113
S'status'
p6114
I3
sS'std'
p6115
g222
(g224
S'\x00\x00\x00\x00\x00\x00\x00\x00'
tRp6116
sS'instance_durations'
p6117
g227
(g228
(I0
tS'b'
tRp6118
(I1
(I1
tg223
(S'f8'
I0
I1
tRp6119
(I3
S'<'
NNNI-1
I-1
I0
tbI00
S'p\xce\x88\xd2\xde\xa02@'
tbsS'instance_results'
p6120
g227
(g228
(I0
tS'b'
tRp6121
(I1
(I1
tg6119
I00
S'\xecQ\xb8\x1e\x85\xeb\xf1?'
tbsS'instance_status'
p6122
g227
(g228
(I0
tS'b'
tRp6123
(I1
(I1
tg223
(S'i8'
I0
I1
tRp6124
(I3
S'<'
NNNI-1
I-1
I0
tbI00
S'\x03\x00\x00\x00\x00\x00\x00\x00'
tbsS'params'
p6125
g237
((lp6126
(lp6127
S'-conv1_depth'
p6128
aS'18.0'
p6129
aa(lp6130
S'-conv2_depth'
p6131
aS'28.0'
p6132
aa(lp6133
S'-fc_depth'
p6134
aS'360.0'
p6135
aa(lp6136
S'-filter_size'
p6137
aS'7.0'
p6138
aatRp6139
sS'result'
p6140
g222
(g224
S'\xecQ\xb8\x1e\x85\xeb\xf1?'
tRp6141
sS'duration'
p6142
g222
(g224
S'p\xce\x88\xd2\xde\xa02@'
tRp6143
sS'test_error'
p6144
Fnan
sa(dp6145
S'status'
p6146
I3
sS'std'
p6147
g222
(g224
S'\x00\x00\x00\x00\x00\x00\x00\x00'
tRp6148
sS'instance_durations'
p6149
g227
(g228
(I0
tS'b'
tRp6150
(I1
(I1
tg223
(S'f8'
I0
I1
tRp6151
(I3
S'<'
NNNI-1
I-1
I0
tbI00
S'\xee|?5^>g@'
tbsS'instance_results'
p6152
g227
(g228
(I0
tS'b'
tRp6153
(I1
(I1
tg6151
I00
S'\xaeG\xe1z\x14nV@'
tbsS'instance_status'
p6154
g227
(g228
(I0
tS'b'
tRp6155
(I1
(I1
tg223
(S'i8'
I0
I1
tRp6156
(I3
S'<'
NNNI-1
I-1
I0
tbI00
S'\x03\x00\x00\x00\x00\x00\x00\x00'
tbsS'params'
p6157
g237
((lp6158
(lp6159
S'-conv1_depth'
p6160
aS'274.0'
p6161
aa(lp6162
S'-conv2_depth'
p6163
aS'158.0'
p6164
aa(lp6165
S'-fc_depth'
p6166
aS'498.0'
p6167
aa(lp6168
S'-filter_size'
p6169
aS'10.0'
p6170
aatRp6171
sS'result'
p6172
g222
(g224
S'\xaeG\xe1z\x14nV@'
tRp6173
sS'duration'
p6174
g222
(g224
S'\xee|?5^>g@'
tRp6175
sS'test_error'
p6176
Fnan
sa(dp6177
S'status'
p6178
I3
sS'std'
p6179
g222
(g224
S'\x00\x00\x00\x00\x00\x00\x00\x00'
tRp6180
sS'instance_durations'
p6181
g227
(g228
(I0
tS'b'
tRp6182
(I1
(I1
tg223
(S'f8'
I0
I1
tRp6183
(I3
S'<'
NNNI-1
I-1
I0
tbI00
S'h\x91\xed|?\xfdq@'
tbsS'instance_results'
p6184
g227
(g228
(I0
tS'b'
tRp6185
(I1
(I1
tg6183
I00
S'\xaeG\xe1z\x14nV@'
tbsS'instance_status'
p6186
g227
(g228
(I0
tS'b'
tRp6187
(I1
(I1
tg223
(S'i8'
I0
I1
tRp6188
(I3
S'<'
NNNI-1
I-1
I0
tbI00
S'\x03\x00\x00\x00\x00\x00\x00\x00'
tbsS'params'
p6189
g237
((lp6190
(lp6191
S'-conv1_depth'
p6192
aS'476.0'
p6193
aa(lp6194
S'-conv2_depth'
p6195
aS'310.0'
p6196
aa(lp6197
S'-fc_depth'
p6198
aS'460.0'
p6199
aa(lp6200
S'-filter_size'
p6201
aS'5.0'
p6202
aatRp6203
sS'result'
p6204
g222
(g224
S'\xaeG\xe1z\x14nV@'
tRp6205
sS'duration'
p6206
g222
(g224
S'h\x91\xed|?\xfdq@'
tRp6207
sS'test_error'
p6208
Fnan
sa(dp6209
S'status'
p6210
I3
sS'std'
p6211
g222
(g224
S'\x00\x00\x00\x00\x00\x00\x00\x00'
tRp6212
sS'instance_durations'
p6213
g227
(g228
(I0
tS'b'
tRp6214
(I1
(I1
tg223
(S'f8'
I0
I1
tRp6215
(I3
S'<'
NNNI-1
I-1
I0
tbI00
S'\xd7\x12\xf2A\xcf>U@'
tbsS'instance_results'
p6216
g227
(g228
(I0
tS'b'
tRp6217
(I1
(I1
tg6215
I00
S'\x85\xebQ\xb8\x1e\x85\xf7?'
tbsS'test_error'
p6218
Fnan
sS'params'
p6219
g237
((lp6220
(lp6221
S'-conv1_depth'
p6222
aS'116.0'
p6223
aa(lp6224
S'-conv2_depth'
p6225
aS'210.0'
p6226
aa(lp6227
S'-fc_depth'
p6228
aS'511.0'
p6229
aa(lp6230
S'-filter_size'
p6231
aS'7.0'
p6232
aatRp6233
sS'result'
p6234
g222
(g224
S'\x85\xebQ\xb8\x1e\x85\xf7?'
tRp6235
sS'duration'
p6236
g222
(g224
S'\xd7\x12\xf2A\xcf>U@'
tRp6237
sS'instance_status'
p6238
g227
(g228
(I0
tS'b'
tRp6239
(I1
(I1
tg223
(S'i8'
I0
I1
tRp6240
(I3
S'<'
NNNI-1
I-1
I0
tbI00
S'\x03\x00\x00\x00\x00\x00\x00\x00'
tbsa(dp6241
S'status'
p6242
I3
sS'std'
p6243
g222
(g224
S'\x00\x00\x00\x00\x00\x00\x00\x00'
tRp6244
sS'instance_durations'
p6245
g227
(g228
(I0
tS'b'
tRp6246
(I1
(I1
tg223
(S'f8'
I0
I1
tRp6247
(I3
S'<'
NNNI-1
I-1
I0
tbI00
S'\xb4Y\xf5\xb9\xda\xf2L@'
tbsS'instance_results'
p6248
g227
(g228
(I0
tS'b'
tRp6249
(I1
(I1
tg6247
I00
S'\xe1z\x14\xaeG\xe1\x1c@'
tbsS'instance_status'
p6250
g227
(g228
(I0
tS'b'
tRp6251
(I1
(I1
tg223
(S'i8'
I0
I1
tRp6252
(I3
S'<'
NNNI-1
I-1
I0
tbI00
S'\x03\x00\x00\x00\x00\x00\x00\x00'
tbsS'params'
p6253
g237
((lp6254
(lp6255
S'-conv1_depth'
p6256
aS'244.0'
p6257
aa(lp6258
S'-conv2_depth'
p6259
aS'172.0'
p6260
aa(lp6261
S'-fc_depth'
p6262
aS'468.0'
p6263
aa(lp6264
S'-filter_size'
p6265
aS'1.0'
p6266
aatRp6267
sS'result'
p6268
g222
(g224
S'\xe1z\x14\xaeG\xe1\x1c@'
tRp6269
sS'duration'
p6270
g222
(g224
S'\xb4Y\xf5\xb9\xda\xf2L@'
tRp6271
sS'test_error'
p6272
Fnan
sa(dp6273
S'status'
p6274
I3
sS'std'
p6275
g222
(g224
S'\x00\x00\x00\x00\x00\x00\x00\x00'
tRp6276
sS'instance_durations'
p6277
g227
(g228
(I0
tS'b'
tRp6278
(I1
(I1
tg223
(S'f8'
I0
I1
tRp6279
(I3
S'<'
NNNI-1
I-1
I0
tbI00
S'\x1b\r\xe0-\x90\xe0H@'
tbsS'instance_results'
p6280
g227
(g228
(I0
tS'b'
tRp6281
(I1
(I1
tg6279
I00
S'\xcd\xcc\xcc\xcc\xcc\xcc\xf4?'
tbsS'test_error'
p6282
Fnan
sS'params'
p6283
g237
((lp6284
(lp6285
S'-conv1_depth'
p6286
aS'160.0'
p6287
aa(lp6288
S'-conv2_depth'
p6289
aS'124.0'
p6290
aa(lp6291
S'-fc_depth'
p6292
aS'396.0'
p6293
aa(lp6294
S'-filter_size'
p6295
aS'3.0'
p6296
aatRp6297
sS'result'
p6298
g222
(g224
S'\xcd\xcc\xcc\xcc\xcc\xcc\xf4?'
tRp6299
sS'duration'
p6300
g222
(g224
S'\x1b\r\xe0-\x90\xe0H@'
tRp6301
sS'instance_status'
p6302
g227
(g228
(I0
tS'b'
tRp6303
(I1
(I1
tg223
(S'i8'
I0
I1
tRp6304
(I3
S'<'
NNNI-1
I-1
I0
tbI00
S'\x03\x00\x00\x00\x00\x00\x00\x00'
tbsa(dp6305
S'status'
p6306
I3
sS'std'
p6307
g222
(g224
S'\x00\x00\x00\x00\x00\x00\x00\x00'
tRp6308
sS'instance_durations'
p6309
g227
(g228
(I0
tS'b'
tRp6310
(I1
(I1
tg223
(S'f8'
I0
I1
tRp6311
(I3
S'<'
NNNI-1
I-1
I0
tbI00
S'\xb9\x8d\x06\xf0\x16\x88;@'
tbsS'instance_results'
p6312
g227
(g228
(I0
tS'b'
tRp6313
(I1
(I1
tg6311
I00
S'q=\n\xd7\xa3\xb08@'
tbsS'instance_status'
p6314
g227
(g228
(I0
tS'b'
tRp6315
(I1
(I1
tg223
(S'i8'
I0
I1
tRp6316
(I3
S'<'
NNNI-1
I-1
I0
tbI00
S'\x03\x00\x00\x00\x00\x00\x00\x00'
tbsS'params'
p6317
g237
((lp6318
(lp6319
S'-conv1_depth'
p6320
aS'84.0'
p6321
aa(lp6322
S'-conv2_depth'
p6323
aS'14.0'
p6324
aa(lp6325
S'-fc_depth'
p6326
aS'3.0'
p6327
aa(lp6328
S'-filter_size'
p6329
aS'4.0'
p6330
aatRp6331
sS'result'
p6332
g222
(g224
S'q=\n\xd7\xa3\xb08@'
tRp6333
sS'duration'
p6334
g222
(g224
S'\xb9\x8d\x06\xf0\x16\x88;@'
tRp6335
sS'test_error'
p6336
Fnan
sa(dp6337
S'status'
p6338
I3
sS'std'
p6339
g222
(g224
S'\x00\x00\x00\x00\x00\x00\x00\x00'
tRp6340
sS'instance_durations'
p6341
g227
(g228
(I0
tS'b'
tRp6342
(I1
(I1
tg223
(S'f8'
I0
I1
tRp6343
(I3
S'<'
NNNI-1
I-1
I0
tbI00
S'\xaa\xf1\xd2Mb\xe0X@'
tbsS'instance_results'
p6344
g227
(g228
(I0
tS'b'
tRp6345
(I1
(I1
tg6343
I00
S'\xcd\xcc\xcc\xcc\xcc\xcc\xf4?'
tbsS'test_error'
p6346
Fnan
sS'params'
p6347
g237
((lp6348
(lp6349
S'-conv1_depth'
p6350
aS'230.0'
p6351
aa(lp6352
S'-conv2_depth'
p6353
aS'138.0'
p6354
aa(lp6355
S'-fc_depth'
p6356
aS'291.0'
p6357
aa(lp6358
S'-filter_size'
p6359
aS'6.0'
p6360
aatRp6361
sS'result'
p6362
g222
(g224
S'\xcd\xcc\xcc\xcc\xcc\xcc\xf4?'
tRp6363
sS'duration'
p6364
g222
(g224
S'\xaa\xf1\xd2Mb\xe0X@'
tRp6365
sS'instance_status'
p6366
g227
(g228
(I0
tS'b'
tRp6367
(I1
(I1
tg223
(S'i8'
I0
I1
tRp6368
(I3
S'<'
NNNI-1
I-1
I0
tbI00
S'\x03\x00\x00\x00\x00\x00\x00\x00'
tbsa(dp6369
S'status'
p6370
I3
sS'std'
p6371
g222
(g224
S'\x00\x00\x00\x00\x00\x00\x00\x00'
tRp6372
sS'instance_durations'
p6373
g227
(g228
(I0
tS'b'
tRp6374
(I1
(I1
tg223
(S'f8'
I0
I1
tRp6375
(I3
S'<'
NNNI-1
I-1
I0
tbI00
S'\x88c]\xdcF\x9bV@'
tbsS'instance_results'
p6376
g227
(g228
(I0
tS'b'
tRp6377
(I1
(I1
tg6375
I00
S'\x1f\x85\xebQ\xb8\x1e\xf1?'
tbsS'instance_status'
p6378
g227
(g228
(I0
tS'b'
tRp6379
(I1
(I1
tg223
(S'i8'
I0
I1
tRp6380
(I3
S'<'
NNNI-1
I-1
I0
tbI00
S'\x03\x00\x00\x00\x00\x00\x00\x00'
tbsS'params'
p6381
g237
((lp6382
(lp6383
S'-conv1_depth'
p6384
aS'172.0'
p6385
aa(lp6386
S'-conv2_depth'
p6387
aS'188.0'
p6388
aa(lp6389
S'-fc_depth'
p6390
aS'433.0'
p6391
aa(lp6392
S'-filter_size'
p6393
aS'5.0'
p6394
aatRp6395
sS'result'
p6396
g222
(g224
S'\x1f\x85\xebQ\xb8\x1e\xf1?'
tRp6397
sS'duration'
p6398
g222
(g224
S'\x88c]\xdcF\x9bV@'
tRp6399
sS'test_error'
p6400
Fnan
sa(dp6401
S'status'
p6402
I3
sS'std'
p6403
g222
(g224
S'\x00\x00\x00\x00\x00\x00\x00\x00'
tRp6404
sS'instance_durations'
p6405
g227
(g228
(I0
tS'b'
tRp6406
(I1
(I1
tg223
(S'f8'
I0
I1
tRp6407
(I3
S'<'
NNNI-1
I-1
I0
tbI00
S'\xe7\xfb\xa9\xf1\xd2\xddb@'
tbsS'instance_results'
p6408
g227
(g228
(I0
tS'b'
tRp6409
(I1
(I1
tg6407
I00
S'=\n\xd7\xa3p=\xfe?'
tbsS'test_error'
p6410
Fnan
sS'params'
p6411
g237
((lp6412
(lp6413
S'-conv1_depth'
p6414
aS'208.0'
p6415
aa(lp6416
S'-conv2_depth'
p6417
aS'284.0'
p6418
aa(lp6419
S'-fc_depth'
p6420
aS'431.0'
p6421
aa(lp6422
S'-filter_size'
p6423
aS'8.0'
p6424
aatRp6425
sS'result'
p6426
g222
(g224
S'=\n\xd7\xa3p=\xfe?'
tRp6427
sS'duration'
p6428
g222
(g224
S'\xe7\xfb\xa9\xf1\xd2\xddb@'
tRp6429
sS'instance_status'
p6430
g227
(g228
(I0
tS'b'
tRp6431
(I1
(I1
tg223
(S'i8'
I0
I1
tRp6432
(I3
S'<'
NNNI-1
I-1
I0
tbI00
S'\x03\x00\x00\x00\x00\x00\x00\x00'
tbsa(dp6433
S'status'
p6434
I3
sS'std'
p6435
g222
(g224
S'\x00\x00\x00\x00\x00\x00\x00\x00'
tRp6436
sS'instance_durations'
p6437
g227
(g228
(I0
tS'b'
tRp6438
(I1
(I1
tg223
(S'f8'
I0
I1
tRp6439
(I3
S'<'
NNNI-1
I-1
I0
tbI00
S'\x8bl\xe7\xfb\xa95X@'
tbsS'instance_results'
p6440
g227
(g228
(I0
tS'b'
tRp6441
(I1
(I1
tg6439
I00
S'\xaeG\xe1z\x14\xae\xf3?'
tbsS'instance_status'
p6442
g227
(g228
(I0
tS'b'
tRp6443
(I1
(I1
tg223
(S'i8'
I0
I1
tRp6444
(I3
S'<'
NNNI-1
I-1
I0
tbI00
S'\x03\x00\x00\x00\x00\x00\x00\x00'
tbsS'params'
p6445
g237
((lp6446
(lp6447
S'-conv1_depth'
p6448
aS'124.0'
p6449
aa(lp6450
S'-conv2_depth'
p6451
aS'266.0'
p6452
aa(lp6453
S'-fc_depth'
p6454
aS'344.0'
p6455
aa(lp6456
S'-filter_size'
p6457
aS'7.0'
p6458
aatRp6459
sS'result'
p6460
g222
(g224
S'\xaeG\xe1z\x14\xae\xf3?'
tRp6461
sS'duration'
p6462
g222
(g224
S'\x8bl\xe7\xfb\xa95X@'
tRp6463
sS'test_error'
p6464
Fnan
sa(dp6465
S'status'
p6466
I3
sS'std'
p6467
g222
(g224
S'\x00\x00\x00\x00\x00\x00\x00\x00'
tRp6468
sS'instance_durations'
p6469
g227
(g228
(I0
tS'b'
tRp6470
(I1
(I1
tg223
(S'f8'
I0
I1
tRp6471
(I3
S'<'
NNNI-1
I-1
I0
tbI00
S'\x07\xce\x19Q\xda\xbbU@'
tbsS'instance_results'
p6472
g227
(g228
(I0
tS'b'
tRp6473
(I1
(I1
tg6471
I00
S'ffffff\xf2?'
tbsS'test_error'
p6474
Fnan
sS'params'
p6475
g237
((lp6476
(lp6477
S'-conv1_depth'
p6478
aS'180.0'
p6479
aa(lp6480
S'-conv2_depth'
p6481
aS'192.0'
p6482
aa(lp6483
S'-fc_depth'
p6484
aS'372.0'
p6485
aa(lp6486
S'-filter_size'
p6487
aS'5.0'
p6488
aatRp6489
sS'result'
p6490
g222
(g224
S'ffffff\xf2?'
tRp6491
sS'duration'
p6492
g222
(g224
S'\x07\xce\x19Q\xda\xbbU@'
tRp6493
sS'instance_status'
p6494
g227
(g228
(I0
tS'b'
tRp6495
(I1
(I1
tg223
(S'i8'
I0
I1
tRp6496
(I3
S'<'
NNNI-1
I-1
I0
tbI00
S'\x03\x00\x00\x00\x00\x00\x00\x00'
tbsa(dp6497
S'status'
p6498
I3
sS'std'
p6499
g222
(g224
S'\x00\x00\x00\x00\x00\x00\x00\x00'
tRp6500
sS'instance_durations'
p6501
g227
(g228
(I0
tS'b'
tRp6502
(I1
(I1
tg223
(S'f8'
I0
I1
tRp6503
(I3
S'<'
NNNI-1
I-1
I0
tbI00
S'\x05\xc5\x8f1w\x11T@'
tbsS'instance_results'
p6504
g227
(g228
(I0
tS'b'
tRp6505
(I1
(I1
tg6503
I00
S'\xecQ\xb8\x1e\x85\xeb\xf5?'
tbsS'instance_status'
p6506
g227
(g228
(I0
tS'b'
tRp6507
(I1
(I1
tg223
(S'i8'
I0
I1
tRp6508
(I3
S'<'
NNNI-1
I-1
I0
tbI00
S'\x03\x00\x00\x00\x00\x00\x00\x00'
tbsS'params'
p6509
g237
((lp6510
(lp6511
S'-conv1_depth'
p6512
aS'106.0'
p6513
aa(lp6514
S'-conv2_depth'
p6515
aS'222.0'
p6516
aa(lp6517
S'-fc_depth'
p6518
aS'404.0'
p6519
aa(lp6520
S'-filter_size'
p6521
aS'6.0'
p6522
aatRp6523
sS'result'
p6524
g222
(g224
S'\xecQ\xb8\x1e\x85\xeb\xf5?'
tRp6525
sS'duration'
p6526
g222
(g224
S'\x05\xc5\x8f1w\x11T@'
tRp6527
sS'test_error'
p6528
Fnan
sa(dp6529
S'status'
p6530
I3
sS'std'
p6531
g222
(g224
S'\x00\x00\x00\x00\x00\x00\x00\x00'
tRp6532
sS'instance_durations'
p6533
g227
(g228
(I0
tS'b'
tRp6534
(I1
(I1
tg223
(S'f8'
I0
I1
tRp6535
(I3
S'<'
NNNI-1
I-1
I0
tbI00
S'q\xac\x8b\xdbh\x88W@'
tbsS'instance_results'
p6536
g227
(g228
(I0
tS'b'
tRp6537
(I1
(I1
tg6535
I00
S'\xaeG\xe1z\x14nV@'
tbsS'test_error'
p6538
Fnan
sS'params'
p6539
g237
((lp6540
(lp6541
S'-conv1_depth'
p6542
aS'170.0'
p6543
aa(lp6544
S'-conv2_depth'
p6545
aS'184.0'
p6546
aa(lp6547
S'-fc_depth'
p6548
aS'132.0'
p6549
aa(lp6550
S'-filter_size'
p6551
aS'8.0'
p6552
aatRp6553
sS'result'
p6554
g222
(g224
S'\xaeG\xe1z\x14nV@'
tRp6555
sS'duration'
p6556
g222
(g224
S'q\xac\x8b\xdbh\x88W@'
tRp6557
sS'instance_status'
p6558
g227
(g228
(I0
tS'b'
tRp6559
(I1
(I1
tg223
(S'i8'
I0
I1
tRp6560
(I3
S'<'
NNNI-1
I-1
I0
tbI00
S'\x03\x00\x00\x00\x00\x00\x00\x00'
tbsa(dp6561
S'status'
p6562
I3
sS'std'
p6563
g222
(g224
S'\x00\x00\x00\x00\x00\x00\x00\x00'
tRp6564
sS'instance_durations'
p6565
g227
(g228
(I0
tS'b'
tRp6566
(I1
(I1
tg223
(S'f8'
I0
I1
tRp6567
(I3
S'<'
NNNI-1
I-1
I0
tbI00
S'\n\xd7\xa3p=R_@'
tbsS'instance_results'
p6568
g227
(g228
(I0
tS'b'
tRp6569
(I1
(I1
tg6567
I00
S'\xb8\x1e\x85\xebQ\xb8\xf6?'
tbsS'test_error'
p6570
Fnan
sS'params'
p6571
g237
((lp6572
(lp6573
S'-conv1_depth'
p6574
aS'152.0'
p6575
aa(lp6576
S'-conv2_depth'
p6577
aS'334.0'
p6578
aa(lp6579
S'-fc_depth'
p6580
aS'419.0'
p6581
aa(lp6582
S'-filter_size'
p6583
aS'5.0'
p6584
aatRp6585
sS'result'
p6586
g222
(g224
S'\xb8\x1e\x85\xebQ\xb8\xf6?'
tRp6587
sS'duration'
p6588
g222
(g224
S'\n\xd7\xa3p=R_@'
tRp6589
sS'instance_status'
p6590
g227
(g228
(I0
tS'b'
tRp6591
(I1
(I1
tg223
(S'i8'
I0
I1
tRp6592
(I3
S'<'
NNNI-1
I-1
I0
tbI00
S'\x03\x00\x00\x00\x00\x00\x00\x00'
tbsa(dp6593
S'status'
p6594
I3
sS'std'
p6595
g222
(g224
S'\x00\x00\x00\x00\x00\x00\x00\x00'
tRp6596
sS'instance_durations'
p6597
g227
(g228
(I0
tS'b'
tRp6598
(I1
(I1
tg223
(S'f8'
I0
I1
tRp6599
(I3
S'<'
NNNI-1
I-1
I0
tbI00
S'\xfa~j\xbct\xa3K@'
tbsS'instance_results'
p6600
g227
(g228
(I0
tS'b'
tRp6601
(I1
(I1
tg6599
I00
S')\\\x8f\xc2\xf5(\xf4?'
tbsS'instance_status'
p6602
g227
(g228
(I0
tS'b'
tRp6603
(I1
(I1
tg223
(S'i8'
I0
I1
tRp6604
(I3
S'<'
NNNI-1
I-1
I0
tbI00
S'\x03\x00\x00\x00\x00\x00\x00\x00'
tbsS'params'
p6605
g237
((lp6606
(lp6607
S'-conv1_depth'
p6608
aS'52.0'
p6609
aa(lp6610
S'-conv2_depth'
p6611
aS'214.0'
p6612
aa(lp6613
S'-fc_depth'
p6614
aS'319.0'
p6615
aa(lp6616
S'-filter_size'
p6617
aS'6.0'
p6618
aatRp6619
sS'result'
p6620
g222
(g224
S')\\\x8f\xc2\xf5(\xf4?'
tRp6621
sS'duration'
p6622
g222
(g224
S'\xfa~j\xbct\xa3K@'
tRp6623
sS'test_error'
p6624
Fnan
sasS'total_wallclock_time'
p6625
F19455.554100000001
sS'experiment_name'
p6626
S'hyperopt_august2013_mod'
p6627
sS'starttime'
p6628
(lp6629
F1472552690.061517
as.