(dp1
S'trials'
p2
ccopy_reg
_reconstructor
p3
(chyperopt.base
Trials
p4
c__builtin__
object
p5
NtRp6
(dp7
S'attachments'
p8
(dp9
sS'_trials'
p10
(lp11
(dp12
S'refresh_time'
p13
cdatetime
datetime
p14
(S'\x07\xe0\x08\x1e\n\x1c\x1f\x0c\x8e\xd8'
tRp15
sS'book_time'
p16
g14
(S'\x07\xe0\x08\x1e\n\x182\x061\xf0'
tRp17
sS'misc'
p18
(dp19
S'tid'
p20
I0
sS'idxs'
p21
(dp22
S'conv2_depth'
p23
(lp24
I0
asS'fc_depth'
p25
(lp26
I0
asS'conv1_depth'
p27
(lp28
I0
asS'filter_size'
p29
(lp30
I0
assS'cmd'
p31
(S'domain_attachment'
p32
S'FMinIter_Domain'
p33
tp34
sS'vals'
p35
(dp36
g23
(lp37
F392
asg25
(lp38
F485
asg27
(lp39
F146
asg29
(lp40
F8
assS'workdir'
p41
NssS'state'
p42
I2
sg20
I0
sS'exp_key'
p43
NsS'version'
p44
I0
sS'result'
p45
(dp46
S'status'
p47
S'ok'
p48
sS'loss'
p49
F89.719999999999999
ssS'owner'
p50
NsS'spec'
p51
Nsa(dp52
g13
g14
(S'\x07\xe0\x08\x1e\n \x04\x08)\xd8'
tRp53
sg16
g14
(S'\x07\xe0\x08\x1e\n\x1c\x1f\x0c\xb2\x00'
tRp54
sg18
(dp55
g20
I1
sg21
(dp56
g23
(lp57
I1
asg25
(lp58
I1
asg27
(lp59
I1
asg29
(lp60
I1
assg31
(g32
g33
tp61
sg35
(dp62
g23
(lp63
F512
asg25
(lp64
F358
asg27
(lp65
F114
asg29
(lp66
F13
assg41
Nssg42
I2
sg20
I1
sg43
Nsg44
I0
sg45
(dp67
g47
g48
sg49
F25.84
ssg50
Nsg51
Nsa(dp68
g13
g14
(S'\x07\xe0\x08\x1e\n!\x08\x08E0'
tRp69
sg16
g14
(S'\x07\xe0\x08\x1e\n \x04\x08M\x00'
tRp70
sg18
(dp71
g20
I2
sg21
(dp72
g23
(lp73
I2
asg25
(lp74
I2
asg27
(lp75
I2
asg29
(lp76
I2
assg31
(g32
g33
tp77
sg35
(dp78
g23
(lp79
F144
asg25
(lp80
F299
asg27
(lp81
F96
asg29
(lp82
F12
assg41
Nssg42
I2
sg20
I2
sg43
Nsg44
I0
sg45
(dp83
g47
g48
sg49
F2.1099999999999999
ssg50
Nsg51
Nsa(dp84
g13
g14
(S'\x07\xe0\x08\x1e\n&\x13\x05\xf3p'
tRp85
sg16
g14
(S'\x07\xe0\x08\x1e\n!\x08\x08hX'
tRp86
sg18
(dp87
g20
I3
sg21
(dp88
g23
(lp89
I3
asg25
(lp90
I3
asg27
(lp91
I3
asg29
(lp92
I3
assg31
(g32
g33
tp93
sg35
(dp94
g23
(lp95
F394
asg25
(lp96
F266
asg27
(lp97
F404
asg29
(lp98
F5
assg41
Nssg42
I2
sg20
I3
sg43
Nsg44
I0
sg45
(dp99
g47
g48
sg49
F89.719999999999999
ssg50
Nsg51
Nsa(dp100
g13
g14
(S'\x07\xe0\x08\x1e\n,%\x0c\x96\xa8'
tRp101
sg16
g14
(S'\x07\xe0\x08\x1e\n&\x13\x06\x16\x98'
tRp102
sg18
(dp103
g20
I4
sg21
(dp104
g23
(lp105
I4
asg25
(lp106
I4
asg27
(lp107
I4
asg29
(lp108
I4
assg31
(g32
g33
tp109
sg35
(dp110
g23
(lp111
F376
asg25
(lp112
F417
asg27
(lp113
F444
asg29
(lp114
F7
assg41
Nssg42
I2
sg20
I4
sg43
Nsg44
I0
sg45
(dp115
g47
g48
sg49
F89.719999999999999
ssg50
Nsg51
Nsa(dp116
g13
g14
(S'\x07\xe0\x08\x1e\n-/\x0c\xf0\x80'
tRp117
sg16
g14
(S'\x07\xe0\x08\x1e\n,%\x0c\xbd\xb8'
tRp118
sg18
(dp119
g20
I5
sg21
(dp120
g23
(lp121
I5
asg25
(lp122
I5
asg27
(lp123
I5
asg29
(lp124
I5
assg31
(g32
g33
tp125
sg35
(dp126
g23
(lp127
F64
asg25
(lp128
F288
asg27
(lp129
F204
asg29
(lp130
F10
assg41
Nssg42
I2
sg20
I5
sg43
Nsg44
I0
sg45
(dp131
g47
g48
sg49
F89.719999999999999
ssg50
Nsg51
Nsa(dp132
g13
g14
(S'\x07\xe0\x08\x1e\n/0\x0f\x07\xa8'
tRp133
sg16
g14
(S'\x07\xe0\x08\x1e\n-/\r\x0b\xd8'
tRp134
sg18
(dp135
g20
I6
sg21
(dp136
g23
(lp137
I6
asg25
(lp138
I6
asg27
(lp139
I6
asg29
(lp140
I6
assg31
(g32
g33
tp141
sg35
(dp142
g23
(lp143
F38
asg25
(lp144
F147
asg27
(lp145
F392
asg29
(lp146
F12
assg41
Nssg42
I2
sg20
I6
sg43
Nsg44
I0
sg45
(dp147
g47
g48
sg49
F4.0099999999999998
ssg50
Nsg51
Nsa(dp148
g13
g14
(S'\x07\xe0\x08\x1e\n1-\x065\xd8'
tRp149
sg16
g14
(S'\x07\xe0\x08\x1e\n/0\x0f.\xb8'
tRp150
sg18
(dp151
g20
I7
sg21
(dp152
g23
(lp153
I7
asg25
(lp154
I7
asg27
(lp155
I7
asg29
(lp156
I7
assg31
(g32
g33
tp157
sg35
(dp158
g23
(lp159
F340
asg25
(lp160
F196
asg27
(lp161
F84
asg29
(lp162
F9
assg41
Nssg42
I2
sg20
I7
sg43
Nsg44
I0
sg45
(dp163
g47
g48
sg49
F89.719999999999999
ssg50
Nsg51
Nsa(dp164
g13
g14
(S'\x07\xe0\x08\x1e\n8\x01\r\x1bx'
tRp165
sg16
g14
(S'\x07\xe0\x08\x1e\n1-\x06Y\x00'
tRp166
sg18
(dp167
g20
I8
sg21
(dp168
g23
(lp169
I8
asg25
(lp170
I8
asg27
(lp171
I8
asg29
(lp172
I8
assg31
(g32
g33
tp173
sg35
(dp174
g23
(lp175
F394
asg25
(lp176
F491
asg27
(lp177
F506
asg29
(lp178
F5
assg41
Nssg42
I2
sg20
I8
sg43
Nsg44
I0
sg45
(dp179
g47
g48
sg49
F89.719999999999999
ssg50
Nsg51
Nsa(dp180
g13
g14
(S'\x07\xe0\x08\x1e\x0b\x022\x03r\xd0'
tRp181
sg16
g14
(S'\x07\xe0\x08\x1e\n8\x01\r>\xa0'
tRp182
sg18
(dp183
g20
I9
sg21
(dp184
g23
(lp185
I9
asg25
(lp186
I9
asg27
(lp187
I9
asg29
(lp188
I9
assg31
(g32
g33
tp189
sg35
(dp190
g23
(lp191
F284
asg25
(lp192
F191
asg27
(lp193
F490
asg29
(lp194
F12
assg41
Nssg42
I2
sg20
I9
sg43
Nsg44
I0
sg45
(dp195
g47
g48
sg49
F89.719999999999999
ssg50
Nsg51
Nsa(dp196
g13
g14
(S'\x07\xe0\x08\x1e\x0b\x04\x00\x02U\xa8'
tRp197
sg16
g14
(S'\x07\xe0\x08\x1e\x0b\x022\x03\x92\x10'
tRp198
sg18
(dp199
g20
I10
sg21
(dp200
g23
(lp201
I10
asg25
(lp202
I10
asg27
(lp203
I10
asg29
(lp204
I10
assg31
(g32
g33
tp205
sg35
(dp206
g23
(lp207
F210
asg25
(lp208
F231
asg27
(lp209
F134
asg29
(lp210
F4
assg41
Nssg42
I2
sg20
I10
sg43
Nsg44
I0
sg45
(dp211
g47
g48
sg49
F1.3899999999999999
ssg50
Nsg51
Nsa(dp212
g13
g14
(S'\x07\xe0\x08\x1e\x0b\x05\n\x02\xf1\xe8'
tRp213
sg16
g14
(S'\x07\xe0\x08\x1e\x0b\x04\x00\x02x\xd0'
tRp214
sg18
(dp215
g20
I11
sg21
(dp216
g23
(lp217
I11
asg25
(lp218
I11
asg27
(lp219
I11
asg29
(lp220
I11
assg31
(g32
g33
tp221
sg35
(dp222
g23
(lp223
F48
asg25
(lp224
F400
asg27
(lp225
F324
asg29
(lp226
F2
assg41
Nssg42
I2
sg20
I11
sg43
Nsg44
I0
sg45
(dp227
g47
g48
sg49
F1.5700000000000001
ssg50
Nsg51
Nsa(dp228
g13
g14
(S'\x07\xe0\x08\x1e\x0b\x06\x0e\x05 \x80'
tRp229
sg16
g14
(S'\x07\xe0\x08\x1e\x0b\x05\n\x03\x15\x10'
tRp230
sg18
(dp231
g20
I12
sg21
(dp232
g23
(lp233
I12
asg25
(lp234
I12
asg27
(lp235
I12
asg29
(lp236
I12
assg31
(g32
g33
tp237
sg35
(dp238
g23
(lp239
F120
asg25
(lp240
F159
asg27
(lp241
F142
asg29
(lp242
F7
assg41
Nssg42
I2
sg20
I12
sg43
Nsg44
I0
sg45
(dp243
g47
g48
sg49
F1.52
ssg50
Nsg51
Nsa(dp244
g13
g14
(S'\x07\xe0\x08\x1e\x0b\x081\x01\xc18'
tRp245
sg16
g14
(S'\x07\xe0\x08\x1e\x0b\x06\x0e\x05Kx'
tRp246
sg18
(dp247
g20
I13
sg21
(dp248
g23
(lp249
I13
asg25
(lp250
I13
asg27
(lp251
I13
asg29
(lp252
I13
assg31
(g32
g33
tp253
sg35
(dp254
g23
(lp255
F488
asg25
(lp256
F308
asg27
(lp257
F74
asg29
(lp258
F10
assg41
Nssg42
I2
sg20
I13
sg43
Nsg44
I0
sg45
(dp259
g47
g48
sg49
F53.210000000000001
ssg50
Nsg51
Nsa(dp260
g13
g14
(S'\x07\xe0\x08\x1e\x0b\x0b\x07\x0b\xfeP'
tRp261
sg16
g14
(S'\x07\xe0\x08\x1e\x0b\x081\x01\xd8\xa8'
tRp262
sg18
(dp263
g20
I14
sg21
(dp264
g23
(lp265
I14
asg25
(lp266
I14
asg27
(lp267
I14
asg29
(lp268
I14
assg31
(g32
g33
tp269
sg35
(dp270
g23
(lp271
F100
asg25
(lp272
F238
asg27
(lp273
F298
asg29
(lp274
F13
assg41
Nssg42
I2
sg20
I14
sg43
Nsg44
I0
sg45
(dp275
g47
g48
sg49
F89.719999999999999
ssg50
Nsg51
Nsa(dp276
g13
g14
(S'\x07\xe0\x08\x1e\x0b\x11\x07\rm\x80'
tRp277
sg16
g14
(S'\x07\xe0\x08\x1e\x0b\x0b\x07\x0c%`'
tRp278
sg18
(dp279
g20
I15
sg21
(dp280
g23
(lp281
I15
asg25
(lp282
I15
asg27
(lp283
I15
asg29
(lp284
I15
assg31
(g32
g33
tp285
sg35
(dp286
g23
(lp287
F484
asg25
(lp288
F440
asg27
(lp289
F360
asg29
(lp290
F6
assg41
Nssg42
I2
sg20
I15
sg43
Nsg44
I0
sg45
(dp291
g47
g48
sg49
F89.719999999999999
ssg50
Nsg51
Nsa(dp292
g13
g14
(S'\x07\xe0\x08\x1e\x0b\x126\x06\x12\xb0'
tRp293
sg16
g14
(S'\x07\xe0\x08\x1e\x0b\x11\x07\r\x90\xa8'
tRp294
sg18
(dp295
g20
I16
sg21
(dp296
g23
(lp297
I16
asg25
(lp298
I16
asg27
(lp299
I16
asg29
(lp300
I16
assg31
(g32
g33
tp301
sg35
(dp302
g23
(lp303
F420
asg25
(lp304
F409
asg27
(lp305
F64
asg29
(lp306
F8
assg41
Nssg42
I2
sg20
I16
sg43
Nsg44
I0
sg45
(dp307
g47
g48
sg49
F1.8
ssg50
Nsg51
Nsa(dp308
g13
g14
(S'\x07\xe0\x08\x1e\x0b\x15\x19\x04\xbe\xd8'
tRp309
sg16
g14
(S'\x07\xe0\x08\x1e\x0b\x126\x065\xd8'
tRp310
sg18
(dp311
g20
I17
sg21
(dp312
g23
(lp313
I17
asg25
(lp314
I17
asg27
(lp315
I17
asg29
(lp316
I17
assg31
(g32
g33
tp317
sg35
(dp318
g23
(lp319
F404
asg25
(lp320
F29
asg27
(lp321
F148
asg29
(lp322
F6
assg41
Nssg42
I2
sg20
I17
sg43
Nsg44
I0
sg45
(dp323
g47
g48
sg49
F89.719999999999999
ssg50
Nsg51
Nsa(dp324
g13
g14
(S'\x07\xe0\x08\x1e\x0b\x16\x02\x05\x05('
tRp325
sg16
g14
(S'\x07\xe0\x08\x1e\x0b\x15\x19\x04\xe5\xe8'
tRp326
sg18
(dp327
g20
I18
sg21
(dp328
g23
(lp329
I18
asg25
(lp330
I18
asg27
(lp331
I18
asg29
(lp332
I18
assg31
(g32
g33
tp333
sg35
(dp334
g23
(lp335
F346
asg25
(lp336
F25
asg27
(lp337
F24
asg29
(lp338
F4
assg41
Nssg42
I2
sg20
I18
sg43
Nsg44
I0
sg45
(dp339
g47
g48
sg49
F1.9099999999999999
ssg50
Nsg51
Nsa(dp340
g13
g14
(S'\x07\xe0\x08\x1e\x0b\x1a\x17\x08\xba`'
tRp341
sg16
g14
(S'\x07\xe0\x08\x1e\x0b\x16\x02\x05(P'
tRp342
sg18
(dp343
g20
I19
sg21
(dp344
g23
(lp345
I19
asg25
(lp346
I19
asg27
(lp347
I19
asg29
(lp348
I19
assg31
(g32
g33
tp349
sg35
(dp350
g23
(lp351
F376
asg25
(lp352
F487
asg27
(lp353
F306
asg29
(lp354
F6
assg41
Nssg42
I2
sg20
I19
sg43
Nsg44
I0
sg45
(dp355
g47
g48
sg49
F2.4300000000000002
ssg50
Nsg51
Nsa(dp356
g13
g14
(S'\x07\xe0\x08\x1e\x0b\x1b\n\x0b/H'
tRp357
sg16
g14
(S'\x07\xe0\x08\x1e\x0b\x1a\x17\t\x04\x98'
tRp358
sg18
(dp359
g20
I20
sg21
(dp360
g23
(lp361
I20
asg25
(lp362
I20
asg27
(lp363
I20
asg29
(lp364
I20
assg31
(g32
g33
tp365
sg35
(dp366
g23
(lp367
F182
asg25
(lp368
F104
asg27
(lp369
F206
asg29
(lp370
F1
assg41
Nssg42
I2
sg20
I20
sg43
Nsg44
I0
sg45
(dp371
g47
g48
sg49
F8.2699999999999996
ssg50
Nsg51
Nsa(dp372
g13
g14
(S'\x07\xe0\x08\x1e\x0b\x1b!\x0e\xf4 '
tRp373
sg16
g14
(S'\x07\xe0\x08\x1e\x0b\x1b\n\x0b}h'
tRp374
sg18
(dp375
g20
I21
sg21
(dp376
g23
(lp377
I21
asg25
(lp378
I21
asg27
(lp379
I21
asg29
(lp380
I21
assg31
(g32
g33
tp381
sg35
(dp382
g23
(lp383
F208
asg25
(lp384
F93
asg27
(lp385
F8
asg29
(lp386
F3
assg41
Nssg42
I2
sg20
I21
sg43
Nsg44
I0
sg45
(dp387
g47
g48
sg49
F1.8700000000000001
ssg50
Nsg51
Nsa(dp388
g13
g14
(S'\x07\xe0\x08\x1e\x0b\x1c0\x05\t\x10'
tRp389
sg16
g14
(S'\x07\xe0\x08\x1e\x0b\x1b"\x00\x00\x00'
tRp390
sg18
(dp391
g20
I22
sg21
(dp392
g23
(lp393
I22
asg25
(lp394
I22
asg27
(lp395
I22
asg29
(lp396
I22
assg31
(g32
g33
tp397
sg35
(dp398
g23
(lp399
F258
asg25
(lp400
F89
asg27
(lp401
F224
asg29
(lp402
F3
assg41
Nssg42
I2
sg20
I22
sg43
Nsg44
I0
sg45
(dp403
g47
g48
sg49
F1.8
ssg50
Nsg51
Nsa(dp404
g13
g14
(S'\x07\xe0\x08\x1e\x0b\x1d\x18\x0b\x04P'
tRp405
sg16
g14
(S'\x07\xe0\x08\x1e\x0b\x1c0\x05O`'
tRp406
sg18
(dp407
g20
I23
sg21
(dp408
g23
(lp409
I23
asg25
(lp410
I23
asg27
(lp411
I23
asg29
(lp412
I23
assg31
(g32
g33
tp413
sg35
(dp414
g23
(lp415
F124
asg25
(lp416
F209
asg27
(lp417
F148
asg29
(lp418
F1
assg41
Nssg42
I2
sg20
I23
sg43
Nsg44
I0
sg45
(dp419
g47
g48
sg49
F7.4100000000000001
ssg50
Nsg51
Nsa(dp420
g13
g14
(S'\x07\xe0\x08\x1e\x0b\x1f\x06\x00>\x80'
tRp421
sg16
g14
(S'\x07\xe0\x08\x1e\x0b\x1d\x18\x0bZ@'
tRp422
sg18
(dp423
g20
I24
sg21
(dp424
g23
(lp425
I24
asg25
(lp426
I24
asg27
(lp427
I24
asg29
(lp428
I24
assg31
(g32
g33
tp429
sg35
(dp430
g23
(lp431
F204
asg25
(lp432
F156
asg27
(lp433
F256
asg29
(lp434
F4
assg41
Nssg42
I2
sg20
I24
sg43
Nsg44
I0
sg45
(dp435
g47
g48
sg49
F1.3100000000000001
ssg50
Nsg51
Nsa(dp436
g13
g14
(S'\x07\xe0\x08\x1e\x0b \x19\x014\x98'
tRp437
sg16
g14
(S'\x07\xe0\x08\x1e\x0b\x1f\x06\x00m`'
tRp438
sg18
(dp439
g20
I25
sg21
(dp440
g23
(lp441
I25
asg25
(lp442
I25
asg27
(lp443
I25
asg29
(lp444
I25
assg31
(g32
g33
tp445
sg35
(dp446
g23
(lp447
F212
asg25
(lp448
F153
asg27
(lp449
F260
asg29
(lp450
F3
assg41
Nssg42
I2
sg20
I25
sg43
Nsg44
I0
sg45
(dp451
g47
g48
sg49
F1.5800000000000001
ssg50
Nsg51
Nsa(dp452
g13
g14
(S'\x07\xe0\x08\x1e\x0b"!\x0e\t\xc0'
tRp453
sg16
g14
(S'\x07\xe0\x08\x1e\x0b \x19\x01\x86\xa0'
tRp454
sg18
(dp455
g20
I26
sg21
(dp456
g23
(lp457
I26
asg25
(lp458
I26
asg27
(lp459
I26
asg29
(lp460
I26
assg31
(g32
g33
tp461
sg35
(dp462
g23
(lp463
F298
asg25
(lp464
F246
asg27
(lp465
F254
asg29
(lp466
F4
assg41
Nssg42
I2
sg20
I26
sg43
Nsg44
I0
sg45
(dp467
g47
g48
sg49
F1.3899999999999999
ssg50
Nsg51
Nsa(dp468
g13
g14
(S'\x07\xe0\x08\x1e\x0b#4\x018\x80'
tRp469
sg16
g14
(S'\x07\xe0\x08\x1e\x0b"!\x0e[\xc8'
tRp470
sg18
(dp471
g20
I27
sg21
(dp472
g23
(lp473
I27
asg25
(lp474
I27
asg27
(lp475
I27
asg29
(lp476
I27
assg31
(g32
g33
tp477
sg35
(dp478
g23
(lp479
F282
asg25
(lp480
F342
asg27
(lp481
F236
asg29
(lp482
F2
assg41
Nssg42
I2
sg20
I27
sg43
Nsg44
I0
sg45
(dp483
g47
g48
sg49
F1.75
ssg50
Nsg51
Nsa(dp484
g13
g14
(S'\x07\xe0\x08\x1e\x0b&\x06\x06\xc6`'
tRp485
sg16
g14
(S'\x07\xe0\x08\x1e\x0b#4\x01_\x90'
tRp486
sg18
(dp487
g20
I28
sg21
(dp488
g23
(lp489
I28
asg25
(lp490
I28
asg27
(lp491
I28
asg29
(lp492
I28
assg31
(g32
g33
tp493
sg35
(dp494
g23
(lp495
F298
asg25
(lp496
F62
asg27
(lp497
F266
asg29
(lp498
F4
assg41
Nssg42
I2
sg20
I28
sg43
Nsg44
I0
sg45
(dp499
g47
g48
sg49
F1.6399999999999999
ssg50
Nsg51
Nsa(dp500
g13
g14
(S"\x07\xe0\x08\x1e\x0b'\x01\x03\x99\xe0"
tRp501
sg16
g14
(S'\x07\xe0\x08\x1e\x0b&\x06\x07\x18h'
tRp502
sg18
(dp503
g20
I29
sg21
(dp504
g23
(lp505
I29
asg25
(lp506
I29
asg27
(lp507
I29
asg29
(lp508
I29
assg31
(g32
g33
tp509
sg35
(dp510
g23
(lp511
F170
asg25
(lp512
F132
asg27
(lp513
F190
asg29
(lp514
F2
assg41
Nssg42
I2
sg20
I29
sg43
Nsg44
I0
sg45
(dp515
g47
g48
sg49
F1.8200000000000001
ssg50
Nsg51
Nsa(dp516
g13
g14
(S'\x07\xe0\x08\x1e\x0b+ \x04\xde\x18'
tRp517
sg16
g14
(S"\x07\xe0\x08\x1e\x0b'\x01\x03\xef\xd0"
tRp518
sg18
(dp519
g20
I30
sg21
(dp520
g23
(lp521
I30
asg25
(lp522
I30
asg27
(lp523
I30
asg29
(lp524
I30
assg31
(g32
g33
tp525
sg35
(dp526
g23
(lp527
F448
asg25
(lp528
F366
asg27
(lp529
F362
asg29
(lp530
F5
assg41
Nssg42
I2
sg20
I30
sg43
Nsg44
I0
sg45
(dp531
g47
g48
sg49
F89.719999999999999
ssg50
Nsg51
Nsa(dp532
g13
g14
(S'\x07\xe0\x08\x1e\x0b.2\r\xbf\x88'
tRp533
sg16
g14
(S'\x07\xe0\x08\x1e\x0b+ \x05,8'
tRp534
sg18
(dp535
g20
I31
sg21
(dp536
g23
(lp537
I31
asg25
(lp538
I31
asg27
(lp539
I31
asg29
(lp540
I31
assg31
(g32
g33
tp541
sg35
(dp542
g23
(lp543
F248
asg25
(lp544
F256
asg27
(lp545
F328
asg29
(lp546
F8
assg41
Nssg42
I2
sg20
I31
sg43
Nsg44
I0
sg45
(dp547
g47
g48
sg49
F89.719999999999999
ssg50
Nsg51
Nsa(dp548
g13
g14
(S'\x07\xe0\x08\x1e\x0b/\n\x05\x18\xb0'
tRp549
sg16
g14
(S'\x07\xe0\x08\x1e\x0b.2\r\xf2P'
tRp550
sg18
(dp551
g20
I32
sg21
(dp552
g23
(lp553
I32
asg25
(lp554
I32
asg27
(lp555
I32
asg29
(lp556
I32
assg31
(g32
g33
tp557
sg35
(dp558
g23
(lp559
F12
asg25
(lp560
F179
asg27
(lp561
F40
asg29
(lp562
F4
assg41
Nssg42
I2
sg20
I32
sg43
Nsg44
I0
sg45
(dp563
g47
g48
sg49
F1.27
ssg50
Nsg51
Nsa(dp564
g13
g14
(S'\x07\xe0\x08\x1e\x0b/&\x0b\x1b\xc0'
tRp565
sg16
g14
(S'\x07\xe0\x08\x1e\x0b/\n\x05\x9d\x80'
tRp566
sg18
(dp567
g20
I33
sg21
(dp568
g23
(lp569
I33
asg25
(lp570
I33
asg27
(lp571
I33
asg29
(lp572
I33
assg31
(g32
g33
tp573
sg35
(dp574
g23
(lp575
F74
asg25
(lp576
F56
asg27
(lp577
F48
asg29
(lp578
F5
assg41
Nssg42
I2
sg20
I33
sg43
Nsg44
I0
sg45
(dp579
g47
g48
sg49
F1.46
ssg50
Nsg51
Nsa(dp580
g13
g14
(S'\x07\xe0\x08\x1e\x0b0\x15\x01w\x00'
tRp581
sg16
g14
(S'\x07\xe0\x08\x1e\x0b/&\x0by\x80'
tRp582
sg18
(dp583
g20
I34
sg21
(dp584
g23
(lp585
I34
asg25
(lp586
I34
asg27
(lp587
I34
asg29
(lp588
I34
assg31
(g32
g33
tp589
sg35
(dp590
g23
(lp591
F2
asg25
(lp592
F178
asg27
(lp593
F176
asg29
(lp594
F7
assg41
Nssg42
I2
sg20
I34
sg43
Nsg44
I0
sg45
(dp595
g47
g48
sg49
F2
ssg50
Nsg51
Nsa(dp596
g13
g14
(S'\x07\xe0\x08\x1e\x0b03\x00\xcf\x08'
tRp597
sg16
g14
(S'\x07\xe0\x08\x1e\x0b0\x15\x01\xb5\x80'
tRp598
sg18
(dp599
g20
I35
sg21
(dp600
g23
(lp601
I35
asg25
(lp602
I35
asg27
(lp603
I35
asg29
(lp604
I35
assg31
(g32
g33
tp605
sg35
(dp606
g23
(lp607
F6
asg25
(lp608
F3
asg27
(lp609
F110
asg29
(lp610
F2
assg41
Nssg42
I2
sg20
I35
sg43
Nsg44
I0
sg45
(dp611
g47
g48
sg49
F54.390000000000001
ssg50
Nsg51
Nsa(dp612
g13
g14
(S'\x07\xe0\x08\x1e\x0b2)\x03\x9d\xc8'
tRp613
sg16
g14
(S'\x07\xe0\x08\x1e\x0b03\x01(\xe0'
tRp614
sg18
(dp615
g20
I36
sg21
(dp616
g23
(lp617
I36
asg25
(lp618
I36
asg27
(lp619
I36
asg29
(lp620
I36
assg31
(g32
g33
tp621
sg35
(dp622
g23
(lp623
F24
asg25
(lp624
F117
asg27
(lp625
F462
asg29
(lp626
F9
assg41
Nssg42
I2
sg20
I36
sg43
Nsg44
I0
sg45
(dp627
g47
g48
sg49
F3.6600000000000001
ssg50
Nsg51
Nsa(dp628
g13
g14
(S'\x07\xe0\x08\x1e\x0b30\x0e\x8e\x90'
tRp629
sg16
g14
(S'\x07\xe0\x08\x1e\x0b2)\x03\xe8\x00'
tRp630
sg18
(dp631
g20
I37
sg21
(dp632
g23
(lp633
I37
asg25
(lp634
I37
asg27
(lp635
I37
asg29
(lp636
I37
assg31
(g32
g33
tp637
sg35
(dp638
g23
(lp639
F86
asg25
(lp640
F280
asg27
(lp641
F416
asg29
(lp642
F1
assg41
Nssg42
I2
sg20
I37
sg43
Nsg44
I0
sg45
(dp643
g47
g48
sg49
F7.2599999999999998
ssg50
Nsg51
Nsa(dp644
g13
g14
(S'\x07\xe0\x08\x1e\x0b4\x0c\x0b7\x18'
tRp645
sg16
g14
(S'\x07\xe0\x08\x1e\x0b30\x0e\xecP'
tRp646
sg18
(dp647
g20
I38
sg21
(dp648
g23
(lp649
I38
asg25
(lp650
I38
asg27
(lp651
I38
asg29
(lp652
I38
assg31
(g32
g33
tp653
sg35
(dp654
g23
(lp655
F154
asg25
(lp656
F319
asg27
(lp657
F6
asg29
(lp658
F3
assg41
Nssg42
I2
sg20
I38
sg43
Nsg44
I0
sg45
(dp659
g47
g48
sg49
F1.6100000000000001
ssg50
Nsg51
Nsa(dp660
g13
g14
(S'\x07\xe0\x08\x1e\x0b;\n\x07\xb4\xa8'
tRp661
sg16
g14
(S'\x07\xe0\x08\x1e\x0b4\x0c\x0b\x94\xd8'
tRp662
sg18
(dp663
g20
I39
sg21
(dp664
g23
(lp665
I39
asg25
(lp666
I39
asg27
(lp667
I39
asg29
(lp668
I39
assg31
(g32
g33
tp669
sg35
(dp670
g23
(lp671
F330
asg25
(lp672
F217
asg27
(lp673
F442
asg29
(lp674
F11
assg41
Nssg42
I2
sg20
I39
sg43
Nsg44
I0
sg45
(dp675
g47
g48
sg49
F89.719999999999999
ssg50
Nsg51
Nsa(dp676
g13
g14
(S'\x07\xe0\x08\x1e\x0b;:\x0e\xecP'
tRp677
sg16
g14
(S'\x07\xe0\x08\x1e\x0b;\n\x08\x12h'
tRp678
sg18
(dp679
g20
I40
sg21
(dp680
g23
(lp681
I40
asg25
(lp682
I40
asg27
(lp683
I40
asg29
(lp684
I40
assg31
(g32
g33
tp685
sg35
(dp686
g23
(lp687
F244
asg25
(lp688
F176
asg27
(lp689
F38
asg29
(lp690
F6
assg41
Nssg42
I2
sg20
I40
sg43
Nsg44
I0
sg45
(dp691
g47
g48
sg49
F1.3100000000000001
ssg50
Nsg51
Nsa(dp692
g13
g14
(S'\x07\xe0\x08\x1e\x0c\x00;\x00\xb7\x98'
tRp693
sg16
g14
(S'\x07\xe0\x08\x1e\x0b;;\x00\x07\xd0'
tRp694
sg18
(dp695
g20
I41
sg21
(dp696
g23
(lp697
I41
asg25
(lp698
I41
asg27
(lp699
I41
asg29
(lp700
I41
assg31
(g32
g33
tp701
sg35
(dp702
g23
(lp703
F246
asg25
(lp704
F180
asg27
(lp705
F42
asg29
(lp706
F9
assg41
Nssg42
I2
sg20
I41
sg43
Nsg44
I0
sg45
(dp707
g47
g48
sg49
F1.74
ssg50
Nsg51
Nsa(dp708
g13
g14
(S'\x07\xe0\x08\x1e\x0c\x01(\x0es8'
tRp709
sg16
g14
(S'\x07\xe0\x08\x1e\x0c\x00;\x01\x15X'
tRp710
sg18
(dp711
g20
I42
sg21
(dp712
g23
(lp713
I42
asg25
(lp714
I42
asg27
(lp715
I42
asg29
(lp716
I42
assg31
(g32
g33
tp717
sg35
(dp718
g23
(lp719
F56
asg25
(lp720
F274
asg27
(lp721
F118
asg29
(lp722
F5
assg41
Nssg42
I2
sg20
I42
sg43
Nsg44
I0
sg45
(dp723
g47
g48
sg49
F1.1299999999999999
ssg50
Nsg51
Nsa(dp724
g13
g14
(S'\x07\xe0\x08\x1e\x0c\x02\x11\x0c!x'
tRp725
sg16
g14
(S'\x07\xe0\x08\x1e\x0c\x01(\x0e\xc9('
tRp726
sg18
(dp727
g20
I43
sg21
(dp728
g23
(lp729
I43
asg25
(lp730
I43
asg27
(lp731
I43
asg29
(lp732
I43
assg31
(g32
g33
tp733
sg35
(dp734
g23
(lp735
F48
asg25
(lp736
F374
asg27
(lp737
F98
asg29
(lp738
F5
assg41
Nssg42
I2
sg20
I43
sg43
Nsg44
I0
sg45
(dp739
g47
g48
sg49
F1.1799999999999999
ssg50
Nsg51
Nsa(dp740
g13
g14
(S'\x07\xe0\x08\x1e\x0c\x02;\x03K\xc0'
tRp741
sg16
g14
(S'\x07\xe0\x08\x1e\x0c\x02\x11\x0cwh'
tRp742
sg18
(dp743
g20
I44
sg21
(dp744
g23
(lp745
I44
asg25
(lp746
I44
asg27
(lp747
I44
asg29
(lp748
I44
assg31
(g32
g33
tp749
sg35
(dp750
g23
(lp751
F46
asg25
(lp752
F456
asg27
(lp753
F102
asg29
(lp754
F7
assg41
Nssg42
I2
sg20
I44
sg43
Nsg44
I0
sg45
(dp755
g47
g48
sg49
F1.3
ssg50
Nsg51
Nsa(dp756
g13
g14
(S'\x07\xe0\x08\x1e\x0c\x04\t\x01\xc5 '
tRp757
sg16
g14
(S'\x07\xe0\x08\x1e\x0c\x02;\x03\xa9\x80'
tRp758
sg18
(dp759
g20
I45
sg21
(dp760
g23
(lp761
I45
asg25
(lp762
I45
asg27
(lp763
I45
asg29
(lp764
I45
assg31
(g32
g33
tp765
sg35
(dp766
g23
(lp767
F122
asg25
(lp768
F362
asg27
(lp769
F170
asg29
(lp770
F5
assg41
Nssg42
I2
sg20
I45
sg43
Nsg44
I0
sg45
(dp771
g47
g48
sg49
F1
ssg50
Nsg51
Nsa(dp772
g13
g14
(S'\x07\xe0\x08\x1e\x0c\x056\r\xd3\x10'
tRp773
sg16
g14
(S'\x07\xe0\x08\x1e\x0c\x04\t\x02\x1b\x10'
tRp774
sg18
(dp775
g20
I46
sg21
(dp776
g23
(lp777
I46
asg25
(lp778
I46
asg27
(lp779
I46
asg29
(lp780
I46
assg31
(g32
g33
tp781
sg35
(dp782
g23
(lp783
F118
asg25
(lp784
F334
asg27
(lp785
F180
asg29
(lp786
F14
assg41
Nssg42
I2
sg20
I46
sg43
Nsg44
I0
sg45
(dp787
g47
g48
sg49
F89.719999999999999
ssg50
Nsg51
Nsa(dp788
g13
g14
(S'\x07\xe0\x08\x1e\x0c\x07\x0f\x02\x0fX'
tRp789
sg16
g14
(S'\x07\xe0\x08\x1e\x0c\x056\x0e,\xe8'
tRp790
sg18
(dp791
g20
I47
sg21
(dp792
g23
(lp793
I47
asg25
(lp794
I47
asg27
(lp795
I47
asg29
(lp796
I47
assg31
(g32
g33
tp797
sg35
(dp798
g23
(lp799
F104
asg25
(lp800
F448
asg27
(lp801
F166
asg29
(lp802
F8
assg41
Nssg42
I2
sg20
I47
sg43
Nsg44
I0
sg45
(dp803
g47
g48
sg49
F1.8999999999999999
ssg50
Nsg51
Nsa(dp804
g13
g14
(S'\x07\xe0\x08\x1e\x0c\x08\x04\x08\x7f\xc8'
tRp805
sg16
g14
(S'\x07\xe0\x08\x1e\x0c\x07\x0f\x02eH'
tRp806
sg18
(dp807
g20
I48
sg21
(dp808
g23
(lp809
I48
asg25
(lp810
I48
asg27
(lp811
I48
asg29
(lp812
I48
assg31
(g32
g33
tp813
sg35
(dp814
g23
(lp815
F64
asg25
(lp816
F510
asg27
(lp817
F128
asg29
(lp818
F10
assg41
Nssg42
I2
sg20
I48
sg43
Nsg44
I0
sg45
(dp819
g47
g48
sg49
F89.719999999999999
ssg50
Nsg51
Nsa(dp820
g13
g14
(S'\x07\xe0\x08\x1e\x0c\x086\x01\xa1\xf8'
tRp821
sg16
g14
(S'\x07\xe0\x08\x1e\x0c\x08\x04\x08\xe5X'
tRp822
sg18
(dp823
g20
I49
sg21
(dp824
g23
(lp825
I49
asg25
(lp826
I49
asg27
(lp827
I49
asg29
(lp828
I49
assg31
(g32
g33
tp829
sg35
(dp830
g23
(lp831
F144
asg25
(lp832
F383
asg27
(lp833
F72
asg29
(lp834
F5
assg41
Nssg42
I2
sg20
I49
sg43
Nsg44
I0
sg45
(dp835
g47
g48
sg49
F1.23
ssg50
Nsg51
Nsa(dp836
g13
g14
(S'\x07\xe0\x08\x1e\x0c\x0b\n\x0eL('
tRp837
sg16
g14
(S'\x07\xe0\x08\x1e\x0c\x086\x02\x03\xa0'
tRp838
sg18
(dp839
g20
I50
sg21
(dp840
g23
(lp841
I50
asg25
(lp842
I50
asg27
(lp843
I50
asg29
(lp844
I50
assg31
(g32
g33
tp845
sg35
(dp846
g23
(lp847
F188
asg25
(lp848
F294
asg27
(lp849
F284
asg29
(lp850
F6
assg41
Nssg42
I2
sg20
I50
sg43
Nsg44
I0
sg45
(dp851
g47
g48
sg49
F1.4299999999999999
ssg50
Nsg51
Nsa(dp852
g13
g14
(S'\x07\xe0\x08\x1e\x0c\x0c\x06\x0bRp'
tRp853
sg16
g14
(S'\x07\xe0\x08\x1e\x0c\x0b\n\x0e\xb5\xa0'
tRp854
sg18
(dp855
g20
I51
sg21
(dp856
g23
(lp857
I51
asg25
(lp858
I51
asg27
(lp859
I51
asg29
(lp860
I51
assg31
(g32
g33
tp861
sg35
(dp862
g23
(lp863
F26
asg25
(lp864
F273
asg27
(lp865
F206
asg29
(lp866
F7
assg41
Nssg42
I2
sg20
I51
sg43
Nsg44
I0
sg45
(dp867
g47
g48
sg49
F1.99
ssg50
Nsg51
Nsa(dp868
g13
g14
(S'\x07\xe0\x08\x1e\x0c\r\x1d\x04\x0f\x10'
tRp869
sg16
g14
(S'\x07\xe0\x08\x1e\x0c\x0c\x06\x0b\xa8`'
tRp870
sg18
(dp871
g20
I52
sg21
(dp872
g23
(lp873
I52
asg25
(lp874
I52
asg27
(lp875
I52
asg29
(lp876
I52
assg31
(g32
g33
tp877
sg35
(dp878
g23
(lp879
F88
asg25
(lp880
F427
asg27
(lp881
F230
asg29
(lp882
F6
assg41
Nssg42
I2
sg20
I52
sg43
Nsg44
I0
sg45
(dp883
g47
g48
sg49
F1.6299999999999999
ssg50
Nsg51
Nsa(dp884
g13
g14
(S'\x07\xe0\x08\x1e\x0c\x0e*\tN\xd0'
tRp885
sg16
g14
(S'\x07\xe0\x08\x1e\x0c\r\x1d\x04h\xe8'
tRp886
sg18
(dp887
g20
I53
sg21
(dp888
g23
(lp889
I53
asg25
(lp890
I53
asg27
(lp891
I53
asg29
(lp892
I53
assg31
(g32
g33
tp893
sg35
(dp894
g23
(lp895
F140
asg25
(lp896
F391
asg27
(lp897
F130
asg29
(lp898
F9
assg41
Nssg42
I2
sg20
I53
sg43
Nsg44
I0
sg45
(dp899
g47
g48
sg49
F1.5800000000000001
ssg50
Nsg51
Nsa(dp900
g13
g14
(S'\x07\xe0\x08\x1e\x0c\x12\t\x0e_\xb0'
tRp901
sg16
g14
(S'\x07\xe0\x08\x1e\x0c\x0e*\t\xb4`'
tRp902
sg18
(dp903
g20
I54
sg21
(dp904
g23
(lp905
I54
asg25
(lp906
I54
asg27
(lp907
I54
asg29
(lp908
I54
assg31
(g32
g33
tp909
sg35
(dp910
g23
(lp911
F228
asg25
(lp912
F349
asg27
(lp913
F362
asg29
(lp914
F8
assg41
Nssg42
I2
sg20
I54
sg43
Nsg44
I0
sg45
(dp915
g47
g48
sg49
F89.719999999999999
ssg50
Nsg51
Nsa(dp916
g13
g14
(S'\x07\xe0\x08\x1e\x0c\x14\x16\x03\xa5\x98'
tRp917
sg16
g14
(S'\x07\xe0\x08\x1e\x0c\x12\t\x0e\xb1\xb8'
tRp918
sg18
(dp919
g20
I55
sg21
(dp920
g23
(lp921
I55
asg25
(lp922
I55
asg27
(lp923
I55
asg29
(lp924
I55
assg31
(g32
g33
tp925
sg35
(dp926
g23
(lp927
F176
asg25
(lp928
F474
asg27
(lp929
F160
asg29
(lp930
F11
assg41
Nssg42
I2
sg20
I55
sg43
Nsg44
I0
sg45
(dp931
g47
g48
sg49
F89.709999999999994
ssg50
Nsg51
Nsa(dp932
g13
g14
(S'\x07\xe0\x08\x1e\x0c\x14:\x06x@'
tRp933
sg16
g14
(S'\x07\xe0\x08\x1e\x0c\x14\x16\x03\xd8`'
tRp934
sg18
(dp935
g20
I56
sg21
(dp936
g23
(lp937
I56
asg25
(lp938
I56
asg27
(lp939
I56
asg29
(lp940
I56
assg31
(g32
g33
tp941
sg35
(dp942
g23
(lp943
F128
asg25
(lp944
F319
asg27
(lp945
F86
asg29
(lp946
F3
assg41
Nssg42
I2
sg20
I56
sg43
Nsg44
I0
sg45
(dp947
g47
g48
sg49
F1.3500000000000001
ssg50
Nsg51
Nsa(dp948
g13
g14
(S'\x07\xe0\x08\x1e\x0c\x159\n\x1d\xd8'
tRp949
sg16
g14
(S'\x07\xe0\x08\x1e\x0c\x14:\x06\xb6\xc0'
tRp950
sg18
(dp951
g20
I57
sg21
(dp952
g23
(lp953
I57
asg25
(lp954
I57
asg27
(lp955
I57
asg29
(lp956
I57
assg31
(g32
g33
tp957
sg35
(dp958
g23
(lp959
F100
asg25
(lp960
F427
asg27
(lp961
F118
asg29
(lp962
F7
assg41
Nssg42
I2
sg20
I57
sg43
Nsg44
I0
sg45
(dp963
g47
g48
sg49
F1.1000000000000001
ssg50
Nsg51
Nsa(dp964
g13
g14
(S'\x07\xe0\x08\x1e\x0c\x16%\x0e\xb1\xb8'
tRp965
sg16
g14
(S'\x07\xe0\x08\x1e\x0c\x159\n\x83h'
tRp966
sg18
(dp967
g20
I58
sg21
(dp968
g23
(lp969
I58
asg25
(lp970
I58
asg27
(lp971
I58
asg29
(lp972
I58
assg31
(g32
g33
tp973
sg35
(dp974
g23
(lp975
F166
asg25
(lp976
F425
asg27
(lp977
F20
asg29
(lp978
F11
assg41
Nssg42
I2
sg20
I58
sg43
Nsg44
I0
sg45
(dp979
g47
g48
sg49
F1.95
ssg50
Nsg51
Nsa(dp980
g13
g14
(S'\x07\xe0\x08\x1e\x0c\x1a/\x05G\x90'
tRp981
sg16
g14
(S'\x07\xe0\x08\x1e\x0c\x16%\x0e\xf08'
tRp982
sg18
(dp983
g20
I59
sg21
(dp984
g23
(lp985
I59
asg25
(lp986
I59
asg27
(lp987
I59
asg29
(lp988
I59
assg31
(g32
g33
tp989
sg35
(dp990
g23
(lp991
F274
asg25
(lp992
F500
asg27
(lp993
F336
asg29
(lp994
F10
assg41
Nssg42
I2
sg20
I59
sg43
Nsg44
I0
sg45
(dp995
g47
g48
sg49
F89.719999999999999
ssg50
Nsg51
Nsa(dp996
g13
g14
(S'\x07\xe0\x08\x1e\x0c\x1d\x0c\x02.\x98'
tRp997
sg16
g14
(S'\x07\xe0\x08\x1e\x0c\x1a/\x05\xb4\xf0'
tRp998
sg18
(dp999
g20
I60
sg21
(dp1000
g23
(lp1001
I60
asg25
(lp1002
I60
asg27
(lp1003
I60
asg29
(lp1004
I60
assg31
(g32
g33
tp1005
sg35
(dp1006
g23
(lp1007
F192
asg25
(lp1008
F465
asg27
(lp1009
F194
asg29
(lp1010
F14
assg41
Nssg42
I2
sg20
I60
sg43
Nsg44
I0
sg45
(dp1011
g47
g48
sg49
F39.649999999999999
ssg50
Nsg51
Nsa(dp1012
g13
g14
(S'\x07\xe0\x08\x1e\x0c\x1d4\x05\xbc\xc0'
tRp1013
sg16
g14
(S'\x07\xe0\x08\x1e\x0c\x1d\x0c\x02\x98\x10'
tRp1014
sg18
(dp1015
g20
I61
sg21
(dp1016
g23
(lp1017
I61
asg25
(lp1018
I61
asg27
(lp1019
I61
asg29
(lp1020
I61
assg31
(g32
g33
tp1021
sg35
(dp1022
g23
(lp1023
F102
asg25
(lp1024
F360
asg27
(lp1025
F58
asg29
(lp1026
F9
assg41
Nssg42
I2
sg20
I61
sg43
Nsg44
I0
sg45
(dp1027
g47
g48
sg49
F1.5
ssg50
Nsg51
Nsa(dp1028
g13
g14
(S'\x07\xe0\x08\x1e\x0c \x1f\x06\xce0'
tRp1029
sg16
g14
(S'\x07\xe0\x08\x1e\x0c\x1d4\x06&8'
tRp1030
sg18
(dp1031
g20
I62
sg21
(dp1032
g23
(lp1033
I62
asg25
(lp1034
I62
asg27
(lp1035
I62
asg29
(lp1036
I62
assg31
(g32
g33
tp1037
sg35
(dp1038
g23
(lp1039
F224
asg25
(lp1040
F417
asg27
(lp1041
F214
asg29
(lp1042
F13
assg41
Nssg42
I2
sg20
I62
sg43
Nsg44
I0
sg45
(dp1043
g47
g48
sg49
F90.200000000000003
ssg50
Nsg51
Nsa(dp1044
g13
g14
(S'\x07\xe0\x08\x1e\x0c$\n\x04\x84@'
tRp1045
sg16
g14
(S'\x07\xe0\x08\x1e\x0c \x1f\x07/\xd8'
tRp1046
sg18
(dp1047
g20
I63
sg21
(dp1048
g23
(lp1049
I63
asg25
(lp1050
I63
asg27
(lp1051
I63
asg29
(lp1052
I63
assg31
(g32
g33
tp1053
sg35
(dp1054
g23
(lp1055
F324
asg25
(lp1056
F396
asg27
(lp1057
F288
asg29
(lp1058
F7
assg41
Nssg42
I2
sg20
I63
sg43
Nsg44
I0
sg45
(dp1059
g47
g48
sg49
F89.719999999999999
ssg50
Nsg51
Nsa(dp1060
g13
g14
(S'\x07\xe0\x08\x1e\x0c%\x16\x02.\x98'
tRp1061
sg16
g14
(S'\x07\xe0\x08\x1e\x0c$\n\x04\xf5\x88'
tRp1062
sg18
(dp1063
g20
I64
sg21
(dp1064
g23
(lp1065
I64
asg25
(lp1066
I64
asg27
(lp1067
I64
asg29
(lp1068
I64
assg31
(g32
g33
tp1069
sg35
(dp1070
g23
(lp1071
F34
asg25
(lp1072
F484
asg27
(lp1073
F246
asg29
(lp1074
F7
assg41
Nssg42
I2
sg20
I64
sg43
Nsg44
I0
sg45
(dp1075
g47
g48
sg49
F89.709999999999994
ssg50
Nsg51
Nsa(dp1076
g13
g14
(S'\x07\xe0\x08\x1e\x0c&\x08\t\xf2\xe0'
tRp1077
sg16
g14
(S'\x07\xe0\x08\x1e\x0c%\x16\x02x\xd0'
tRp1078
sg18
(dp1079
g20
I65
sg21
(dp1080
g23
(lp1081
I65
asg25
(lp1082
I65
asg27
(lp1083
I65
asg29
(lp1084
I65
assg31
(g32
g33
tp1085
sg35
(dp1086
g23
(lp1087
F70
asg25
(lp1088
F310
asg27
(lp1089
F120
asg29
(lp1090
F5
assg41
Nssg42
I2
sg20
I65
sg43
Nsg44
I0
sg45
(dp1091
g47
g48
sg49
F1.21
ssg50
Nsg51
Nsa(dp1092
g13
g14
(S"\x07\xe0\x08\x1e\x0c'\x02\x0b\x00h"
tRp1093
sg16
g14
(S'\x07\xe0\x08\x1e\x0c&\x08\n\\X'
tRp1094
sg18
(dp1095
g20
I66
sg21
(dp1096
g23
(lp1097
I66
asg25
(lp1098
I66
asg27
(lp1099
I66
asg29
(lp1100
I66
assg31
(g32
g33
tp1101
sg35
(dp1102
g23
(lp1103
F64
asg25
(lp1104
F252
asg27
(lp1105
F154
asg29
(lp1106
F6
assg41
Nssg42
I2
sg20
I66
sg43
Nsg44
I0
sg45
(dp1107
g47
g48
sg49
F1.1299999999999999
ssg50
Nsg51
Nsa(dp1108
g13
g14
(S'\x07\xe0\x08\x1e\x0c(\x08\x00\x1f@'
tRp1109
sg16
g14
(S"\x07\xe0\x08\x1e\x0c'\x02\x0bi\xe0"
tRp1110
sg18
(dp1111
g20
I67
sg21
(dp1112
g23
(lp1113
I67
asg25
(lp1114
I67
asg27
(lp1115
I67
asg29
(lp1116
I67
assg31
(g32
g33
tp1117
sg35
(dp1118
g23
(lp1119
F94
asg25
(lp1120
F226
asg27
(lp1121
F158
asg29
(lp1122
F6
assg41
Nssg42
I2
sg20
I67
sg43
Nsg44
I0
sg45
(dp1123
g47
g48
sg49
F1.1599999999999999
ssg50
Nsg51
Nsa(dp1124
g13
g14
(S'\x07\xe0\x08\x1e\x0c(1\x04\x1a\xc8'
tRp1125
sg16
g14
(S'\x07\xe0\x08\x1e\x0c(\x08\x00\x8c\xa0'
tRp1126
sg18
(dp1127
g20
I68
sg21
(dp1128
g23
(lp1129
I68
asg25
(lp1130
I68
asg27
(lp1131
I68
asg29
(lp1132
I68
assg31
(g32
g33
tp1133
sg35
(dp1134
g23
(lp1135
F114
asg25
(lp1136
F339
asg27
(lp1137
F84
asg29
(lp1138
F4
assg41
Nssg42
I2
sg20
I68
sg43
Nsg44
I0
sg45
(dp1139
g47
g48
sg49
F1.27
ssg50
Nsg51
Nsa(dp1140
g13
g14
(S'\x07\xe0\x08\x1e\x0c*\x11\n\xec\xe0'
tRp1141
sg16
g14
(S'\x07\xe0\x08\x1e\x0c(1\x04x\x88'
tRp1142
sg18
(dp1143
g20
I69
sg21
(dp1144
g23
(lp1145
I69
asg25
(lp1146
I69
asg27
(lp1147
I69
asg29
(lp1148
I69
assg31
(g32
g33
tp1149
sg35
(dp1150
g23
(lp1151
F160
asg25
(lp1152
F254
asg27
(lp1153
F148
asg29
(lp1154
F8
assg41
Nssg42
I2
sg20
I69
sg43
Nsg44
I0
sg45
(dp1155
g47
g48
sg49
F1.6699999999999999
ssg50
Nsg51
Nsa(dp1156
g13
g14
(S'\x07\xe0\x08\x1e\x0c,\x11\n5H'
tRp1157
sg16
g14
(S'\x07\xe0\x08\x1e\x0c*\x11\x0bB\xd0'
tRp1158
sg18
(dp1159
g20
I70
sg21
(dp1160
g23
(lp1161
I70
asg25
(lp1162
I70
asg27
(lp1163
I70
asg29
(lp1164
I70
assg31
(g32
g33
tp1165
sg35
(dp1166
g23
(lp1167
F136
asg25
(lp1168
F439
asg27
(lp1169
F274
asg29
(lp1170
F8
assg41
Nssg42
I2
sg20
I70
sg43
Nsg44
I0
sg45
(dp1171
g47
g48
sg49
F3.6200000000000001
ssg50
Nsg51
Nsa(dp1172
g13
g14
(S'\x07\xe0\x08\x1e\x0c- \x04\xf5\x88'
tRp1173
sg16
g14
(S'\x07\xe0\x08\x1e\x0c,\x11\n\xa2\xa8'
tRp1174
sg18
(dp1175
g20
I71
sg21
(dp1176
g23
(lp1177
I71
asg25
(lp1178
I71
asg27
(lp1179
I71
asg29
(lp1180
I71
assg31
(g32
g33
tp1181
sg35
(dp1182
g23
(lp1183
F80
asg25
(lp1184
F206
asg27
(lp1185
F222
asg29
(lp1186
F6
assg41
Nssg42
I2
sg20
I71
sg43
Nsg44
I0
sg45
(dp1187
g47
g48
sg49
F1.5800000000000001
ssg50
Nsg51
Nsa(dp1188
g13
g14
(S'\x07\xe0\x08\x1e\x0c.\x11\r>\xa0'
tRp1189
sg16
g14
(S'\x07\xe0\x08\x1e\x0c- \x05b\xe8'
tRp1190
sg18
(dp1191
g20
I72
sg21
(dp1192
g23
(lp1193
I72
asg25
(lp1194
I72
asg27
(lp1195
I72
asg29
(lp1196
I72
assg31
(g32
g33
tp1197
sg35
(dp1198
g23
(lp1199
F20
asg25
(lp1200
F289
asg27
(lp1201
F174
asg29
(lp1202
F5
assg41
Nssg42
I2
sg20
I72
sg43
Nsg44
I0
sg45
(dp1203
g47
g48
sg49
F1.23
ssg50
Nsg51
Nsa(dp1204
g13
g14
(S'\x07\xe0\x08\x1e\x0c.3\x07\xcc\x18'
tRp1205
sg16
g14
(S'\x07\xe0\x08\x1e\x0c.\x11\r} '
tRp1206
sg18
(dp1207
g20
I73
sg21
(dp1208
g23
(lp1209
I73
asg25
(lp1210
I73
asg27
(lp1211
I73
asg29
(lp1212
I73
assg31
(g32
g33
tp1213
sg35
(dp1214
g23
(lp1215
F56
asg25
(lp1216
F265
asg27
(lp1217
F112
asg29
(lp1218
F2
assg41
Nssg42
I2
sg20
I73
sg43
Nsg44
I0
sg45
(dp1219
g47
g48
sg49
F1.8400000000000001
ssg50
Nsg51
Nsa(dp1220
g13
g14
(S'\x07\xe0\x08\x1e\x0c/8\x01o0'
tRp1221
sg16
g14
(S'\x07\xe0\x08\x1e\x0c.3\x08"\x08'
tRp1222
sg18
(dp1223
g20
I74
sg21
(dp1224
g23
(lp1225
I74
asg25
(lp1226
I74
asg27
(lp1227
I74
asg29
(lp1228
I74
assg31
(g32
g33
tp1229
sg35
(dp1230
g23
(lp1231
F154
asg25
(lp1232
F406
asg27
(lp1233
F140
asg29
(lp1234
F4
assg41
Nssg42
I2
sg20
I74
sg43
Nsg44
I0
sg45
(dp1235
g47
g48
sg49
F1.0800000000000001
ssg50
Nsg51
Nsa(dp1236
g13
g14
(S'\x07\xe0\x08\x1e\x0c05\x0cs\x80'
tRp1237
sg16
g14
(S'\x07\xe0\x08\x1e\x0c/8\x01\xa5\xe0'
tRp1238
sg18
(dp1239
g20
I75
sg21
(dp1240
g23
(lp1241
I75
asg25
(lp1242
I75
asg27
(lp1243
I75
asg29
(lp1244
I75
assg31
(g32
g33
tp1245
sg35
(dp1246
g23
(lp1247
F152
asg25
(lp1248
F408
asg27
(lp1249
F192
asg29
(lp1250
F2
assg41
Nssg42
I2
sg20
I75
sg43
Nsg44
I0
sg45
(dp1251
g47
g48
sg49
F1.6899999999999999
ssg50
Nsg51
Nsa(dp1252
g13
g14
(S'\x07\xe0\x08\x1e\x0c1%\x07\xc80'
tRp1253
sg16
g14
(S'\x07\xe0\x08\x1e\x0c05\x0c\xdc\xf8'
tRp1254
sg18
(dp1255
g20
I76
sg21
(dp1256
g23
(lp1257
I76
asg25
(lp1258
I76
asg27
(lp1259
I76
asg29
(lp1260
I76
assg31
(g32
g33
tp1261
sg35
(dp1262
g23
(lp1263
F196
asg25
(lp1264
F375
asg27
(lp1265
F134
asg29
(lp1266
F1
assg41
Nssg42
I2
sg20
I76
sg43
Nsg44
I0
sg45
(dp1267
g47
g48
sg49
F7.2300000000000004
ssg50
Nsg51
Nsa(dp1268
g13
g14
(S"\x07\xe0\x08\x1e\x0c2\x14\r'0"
tRp1269
sg16
g14
(S'\x07\xe0\x08\x1e\x0c1%\x085\x90'
tRp1270
sg18
(dp1271
g20
I77
sg21
(dp1272
g23
(lp1273
I77
asg25
(lp1274
I77
asg27
(lp1275
I77
asg29
(lp1276
I77
assg31
(g32
g33
tp1277
sg35
(dp1278
g23
(lp1279
F266
asg25
(lp1280
F509
asg27
(lp1281
F24
asg29
(lp1282
F3
assg41
Nssg42
I2
sg20
I77
sg43
Nsg44
I0
sg45
(dp1283
g47
g48
sg49
F1.5
ssg50
Nsg51
Nsa(dp1284
g13
g14
(S'\x07\xe0\x08\x1e\x0c4\x04\x0c\x92\xc0'
tRp1285
sg16
g14
(S'\x07\xe0\x08\x1e\x0c2\x14\ri\x98'
tRp1286
sg18
(dp1287
g20
I78
sg21
(dp1288
g23
(lp1289
I78
asg25
(lp1290
I78
asg27
(lp1291
I78
asg29
(lp1292
I78
assg31
(g32
g33
tp1293
sg35
(dp1294
g23
(lp1295
F230
asg25
(lp1296
F328
asg27
(lp1297
F236
asg29
(lp1298
F4
assg41
Nssg42
I2
sg20
I78
sg43
Nsg44
I0
sg45
(dp1299
g47
g48
sg49
F1.28
ssg50
Nsg51
Nsa(dp1300
g13
g14
(S"\x07\xe0\x08\x1e\x0c4'\r\xb7\xb8"
tRp1301
sg16
g14
(S'\x07\xe0\x08\x1e\x0c4\x04\r\x0b\xd8'
tRp1302
sg18
(dp1303
g20
I79
sg21
(dp1304
g23
(lp1305
I79
asg25
(lp1306
I79
asg27
(lp1307
I79
asg29
(lp1308
I79
assg31
(g32
g33
tp1309
sg35
(dp1310
g23
(lp1311
F110
asg25
(lp1312
F357
asg27
(lp1313
F82
asg29
(lp1314
F3
assg41
Nssg42
I2
sg20
I79
sg43
Nsg44
I0
sg45
(dp1315
g47
g48
sg49
F1.25
ssg50
Nsg51
Nsa(dp1316
g13
g14
(S'\x07\xe0\x08\x1e\x0c5-\x05~@'
tRp1317
sg16
g14
(S"\x07\xe0\x08\x1e\x0c4'\r\xf68"
tRp1318
sg18
(dp1319
g20
I80
sg21
(dp1320
g23
(lp1321
I80
asg25
(lp1322
I80
asg27
(lp1323
I80
asg29
(lp1324
I80
assg31
(g32
g33
tp1325
sg35
(dp1326
g23
(lp1327
F358
asg25
(lp1328
F435
asg27
(lp1329
F56
asg29
(lp1330
F4
assg41
Nssg42
I2
sg20
I80
sg43
Nsg44
I0
sg45
(dp1331
g47
g48
sg49
F1.46
ssg50
Nsg51
Nsa(dp1332
g13
g14
(S'\x07\xe0\x08\x1e\x0c:0\x0e\xecP'
tRp1333
sg16
g14
(S'\x07\xe0\x08\x1e\x0c5-\x05\xdf\xe8'
tRp1334
sg18
(dp1335
g20
I81
sg21
(dp1336
g23
(lp1337
I81
asg25
(lp1338
I81
asg27
(lp1339
I81
asg29
(lp1340
I81
assg31
(g32
g33
tp1341
sg35
(dp1342
g23
(lp1343
F512
asg25
(lp1344
F459
asg27
(lp1345
F310
asg29
(lp1346
F7
assg41
Nssg42
I2
sg20
I81
sg43
Nsg44
I0
sg45
(dp1347
g47
g48
sg49
F89.719999999999999
ssg50
Nsg51
Nsa(dp1348
g13
g14
(S'\x07\xe0\x08\x1e\x0c;5\x05r\x88'
tRp1349
sg16
g14
(S'\x07\xe0\x08\x1e\x0c:0\x0f*\xd0'
tRp1350
sg18
(dp1351
g20
I82
sg21
(dp1352
g23
(lp1353
I82
asg25
(lp1354
I82
asg27
(lp1355
I82
asg29
(lp1356
I82
assg31
(g32
g33
tp1357
sg35
(dp1358
g23
(lp1359
F176
asg25
(lp1360
F478
asg27
(lp1361
F98
asg29
(lp1362
F5
assg41
Nssg42
I2
sg20
I82
sg43
Nsg44
I0
sg45
(dp1363
g47
g48
sg49
F1.1299999999999999
ssg50
Nsg51
Nsa(dp1364
g13
g14
(S'\x07\xe0\x08\x1e\r\x00-\x0b\xf6\x80'
tRp1365
sg16
g14
(S'\x07\xe0\x08\x1e\x0c;5\x05\xe7\xb8'
tRp1366
sg18
(dp1367
g20
I83
sg21
(dp1368
g23
(lp1369
I83
asg25
(lp1370
I83
asg27
(lp1371
I83
asg29
(lp1372
I83
assg31
(g32
g33
tp1373
sg35
(dp1374
g23
(lp1375
F212
asg25
(lp1376
F385
asg27
(lp1377
F70
asg29
(lp1378
F4
assg41
Nssg42
I2
sg20
I83
sg43
Nsg44
I0
sg45
(dp1379
g47
g48
sg49
F1.3600000000000001
ssg50
Nsg51
Nsa(dp1380
g13
g14
(S'\x07\xe0\x08\x1e\r\x016\x07\xb8\x90'
tRp1381
sg16
g14
(S'\x07\xe0\x08\x1e\r\x00-\x0cg\xc8'
tRp1382
sg18
(dp1383
g20
I84
sg21
(dp1384
g23
(lp1385
I84
asg25
(lp1386
I84
asg27
(lp1387
I84
asg29
(lp1388
I84
assg31
(g32
g33
tp1389
sg35
(dp1390
g23
(lp1391
F294
asg25
(lp1392
F407
asg27
(lp1393
F244
asg29
(lp1394
F1
assg41
Nssg42
I2
sg20
I84
sg43
Nsg44
I0
sg45
(dp1395
g47
g48
sg49
F7.2300000000000004
ssg50
Nsg51
Nsa(dp1396
g13
g14
(S'\x07\xe0\x08\x1e\r\x02.\x07\xb8\x90'
tRp1397
sg16
g14
(S'\x07\xe0\x08\x1e\r\x016\x081\xa8'
tRp1398
sg18
(dp1399
g20
I85
sg21
(dp1400
g23
(lp1401
I85
asg25
(lp1402
I85
asg27
(lp1403
I85
asg29
(lp1404
I85
assg31
(g32
g33
tp1405
sg35
(dp1406
g23
(lp1407
F126
asg25
(lp1408
F306
asg27
(lp1409
F184
asg29
(lp1410
F2
assg41
Nssg42
I2
sg20
I85
sg43
Nsg44
I0
sg45
(dp1411
g47
g48
sg49
F1.51
ssg50
Nsg51
Nsa(dp1412
g13
g14
(S'\x07\xe0\x08\x1e\r\x07\x0c\x01L\x08'
tRp1413
sg16
g14
(S'\x07\xe0\x08\x1e\r\x02.\x08=`'
tRp1414
sg18
(dp1415
g20
I86
sg21
(dp1416
g23
(lp1417
I86
asg25
(lp1418
I86
asg27
(lp1419
I86
asg29
(lp1420
I86
assg31
(g32
g33
tp1421
sg35
(dp1422
g23
(lp1423
F154
asg25
(lp1424
F367
asg27
(lp1425
F510
asg29
(lp1426
F9
assg41
Nssg42
I2
sg20
I86
sg43
Nsg44
I0
sg45
(dp1427
g47
g48
sg49
F90.200000000000003
ssg50
Nsg51
Nsa(dp1428
g13
g14
(S'\x07\xe0\x08\x1e\r\x078\x00\x90\x88'
tRp1429
sg16
g14
(S'\x07\xe0\x08\x1e\r\x07\x0c\x01\x8a\x88'
tRp1430
sg18
(dp1431
g20
I87
sg21
(dp1432
g23
(lp1433
I87
asg25
(lp1434
I87
asg27
(lp1435
I87
asg29
(lp1436
I87
assg31
(g32
g33
tp1437
sg35
(dp1438
g23
(lp1439
F38
asg25
(lp1440
F498
asg27
(lp1441
F170
asg29
(lp1442
F3
assg41
Nssg42
I2
sg20
I87
sg43
Nsg44
I0
sg45
(dp1443
g47
g48
sg49
F1.29
ssg50
Nsg51
Nsa(dp1444
g13
g14
(S'\x07\xe0\x08\x1e\r\n+\t\xa0\xd8'
tRp1445
sg16
g14
(S'\x07\xe0\x08\x1e\r\x078\x01\x05\xb8'
tRp1446
sg18
(dp1447
g20
I88
sg21
(dp1448
g23
(lp1449
I88
asg25
(lp1450
I88
asg27
(lp1451
I88
asg29
(lp1452
I88
assg31
(g32
g33
tp1453
sg35
(dp1454
g23
(lp1455
F312
asg25
(lp1456
F445
asg27
(lp1457
F212
asg29
(lp1458
F6
assg41
Nssg42
I2
sg20
I88
sg43
Nsg44
I0
sg45
(dp1459
g47
g48
sg49
F1.6399999999999999
ssg50
Nsg51
Nsa(dp1460
g13
g14
(S'\x07\xe0\x08\x1e\r\x0b8\x05\xd8\x18'
tRp1461
sg16
g14
(S'\x07\xe0\x08\x1e\r\n+\t\xe3@'
tRp1462
sg18
(dp1463
g20
I89
sg21
(dp1464
g23
(lp1465
I89
asg25
(lp1466
I89
asg27
(lp1467
I89
asg29
(lp1468
I89
assg31
(g32
g33
tp1469
sg35
(dp1470
g23
(lp1471
F136
asg25
(lp1472
F420
asg27
(lp1473
F146
asg29
(lp1474
F5
assg41
Nssg42
I2
sg20
I89
sg43
Nsg44
I0
sg45
(dp1475
g47
g48
sg49
F1.1599999999999999
ssg50
Nsg51
Nsa(dp1476
g13
g14
(S'\x07\xe0\x08\x1e\r\r\x06\x06\xd6\x00'
tRp1477
sg16
g14
(S'\x07\xe0\x08\x1e\r\x0b8\x06Q0'
tRp1478
sg18
(dp1479
g20
I90
sg21
(dp1480
g23
(lp1481
I90
asg25
(lp1482
I90
asg27
(lp1483
I90
asg29
(lp1484
I90
assg31
(g32
g33
tp1485
sg35
(dp1486
g23
(lp1487
F80
asg25
(lp1488
F471
asg27
(lp1489
F198
asg29
(lp1490
F7
assg41
Nssg42
I2
sg20
I90
sg43
Nsg44
I0
sg45
(dp1491
g47
g48
sg49
F89.719999999999999
ssg50
Nsg51
Nsa(dp1492
g13
g14
(S'\x07\xe0\x08\x1e\r\r-\x05\xa1h'
tRp1493
sg16
g14
(S'\x07\xe0\x08\x1e\r\r\x06\x07\x1cP'
tRp1494
sg18
(dp1495
g20
I91
sg21
(dp1496
g23
(lp1497
I91
asg25
(lp1498
I91
asg27
(lp1499
I91
asg29
(lp1500
I91
assg31
(g32
g33
tp1501
sg35
(dp1502
g23
(lp1503
F236
asg25
(lp1504
F352
asg27
(lp1505
F30
asg29
(lp1506
F4
assg41
Nssg42
I2
sg20
I91
sg43
Nsg44
I0
sg45
(dp1507
g47
g48
sg49
F1.23
ssg50
Nsg51
Nsa(dp1508
g13
g14
(S'\x07\xe0\x08\x1e\r\x11\x17\x0e\xe8h'
tRp1509
sg16
g14
(S'\x07\xe0\x08\x1e\r\r-\x06\x16\x98'
tRp1510
sg18
(dp1511
g20
I92
sg21
(dp1512
g23
(lp1513
I92
asg25
(lp1514
I92
asg27
(lp1515
I92
asg29
(lp1516
I92
assg31
(g32
g33
tp1517
sg35
(dp1518
g23
(lp1519
F204
asg25
(lp1520
F400
asg27
(lp1521
F380
asg29
(lp1522
F10
assg41
Nssg42
I2
sg20
I92
sg43
Nsg44
I0
sg45
(dp1523
g47
g48
sg49
F89.719999999999999
ssg50
Nsg51
Nsa(dp1524
g13
g14
(S'\x07\xe0\x08\x1e\r\x123\x0c\x8e\xd8'
tRp1525
sg16
g14
(S'\x07\xe0\x08\x1e\r\x11\x18\x00#('
tRp1526
sg18
(dp1527
g20
I93
sg21
(dp1528
g23
(lp1529
I93
asg25
(lp1530
I93
asg27
(lp1531
I93
asg29
(lp1532
I93
assg31
(g32
g33
tp1533
sg35
(dp1534
g23
(lp1535
F2
asg25
(lp1536
F432
asg27
(lp1537
F344
asg29
(lp1538
F12
assg41
Nssg42
I2
sg20
I93
sg43
Nsg44
I0
sg45
(dp1539
g47
g48
sg49
F89.719999999999999
ssg50
Nsg51
Nsa(dp1540
g13
g14
(S'\x07\xe0\x08\x1e\r\x17\x12\x06\xbe\x90'
tRp1541
sg16
g14
(S'\x07\xe0\x08\x1e\r\x123\r\x1bx'
tRp1542
sg18
(dp1543
g20
I94
sg21
(dp1544
g23
(lp1545
I94
asg25
(lp1546
I94
asg27
(lp1547
I94
asg29
(lp1548
I94
assg31
(g32
g33
tp1549
sg35
(dp1550
g23
(lp1551
F452
asg25
(lp1552
F454
asg27
(lp1553
F270
asg29
(lp1554
F6
assg41
Nssg42
I2
sg20
I94
sg43
Nsg44
I0
sg45
(dp1555
g47
g48
sg49
F89.719999999999999
ssg50
Nsg51
Nsa(dp1556
g13
g14
(S'\x07\xe0\x08\x1e\r\x18+\x0c\xe4\xc8'
tRp1557
sg16
g14
(S'\x07\xe0\x08\x1e\r\x17\x12\x077\xa8'
tRp1558
sg18
(dp1559
g20
I95
sg21
(dp1560
g23
(lp1561
I95
asg25
(lp1562
I95
asg27
(lp1563
I95
asg29
(lp1564
I95
assg31
(g32
g33
tp1565
sg35
(dp1566
g23
(lp1567
F178
asg25
(lp1568
F374
asg27
(lp1569
F138
asg29
(lp1570
F8
assg41
Nssg42
I2
sg20
I95
sg43
Nsg44
I0
sg45
(dp1571
g47
g48
sg49
F1.6499999999999999
ssg50
Nsg51
Nsa(dp1572
g13
g14
(S'\x07\xe0\x08\x1e\r\x19\r\x0c\xc1\xa0'
tRp1573
sg16
g14
(S'\x07\xe0\x08\x1e\r\x18+\r/\x00'
tRp1574
sg18
(dp1575
g20
I96
sg21
(dp1576
g23
(lp1577
I96
asg25
(lp1578
I96
asg27
(lp1579
I96
asg29
(lp1580
I96
assg31
(g32
g33
tp1581
sg35
(dp1582
g23
(lp1583
F258
asg25
(lp1584
F239
asg27
(lp1585
F4
asg29
(lp1586
F5
assg41
Nssg42
I2
sg20
I96
sg43
Nsg44
I0
sg45
(dp1587
g47
g48
sg49
F1.45
ssg50
Nsg51
Nsa(dp1588
g13
g14
(S'\x07\xe0\x08\x1e\r\x194\x01,\xc8'
tRp1589
sg16
g14
(S'\x07\xe0\x08\x1e\r\x19\r\r#H'
tRp1590
sg18
(dp1591
g20
I97
sg21
(dp1592
g23
(lp1593
I97
asg25
(lp1594
I97
asg27
(lp1595
I97
asg29
(lp1596
I97
assg31
(g32
g33
tp1597
sg35
(dp1598
g23
(lp1599
F102
asg25
(lp1600
F326
asg27
(lp1601
F104
asg29
(lp1602
F3
assg41
Nssg42
I2
sg20
I97
sg43
Nsg44
I0
sg45
(dp1603
g47
g48
sg49
F1.21
ssg50
Nsg51
Nsa(dp1604
g13
g14
(S'\x07\xe0\x08\x1e\r\x1b\x11\x00\x9c@'
tRp1605
sg16
g14
(S'\x07\xe0\x08\x1e\r\x194\x01\xad\xb0'
tRp1606
sg18
(dp1607
g20
I98
sg21
(dp1608
g23
(lp1609
I98
asg25
(lp1610
I98
asg27
(lp1611
I98
asg29
(lp1612
I98
assg31
(g32
g33
tp1613
sg35
(dp1614
g23
(lp1615
F220
asg25
(lp1616
F299
asg27
(lp1617
F122
asg29
(lp1618
F7
assg41
Nssg42
I2
sg20
I98
sg43
Nsg44
I0
sg45
(dp1619
g47
g48
sg49
F1.3200000000000001
ssg50
Nsg51
Nsa(dp1620
g13
g14
(S'\x07\xe0\x08\x1e\r\x1b)\x02F\x08'
tRp1621
sg16
g14
(S'\x07\xe0\x08\x1e\r\x1b\x11\x01\x19@'
tRp1622
sg18
(dp1623
g20
I99
sg21
(dp1624
g23
(lp1625
I99
asg25
(lp1626
I99
asg27
(lp1627
I99
asg29
(lp1628
I99
assg31
(g32
g33
tp1629
sg35
(dp1630
g23
(lp1631
F14
asg25
(lp1632
F348
asg27
(lp1633
F52
asg29
(lp1634
F8
assg41
Nssg42
I2
sg20
I99
sg43
Nsg44
I0
sg45
(dp1635
g47
g48
sg49
F1.8500000000000001
ssg50
Nsg51
Nsa(dp1636
g13
g14
(S'\x07\xe0\x08\x1e\r\x1d2\x04\x1e\xb0'
tRp1637
sg16
g14
(S'\x07\xe0\x08\x1e\r\x1b)\x02\xc6\xf0'
tRp1638
sg18
(dp1639
g20
I100
sg21
(dp1640
g23
(lp1641
I100
asg25
(lp1642
I100
asg27
(lp1643
I100
asg29
(lp1644
I100
assg31
(g32
g33
tp1645
sg35
(dp1646
g23
(lp1647
F166
asg25
(lp1648
F282
asg27
(lp1649
F302
asg29
(lp1650
F5
assg41
Nssg42
I2
sg20
I100
sg43
Nsg44
I0
sg45
(dp1651
g47
g48
sg49
F1.46
ssg50
Nsg51
Nsa(dp1652
g13
g14
(S'\x07\xe0\x08\x1e\r\x1e\x10\x06&8'
tRp1653
sg16
g14
(S'\x07\xe0\x08\x1e\r\x1d2\x04\x93\xe0'
tRp1654
sg18
(dp1655
g20
I101
sg21
(dp1656
g23
(lp1657
I101
asg25
(lp1658
I101
asg27
(lp1659
I101
asg29
(lp1660
I101
assg31
(g32
g33
tp1661
sg35
(dp1662
g23
(lp1663
F148
asg25
(lp1664
F492
asg27
(lp1665
F12
asg29
(lp1666
F1
assg41
Nssg42
I2
sg20
I101
sg43
Nsg44
I0
sg45
(dp1667
g47
g48
sg49
F7.1699999999999999
ssg50
Nsg51
Nsa(dp1668
g13
g14
(S'\x07\xe0\x08\x1e\r \x13\x06\x06\xf8'
tRp1669
sg16
g14
(S'\x07\xe0\x08\x1e\r\x1e\x10\x06\xb2\xd8'
tRp1670
sg18
(dp1671
g20
I102
sg21
(dp1672
g23
(lp1673
I102
asg25
(lp1674
I102
asg27
(lp1675
I102
asg29
(lp1676
I102
assg31
(g32
g33
tp1677
sg35
(dp1678
g23
(lp1679
F198
asg25
(lp1680
F412
asg27
(lp1681
F224
asg29
(lp1682
F9
assg41
Nssg42
I2
sg20
I102
sg43
Nsg44
I0
sg45
(dp1683
g47
g48
sg49
F2.96
ssg50
Nsg51
Nsa(dp1684
g13
g14
(S'\x07\xe0\x08\x1e\r!\x1f\x0c\xe0\xe0'
tRp1685
sg16
g14
(S'\x07\xe0\x08\x1e\r \x13\x06\x8b\xc8'
tRp1686
sg18
(dp1687
g20
I103
sg21
(dp1688
g23
(lp1689
I103
asg25
(lp1690
I103
asg27
(lp1691
I103
asg29
(lp1692
I103
assg31
(g32
g33
tp1693
sg35
(dp1694
g23
(lp1695
F94
asg25
(lp1696
F394
asg27
(lp1697
F184
asg29
(lp1698
F6
assg41
Nssg42
I2
sg20
I103
sg43
Nsg44
I0
sg45
(dp1699
g47
g48
sg49
F1.8700000000000001
ssg50
Nsg51
Nsa(dp1700
g13
g14
(S'\x07\xe0\x08\x1e\r"\x02\x08P\xe8'
tRp1701
sg16
g14
(S'\x07\xe0\x08\x1e\r!\x1f\rY\xf8'
tRp1702
sg18
(dp1703
g20
I104
sg21
(dp1704
g23
(lp1705
I104
asg25
(lp1706
I104
asg27
(lp1707
I104
asg29
(lp1708
I104
assg31
(g32
g33
tp1709
sg35
(dp1710
g23
(lp1711
F56
asg25
(lp1712
F316
asg27
(lp1713
F92
asg29
(lp1714
F2
assg41
Nssg42
I2
sg20
I104
sg43
Nsg44
I0
sg45
(dp1715
g47
g48
sg49
F1.8200000000000001
ssg50
Nsg51
Nsa(dp1716
g13
g14
(S'\x07\xe0\x08\x1e\r#2\n\x9e\xc0'
tRp1717
sg16
g14
(S'\x07\xe0\x08\x1e\r"\x02\x08\xca\x00'
tRp1718
sg18
(dp1719
g20
I105
sg21
(dp1720
g23
(lp1721
I105
asg25
(lp1722
I105
asg27
(lp1723
I105
asg29
(lp1724
I105
assg31
(g32
g33
tp1725
sg35
(dp1726
g23
(lp1727
F128
asg25
(lp1728
F265
asg27
(lp1729
F254
asg29
(lp1730
F11
assg41
Nssg42
I2
sg20
I105
sg43
Nsg44
I0
sg45
(dp1731
g47
g48
sg49
F3.1000000000000001
ssg50
Nsg51
Nsa(dp1732
g13
g14
(S'\x07\xe0\x08\x1e\r%\x02\x0e[\xc8'
tRp1733
sg16
g14
(S"\x07\xe0\x08\x1e\r#2\x0b'x"
tRp1734
sg18
(dp1735
g20
I106
sg21
(dp1736
g23
(lp1737
I106
asg25
(lp1738
I106
asg27
(lp1739
I106
asg29
(lp1740
I106
assg31
(g32
g33
tp1741
sg35
(dp1742
g23
(lp1743
F188
asg25
(lp1744
F338
asg27
(lp1745
F160
asg29
(lp1746
F4
assg41
Nssg42
I2
sg20
I106
sg43
Nsg44
I0
sg45
(dp1747
g47
g48
sg49
F1.24
ssg50
Nsg51
Nsa(dp1748
g13
g14
(S'\x07\xe0\x08\x1e\r% \x07b\xa0'
tRp1749
sg16
g14
(S'\x07\xe0\x08\x1e\r%\x02\x0e\xd4\xe0'
tRp1750
sg18
(dp1751
g20
I107
sg21
(dp1752
g23
(lp1753
I107
asg25
(lp1754
I107
asg27
(lp1755
I107
asg29
(lp1756
I107
assg31
(g32
g33
tp1757
sg35
(dp1758
g23
(lp1759
F44
asg25
(lp1760
F364
asg27
(lp1761
F68
asg29
(lp1762
F4
assg41
Nssg42
I2
sg20
I107
sg43
Nsg44
I0
sg45
(dp1763
g47
g48
sg49
F1.4299999999999999
ssg50
Nsg51
Nsa(dp1764
g13
g14
(S'\x07\xe0\x08\x1e\r&\x1e\x01[\xa8'
tRp1765
sg16
g14
(S'\x07\xe0\x08\x1e\r% \x07\xe7p'
tRp1766
sg18
(dp1767
g20
I108
sg21
(dp1768
g23
(lp1769
I108
asg25
(lp1770
I108
asg27
(lp1771
I108
asg29
(lp1772
I108
assg31
(g32
g33
tp1773
sg35
(dp1774
g23
(lp1775
F114
asg25
(lp1776
F510
asg27
(lp1777
F110
asg29
(lp1778
F7
assg41
Nssg42
I2
sg20
I108
sg43
Nsg44
I0
sg45
(dp1779
g47
g48
sg49
F2.96
ssg50
Nsg51
Nsa(dp1780
g13
g14
(S"\x07\xe0\x08\x1e\r',\n\xba\x18"
tRp1781
sg16
g14
(S'\x07\xe0\x08\x1e\r&\x1e\x01\xdc\x90'
tRp1782
sg18
(dp1783
g20
I109
sg21
(dp1784
g23
(lp1785
I109
asg25
(lp1786
I109
asg27
(lp1787
I109
asg29
(lp1788
I109
assg31
(g32
g33
tp1789
sg35
(dp1790
g23
(lp1791
F240
asg25
(lp1792
F378
asg27
(lp1793
F206
asg29
(lp1794
F3
assg41
Nssg42
I2
sg20
I109
sg43
Nsg44
I0
sg45
(dp1795
g47
g48
sg49
F1.3
ssg50
Nsg51
Nsa(dp1796
g13
g14
(S'\x07\xe0\x08\x1e\r)\x16\t\xdfX'
tRp1797
sg16
g14
(S"\x07\xe0\x08\x1e\r',\x0b;\x00"
tRp1798
sg18
(dp1799
g20
I110
sg21
(dp1800
g23
(lp1801
I110
asg25
(lp1802
I110
asg27
(lp1803
I110
asg29
(lp1804
I110
assg31
(g32
g33
tp1805
sg35
(dp1806
g23
(lp1807
F76
asg25
(lp1808
F446
asg27
(lp1809
F320
asg29
(lp1810
F8
assg41
Nssg42
I2
sg20
I110
sg43
Nsg44
I0
sg45
(dp1811
g47
g48
sg49
F89.719999999999999
ssg50
Nsg51
Nsa(dp1812
g13
g14
(S'\x07\xe0\x08\x1e\r*$\x02\xbb8'
tRp1813
sg16
g14
(S'\x07\xe0\x08\x1e\r)\x16\n\\X'
tRp1814
sg18
(dp1815
g20
I111
sg21
(dp1816
g23
(lp1817
I111
asg25
(lp1818
I111
asg27
(lp1819
I111
asg29
(lp1820
I111
assg31
(g32
g33
tp1821
sg35
(dp1822
g23
(lp1823
F30
asg25
(lp1824
F142
asg27
(lp1825
F282
asg29
(lp1826
F6
assg41
Nssg42
I2
sg20
I111
sg43
Nsg44
I0
sg45
(dp1827
g47
g48
sg49
F1.3300000000000001
ssg50
Nsg51
Nsa(dp1828
g13
g14
(S'\x07\xe0\x08\x1e\r+\x18\x00\xa0('
tRp1829
sg16
g14
(S'\x07\xe0\x08\x1e\r*$\x03@\x08'
tRp1830
sg18
(dp1831
g20
I112
sg21
(dp1832
g23
(lp1833
I112
asg25
(lp1834
I112
asg27
(lp1835
I112
asg29
(lp1836
I112
assg31
(g32
g33
tp1837
sg35
(dp1838
g23
(lp1839
F218
asg25
(lp1840
F483
asg27
(lp1841
F38
asg29
(lp1842
F5
assg41
Nssg42
I2
sg20
I112
sg43
Nsg44
I0
sg45
(dp1843
g47
g48
sg49
F1.4199999999999999
ssg50
Nsg51
Nsa(dp1844
g13
g14
(S"\x07\xe0\x08\x1e\r,'\nXp"
tRp1845
sg16
g14
(S'\x07\xe0\x08\x1e\r+\x18\x01!\x10'
tRp1846
sg18
(dp1847
g20
I113
sg21
(dp1848
g23
(lp1849
I113
asg25
(lp1850
I113
asg27
(lp1851
I113
asg29
(lp1852
I113
assg31
(g32
g33
tp1853
sg35
(dp1854
g23
(lp1855
F162
asg25
(lp1856
F461
asg27
(lp1857
F80
asg29
(lp1858
F10
assg41
Nssg42
I2
sg20
I113
sg43
Nsg44
I0
sg45
(dp1859
g47
g48
sg49
F2.3500000000000001
ssg50
Nsg51
Nsa(dp1860
g13
g14
(S'\x07\xe0\x08\x1e\r-.\x01\xe4`'
tRp1861
sg16
g14
(S"\x07\xe0\x08\x1e\r,'\n\xec\xe0"
tRp1862
sg18
(dp1863
g20
I114
sg21
(dp1864
g23
(lp1865
I114
asg25
(lp1866
I114
asg27
(lp1867
I114
asg29
(lp1868
I114
assg31
(g32
g33
tp1869
sg35
(dp1870
g23
(lp1871
F278
asg25
(lp1872
F386
asg27
(lp1873
F168
asg29
(lp1874
F2
assg41
Nssg42
I2
sg20
I114
sg43
Nsg44
I0
sg45
(dp1875
g47
g48
sg49
F1.8200000000000001
ssg50
Nsg51
Nsa(dp1876
g13
g14
(S'\x07\xe0\x08\x1e\r.8\r\xa0H'
tRp1877
sg16
g14
(S'\x07\xe0\x08\x1e\r-.\x02i0'
tRp1878
sg18
(dp1879
g20
I115
sg21
(dp1880
g23
(lp1881
I115
asg25
(lp1882
I115
asg27
(lp1883
I115
asg29
(lp1884
I115
assg31
(g32
g33
tp1885
sg35
(dp1886
g23
(lp1887
F92
asg25
(lp1888
F431
asg27
(lp1889
F136
asg29
(lp1890
F9
assg41
Nssg42
I2
sg20
I115
sg43
Nsg44
I0
sg45
(dp1891
g47
g48
sg49
F2.0299999999999998
ssg50
Nsg51
Nsa(dp1892
g13
g14
(S'\x07\xe0\x08\x1e\r2\x12\x0b\xa4x'
tRp1893
sg16
g14
(S'\x07\xe0\x08\x1e\r.8\x0e)\x00'
tRp1894
sg18
(dp1895
g20
I116
sg21
(dp1896
g23
(lp1897
I116
asg25
(lp1898
I116
asg27
(lp1899
I116
asg29
(lp1900
I116
assg31
(g32
g33
tp1901
sg35
(dp1902
g23
(lp1903
F348
asg25
(lp1904
F401
asg27
(lp1905
F244
asg29
(lp1906
F6
assg41
Nssg42
I2
sg20
I116
sg43
Nsg44
I0
sg45
(dp1907
g47
g48
sg49
F89.719999999999999
ssg50
Nsg51
Nsa(dp1908
g13
g14
(S'\x07\xe0\x08\x1e\r3\x14\x0b\xa0\x90'
tRp1909
sg16
g14
(S'\x07\xe0\x08\x1e\r2\x12\x0c-0'
tRp1910
sg18
(dp1911
g20
I117
sg21
(dp1912
g23
(lp1913
I117
asg25
(lp1914
I117
asg27
(lp1915
I117
asg29
(lp1916
I117
assg31
(g32
g33
tp1917
sg35
(dp1918
g23
(lp1919
F140
asg25
(lp1920
F222
asg27
(lp1921
F128
asg29
(lp1922
F7
assg41
Nssg42
I2
sg20
I117
sg43
Nsg44
I0
sg45
(dp1923
g47
g48
sg49
F1.2
ssg50
Nsg51
Nsa(dp1924
g13
g14
(S'\x07\xe0\x08\x1e\r69\r\xe6\x98'
tRp1925
sg16
g14
(S'\x07\xe0\x08\x1e\r3\x14\x0c)H'
tRp1926
sg18
(dp1927
g20
I118
sg21
(dp1928
g23
(lp1929
I118
asg25
(lp1930
I118
asg27
(lp1931
I118
asg29
(lp1932
I118
assg31
(g32
g33
tp1933
sg35
(dp1934
g23
(lp1935
F312
asg25
(lp1936
F68
asg27
(lp1937
F482
asg29
(lp1938
F4
assg41
Nssg42
I2
sg20
I118
sg43
Nsg44
I0
sg45
(dp1939
g47
g48
sg49
F89.719999999999999
ssg50
Nsg51
Nsa(dp1940
g13
g14
(S'\x07\xe0\x08\x1e\r8\x1e\x01O\xf0'
tRp1941
sg16
g14
(S'\x07\xe0\x08\x1e\r69\x0eoP'
tRp1942
sg18
(dp1943
g20
I119
sg21
(dp1944
g23
(lp1945
I119
asg25
(lp1946
I119
asg27
(lp1947
I119
asg29
(lp1948
I119
assg31
(g32
g33
tp1949
sg35
(dp1950
g23
(lp1951
F496
asg25
(lp1952
F328
asg27
(lp1953
F62
asg29
(lp1954
F5
assg41
Nssg42
I2
sg20
I119
sg43
Nsg44
I0
sg45
(dp1955
g47
g48
sg49
F1.49
ssg50
Nsg51
Nsa(dp1956
g13
g14
(S'\x07\xe0\x08\x1e\r:\x03\x02*\xb0'
tRp1957
sg16
g14
(S'\x07\xe0\x08\x1e\r8\x1e\x01\xd8\xa8'
tRp1958
sg18
(dp1959
g20
I120
sg21
(dp1960
g23
(lp1961
I120
asg25
(lp1962
I120
asg27
(lp1963
I120
asg29
(lp1964
I120
assg31
(g32
g33
tp1965
sg35
(dp1966
g23
(lp1967
F66
asg25
(lp1968
F470
asg27
(lp1969
F422
asg29
(lp1970
F3
assg41
Nssg42
I2
sg20
I120
sg43
Nsg44
I0
sg45
(dp1971
g47
g48
sg49
F1.0900000000000001
ssg50
Nsg51
Nsa(dp1972
g13
g14
(S'\x07\xe0\x08\x1e\r;\x07\x01\xf0\x18'
tRp1973
sg16
g14
(S'\x07\xe0\x08\x1e\r:\x03\x02\xb7P'
tRp1974
sg18
(dp1975
g20
I121
sg21
(dp1976
g23
(lp1977
I121
asg25
(lp1978
I121
asg27
(lp1979
I121
asg29
(lp1980
I121
assg31
(g32
g33
tp1981
sg35
(dp1982
g23
(lp1983
F8
asg25
(lp1984
F195
asg27
(lp1985
F426
asg29
(lp1986
F1
assg41
Nssg42
I2
sg20
I121
sg43
Nsg44
I0
sg45
(dp1987
g47
g48
sg49
F7.6500000000000004
ssg50
Nsg51
Nsa(dp1988
g13
g14
(S'\x07\xe0\x08\x1e\x0e\x004\x06\xd6\x00'
tRp1989
sg16
g14
(S'\x07\xe0\x08\x1e\r;\x07\x02\x80\xa0'
tRp1990
sg18
(dp1991
g20
I122
sg21
(dp1992
g23
(lp1993
I122
asg25
(lp1994
I122
asg27
(lp1995
I122
asg29
(lp1996
I122
assg31
(g32
g33
tp1997
sg35
(dp1998
g23
(lp1999
F116
asg25
(lp2000
F505
asg27
(lp2001
F456
asg29
(lp2002
F3
assg41
Nssg42
I2
sg20
I122
sg43
Nsg44
I0
sg45
(dp2003
g47
g48
sg49
F1.3100000000000001
ssg50
Nsg51
Nsa(dp2004
g13
g14
(S'\x07\xe0\x08\x1e\x0e\x02\x01\x04]0'
tRp2005
sg16
g14
(S'\x07\xe0\x08\x1e\x0e\x004\x07^\xb8'
tRp2006
sg18
(dp2007
g20
I123
sg21
(dp2008
g23
(lp2009
I123
asg25
(lp2010
I123
asg27
(lp2011
I123
asg29
(lp2012
I123
assg31
(g32
g33
tp2013
sg35
(dp2014
g23
(lp2015
F66
asg25
(lp2016
F470
asg27
(lp2017
F422
asg29
(lp2018
F1
assg41
Nssg42
I2
sg20
I123
sg43
Nsg44
I0
sg45
(dp2019
g47
g48
sg49
F7.0099999999999998
ssg50
Nsg51
Nsa(dp2020
g13
g14
(S'\x07\xe0\x08\x1e\x0e\x03\x14\x0b\x088'
tRp2021
sg16
g14
(S'\x07\xe0\x08\x1e\x0e\x02\x01\x04\xe5\xe8'
tRp2022
sg18
(dp2023
g20
I124
sg21
(dp2024
g23
(lp2025
I124
asg25
(lp2026
I124
asg27
(lp2027
I124
asg29
(lp2028
I124
assg31
(g32
g33
tp2029
sg35
(dp2030
g23
(lp2031
F52
asg25
(lp2032
F417
asg27
(lp2033
F388
asg29
(lp2034
F2
assg41
Nssg42
I2
sg20
I124
sg43
Nsg44
I0
sg45
(dp2035
g47
g48
sg49
F1.5
ssg50
Nsg51
Nsa(dp2036
g13
g14
(S'\x07\xe0\x08\x1e\x0e\x05\x01\x06\x1a\x80'
tRp2037
sg16
g14
(S'\x07\xe0\x08\x1e\x0e\x03\x14\x0b\x94\xd8'
tRp2038
sg18
(dp2039
g20
I125
sg21
(dp2040
g23
(lp2041
I125
asg25
(lp2042
I125
asg27
(lp2043
I125
asg29
(lp2044
I125
assg31
(g32
g33
tp2045
sg35
(dp2046
g23
(lp2047
F86
asg25
(lp2048
F494
asg27
(lp2049
F478
asg29
(lp2050
F2
assg41
Nssg42
I2
sg20
I125
sg43
Nsg44
I0
sg45
(dp2051
g47
g48
sg49
F1.5600000000000001
ssg50
Nsg51
Nsa(dp2052
g13
g14
(S'\x07\xe0\x08\x1e\x0e\x07\x1d\x04Qx'
tRp2053
sg16
g14
(S'\x07\xe0\x08\x1e\x0e\x05\x01\x06\xb2\xd8'
tRp2054
sg18
(dp2055
g20
I126
sg21
(dp2056
g23
(lp2057
I126
asg25
(lp2058
I126
asg27
(lp2059
I126
asg29
(lp2060
I126
assg31
(g32
g33
tp2061
sg35
(dp2062
g23
(lp2063
F376
asg25
(lp2064
F168
asg27
(lp2065
F446
asg29
(lp2066
F3
assg41
Nssg42
I2
sg20
I126
sg43
Nsg44
I0
sg45
(dp2067
g47
g48
sg49
F1.5800000000000001
ssg50
Nsg51
Nsa(dp2068
g13
g14
(S'\x07\xe0\x08\x1e\x0e\t\x06\x0e\x1dH'
tRp2069
sg16
g14
(S'\x07\xe0\x08\x1e\x0e\x07\x1d\x04\xe2\x00'
tRp2070
sg18
(dp2071
g20
I127
sg21
(dp2072
g23
(lp2073
I127
asg25
(lp2074
I127
asg27
(lp2075
I127
asg29
(lp2076
I127
assg31
(g32
g33
tp2077
sg35
(dp2078
g23
(lp2079
F422
asg25
(lp2080
F441
asg27
(lp2081
F362
asg29
(lp2082
F1
assg41
Nssg42
I2
sg20
I127
sg43
Nsg44
I0
sg45
(dp2083
g47
g48
sg49
F7.1200000000000001
ssg50
Nsg51
Nsa(dp2084
g13
g14
(S'\x07\xe0\x08\x1e\x0e\x0b\x1f\x0c\x06 '
tRp2085
sg16
g14
(S'\x07\xe0\x08\x1e\x0e\t\x06\x0e\x96`'
tRp2086
sg18
(dp2087
g20
I128
sg21
(dp2088
g23
(lp2089
I128
asg25
(lp2090
I128
asg27
(lp2091
I128
asg29
(lp2092
I128
assg31
(g32
g33
tp2093
sg35
(dp2094
g23
(lp2095
F254
asg25
(lp2096
F307
asg27
(lp2097
F498
asg29
(lp2098
F3
assg41
Nssg42
I2
sg20
I128
sg43
Nsg44
I0
sg45
(dp2099
g47
g48
sg49
F1.4299999999999999
ssg50
Nsg51
Nsa(dp2100
g13
g14
(S'\x07\xe0\x08\x1e\x0e\x0c:\x00qH'
tRp2101
sg16
g14
(S'\x07\xe0\x08\x1e\x0e\x0b\x1f\x0c\x83 '
tRp2102
sg18
(dp2103
g20
I129
sg21
(dp2104
g23
(lp2105
I129
asg25
(lp2106
I129
asg27
(lp2107
I129
asg29
(lp2108
I129
assg31
(g32
g33
tp2109
sg35
(dp2110
g23
(lp2111
F24
asg25
(lp2112
F454
asg27
(lp2113
F402
asg29
(lp2114
F4
assg41
Nssg42
I2
sg20
I129
sg43
Nsg44
I0
sg45
(dp2115
g47
g48
sg49
F1.6200000000000001
ssg50
Nsg51
Nsa(dp2116
g13
g14
(S'\x07\xe0\x08\x1e\x0e\x0e\x0c\r\xb7\xb8'
tRp2117
sg16
g14
(S'\x07\xe0\x08\x1e\x0e\x0c:\x01\x01\xd0'
tRp2118
sg18
(dp2119
g20
I130
sg21
(dp2120
g23
(lp2121
I130
asg25
(lp2122
I130
asg27
(lp2123
I130
asg29
(lp2124
I130
assg31
(g32
g33
tp2125
sg35
(dp2126
g23
(lp2127
F122
asg25
(lp2128
F294
asg27
(lp2129
F314
asg29
(lp2130
F2
assg41
Nssg42
I2
sg20
I130
sg43
Nsg44
I0
sg45
(dp2131
g47
g48
sg49
F1.6599999999999999
ssg50
Nsg51
Nsa(dp2132
g13
g14
(S'\x07\xe0\x08\x1e\x0e\x10\x15\x0by\x80'
tRp2133
sg16
g14
(S'\x07\xe0\x08\x1e\x0e\x0e\x0c\x0e@p'
tRp2134
sg18
(dp2135
g20
I131
sg21
(dp2136
g23
(lp2137
I131
asg25
(lp2138
I131
asg27
(lp2139
I131
asg29
(lp2140
I131
assg31
(g32
g33
tp2141
sg35
(dp2142
g23
(lp2143
F184
asg25
(lp2144
F22
asg27
(lp2145
F378
asg29
(lp2146
F4
assg41
Nssg42
I2
sg20
I131
sg43
Nsg44
I0
sg45
(dp2147
g47
g48
sg49
F2.4300000000000002
ssg50
Nsg51
Nsa(dp2148
g13
g14
(S'\x07\xe0\x08\x1e\x0e\x11"\x02\xca\xd8'
tRp2149
sg16
g14
(S'\x07\xe0\x08\x1e\x0e\x10\x15\x0b\xfeP'
tRp2150
sg18
(dp2151
g20
I132
sg21
(dp2152
g23
(lp2153
I132
asg25
(lp2154
I132
asg27
(lp2155
I132
asg29
(lp2156
I132
assg31
(g32
g33
tp2157
sg35
(dp2158
g23
(lp2159
F108
asg25
(lp2160
F206
asg27
(lp2161
F294
asg29
(lp2162
F3
assg41
Nssg42
I2
sg20
I132
sg43
Nsg44
I0
sg45
(dp2163
g47
g48
sg49
F1.48
ssg50
Nsg51
Nsa(dp2164
g13
g14
(S'\x07\xe0\x08\x1e\x0e\x135\x00\xf20'
tRp2165
sg16
g14
(S'\x07\xe0\x08\x1e\x0e\x11"\x03S\x90'
tRp2166
sg18
(dp2167
g20
I133
sg21
(dp2168
g23
(lp2169
I133
asg25
(lp2170
I133
asg27
(lp2171
I133
asg29
(lp2172
I133
assg31
(g32
g33
tp2173
sg35
(dp2174
g23
(lp2175
F170
asg25
(lp2176
F238
asg27
(lp2177
F330
asg29
(lp2178
F5
assg41
Nssg42
I2
sg20
I133
sg43
Nsg44
I0
sg45
(dp2179
g47
g48
sg49
F89.719999999999999
ssg50
Nsg51
Nsa(dp2180
g13
g14
(S'\x07\xe0\x08\x1e\x0e\x155\x0c\xec\x98'
tRp2181
sg16
g14
(S'\x07\xe0\x08\x1e\x0e\x135\x01\x82\xb8'
tRp2182
sg18
(dp2183
g20
I134
sg21
(dp2184
g23
(lp2185
I134
asg25
(lp2186
I134
asg27
(lp2187
I134
asg29
(lp2188
I134
assg31
(g32
g33
tp2189
sg35
(dp2190
g23
(lp2191
F152
asg25
(lp2192
F351
asg27
(lp2193
F350
asg29
(lp2194
F4
assg41
Nssg42
I2
sg20
I134
sg43
Nsg44
I0
sg45
(dp2195
g47
g48
sg49
F1.3
ssg50
Nsg51
Nsa(dp2196
g13
g14
(S'\x07\xe0\x08\x1e\x0e\x175\x03\xa1\xb0'
tRp2197
sg16
g14
(S'\x07\xe0\x08\x1e\x0e\x155\ry8'
tRp2198
sg18
(dp2199
g20
I135
sg21
(dp2200
g23
(lp2201
I135
asg25
(lp2202
I135
asg27
(lp2203
I135
asg29
(lp2204
I135
assg31
(g32
g33
tp2205
sg35
(dp2206
g23
(lp2207
F202
asg25
(lp2208
F371
asg27
(lp2209
F214
asg29
(lp2210
F6
assg41
Nssg42
I2
sg20
I135
sg43
Nsg44
I0
sg45
(dp2211
g47
g48
sg49
F1.3400000000000001
ssg50
Nsg51
Nsa(dp2212
g13
g14
(S'\x07\xe0\x08\x1e\x0e\x1a\x04\x0e\t\xc0'
tRp2213
sg16
g14
(S'\x07\xe0\x08\x1e\x0e\x175\x04.P'
tRp2214
sg18
(dp2215
g20
I136
sg21
(dp2216
g23
(lp2217
I136
asg25
(lp2218
I136
asg27
(lp2219
I136
asg29
(lp2220
I136
assg31
(g32
g33
tp2221
sg35
(dp2222
g23
(lp2223
F292
asg25
(lp2224
F485
asg27
(lp2225
F408
asg29
(lp2226
F3
assg41
Nssg42
I2
sg20
I136
sg43
Nsg44
I0
sg45
(dp2227
g47
g48
sg49
F1.3700000000000001
ssg50
Nsg51
Nsa(dp2228
g13
g14
(S'\x07\xe0\x08\x1e\x0e\x1b\x06\r\x8c\xc0'
tRp2229
sg16
g14
(S'\x07\xe0\x08\x1e\x0e\x1a\x04\x0e\x9e0'
tRp2230
sg18
(dp2231
g20
I137
sg21
(dp2232
g23
(lp2233
I137
asg25
(lp2234
I137
asg27
(lp2235
I137
asg29
(lp2236
I137
assg31
(g32
g33
tp2237
sg35
(dp2238
g23
(lp2239
F268
asg25
(lp2240
F273
asg27
(lp2241
F264
asg29
(lp2242
F1
assg41
Nssg42
I2
sg20
I137
sg43
Nsg44
I0
sg45
(dp2243
g47
g48
sg49
F7.2699999999999996
ssg50
Nsg51
Nsa(dp2244
g13
g14
(S'\x07\xe0\x08\x1e\x0e\x1c\n\n\x1d\xd8'
tRp2245
sg16
g14
(S'\x07\xe0\x08\x1e\x0e\x1b\x06\x0e\x1dH'
tRp2246
sg18
(dp2247
g20
I138
sg21
(dp2248
g23
(lp2249
I138
asg25
(lp2250
I138
asg27
(lp2251
I138
asg29
(lp2252
I138
assg31
(g32
g33
tp2253
sg35
(dp2254
g23
(lp2255
F134
asg25
(lp2256
F391
asg27
(lp2257
F232
asg29
(lp2258
F2
assg41
Nssg42
I2
sg20
I138
sg43
Nsg44
I0
sg45
(dp2259
g47
g48
sg49
F1.48
ssg50
Nsg51
Nsa(dp2260
g13
g14
(S'\x07\xe0\x08\x1e\x0e\x1d#\x05\x18\xb0'
tRp2261
sg16
g14
(S'\x07\xe0\x08\x1e\x0e\x1c\n\n\xae`'
tRp2262
sg18
(dp2263
g20
I139
sg21
(dp2264
g23
(lp2265
I139
asg25
(lp2266
I139
asg27
(lp2267
I139
asg29
(lp2268
I139
assg31
(g32
g33
tp2269
sg35
(dp2270
g23
(lp2271
F72
asg25
(lp2272
F359
asg27
(lp2273
F280
asg29
(lp2274
F5
assg41
Nssg42
I2
sg20
I139
sg43
Nsg44
I0
sg45
(dp2275
g47
g48
sg49
F1.1499999999999999
ssg50
Nsg51
Nsa(dp2276
g13
g14
(S'\x07\xe0\x08\x1e\x0e\x1e\x17\x01z\xe8'
tRp2277
sg16
g14
(S'\x07\xe0\x08\x1e\x0e\x1d#\x05\xb8\xd8'
tRp2278
sg18
(dp2279
g20
I140
sg21
(dp2280
g23
(lp2281
I140
asg25
(lp2282
I140
asg27
(lp2283
I140
asg29
(lp2284
I140
assg31
(g32
g33
tp2285
sg35
(dp2286
g23
(lp2287
F42
asg25
(lp2288
F408
asg27
(lp2289
F194
asg29
(lp2290
F2
assg41
Nssg42
I2
sg20
I140
sg43
Nsg44
I0
sg45
(dp2291
g47
g48
sg49
F1.54
ssg50
Nsg51
Nsa(dp2292
g13
g14
(S'\x07\xe0\x08\x1e\x0e\x1f,\x06\x1eh'
tRp2293
sg16
g14
(S'\x07\xe0\x08\x1e\x0e\x1e\x17\x02\x07\x88'
tRp2294
sg18
(dp2295
g20
I141
sg21
(dp2296
g23
(lp2297
I141
asg25
(lp2298
I141
asg27
(lp2299
I141
asg29
(lp2300
I141
assg31
(g32
g33
tp2301
sg35
(dp2302
g23
(lp2303
F14
asg25
(lp2304
F344
asg27
(lp2305
F436
asg29
(lp2306
F3
assg41
Nssg42
I2
sg20
I141
sg43
Nsg44
I0
sg45
(dp2307
g47
g48
sg49
F2.29
ssg50
Nsg51
Nsa(dp2308
g13
g14
(S'\x07\xe0\x08\x1e\x0e #\x046 '
tRp2309
sg16
g14
(S'\x07\xe0\x08\x1e\x0e\x1f,\x06\xb6\xc0'
tRp2310
sg18
(dp2311
g20
I142
sg21
(dp2312
g23
(lp2313
I142
asg25
(lp2314
I142
asg27
(lp2315
I142
asg29
(lp2316
I142
assg31
(g32
g33
tp2317
sg35
(dp2318
g23
(lp2319
F60
asg25
(lp2320
F476
asg27
(lp2321
F148
asg29
(lp2322
F5
assg41
Nssg42
I2
sg20
I142
sg43
Nsg44
I0
sg45
(dp2323
g47
g48
sg49
F1.27
ssg50
Nsg51
Nsa(dp2324
g13
g14
(S'\x07\xe0\x08\x1e\x0e";\x0cPX'
tRp2325
sg16
g14
(S'\x07\xe0\x08\x1e\x0e #\x04\xd2`'
tRp2326
sg18
(dp2327
g20
I143
sg21
(dp2328
g23
(lp2329
I143
asg25
(lp2330
I143
asg27
(lp2331
I143
asg29
(lp2332
I143
assg31
(g32
g33
tp2333
sg35
(dp2334
g23
(lp2335
F212
asg25
(lp2336
F423
asg27
(lp2337
F372
asg29
(lp2338
F4
assg41
Nssg42
I2
sg20
I143
sg43
Nsg44
I0
sg45
(dp2339
g47
g48
sg49
F1.29
ssg50
Nsg51
Nsa(dp2340
g13
g14
(S'\x07\xe0\x08\x1e\x0e#2\x07\x18h'
tRp2341
sg16
g14
(S'\x07\xe0\x08\x1e\x0e";\x0c\xc9p'
tRp2342
sg18
(dp2343
g20
I144
sg21
(dp2344
g23
(lp2345
I144
asg25
(lp2346
I144
asg27
(lp2347
I144
asg29
(lp2348
I144
assg31
(g32
g33
tp2349
sg35
(dp2350
g23
(lp2351
F158
asg25
(lp2352
F322
asg27
(lp2353
F92
asg29
(lp2354
F4
assg41
Nssg42
I2
sg20
I144
sg43
Nsg44
I0
sg45
(dp2355
g47
g48
sg49
F1.25
ssg50
Nsg51
Nsa(dp2356
g13
g14
(S'\x07\xe0\x08\x1e\x0e$0\x03\xb58'
tRp2357
sg16
g14
(S'\x07\xe0\x08\x1e\x0e#2\x07\xb0\xc0'
tRp2358
sg18
(dp2359
g20
I145
sg21
(dp2360
g23
(lp2361
I145
asg25
(lp2362
I145
asg27
(lp2363
I145
asg29
(lp2364
I145
assg31
(g32
g33
tp2365
sg35
(dp2366
g23
(lp2367
F100
asg25
(lp2368
F428
asg27
(lp2369
F120
asg29
(lp2370
F6
assg41
Nssg42
I2
sg20
I145
sg43
Nsg44
I0
sg45
(dp2371
g47
g48
sg49
F1.1499999999999999
ssg50
Nsg51
Nsa(dp2372
g13
g14
(S"\x07\xe0\x08\x1e\x0e&\x00\r'0"
tRp2373
sg16
g14
(S'\x07\xe0\x08\x1e\x0e$0\x04&\x80'
tRp2374
sg18
(dp2375
g20
I146
sg21
(dp2376
g23
(lp2377
I146
asg25
(lp2378
I146
asg27
(lp2379
I146
asg29
(lp2380
I146
assg31
(g32
g33
tp2381
sg35
(dp2382
g23
(lp2383
F86
asg25
(lp2384
F454
asg27
(lp2385
F174
asg29
(lp2386
F7
assg41
Nssg42
I2
sg20
I146
sg43
Nsg44
I0
sg45
(dp2387
g47
g48
sg49
F2.54
ssg50
Nsg51
Nsa(dp2388
g13
g14
(S'\x07\xe0\x08\x1e\x0e&,\x08\x9f\x08'
tRp2389
sg16
g14
(S'\x07\xe0\x08\x1e\x0e&\x00\r\xbf\x88'
tRp2390
sg18
(dp2391
g20
I147
sg21
(dp2392
g23
(lp2393
I147
asg25
(lp2394
I147
asg27
(lp2395
I147
asg29
(lp2396
I147
assg31
(g32
g33
tp2397
sg35
(dp2398
g23
(lp2399
F36
asg25
(lp2400
F469
asg27
(lp2401
F106
asg29
(lp2402
F8
assg41
Nssg42
I2
sg20
I147
sg43
Nsg44
I0
sg45
(dp2403
g47
g48
sg49
F2.1200000000000001
ssg50
Nsg51
Nsa(dp2404
g13
g14
(S"\x07\xe0\x08\x1e\x0e'\x18\x08I\x18"
tRp2405
sg16
g14
(S'\x07\xe0\x08\x1e\x0e&,\t7`'
tRp2406
sg18
(dp2407
g20
I148
sg21
(dp2408
g23
(lp2409
I148
asg25
(lp2410
I148
asg27
(lp2411
I148
asg29
(lp2412
I148
assg31
(g32
g33
tp2413
sg35
(dp2414
g23
(lp2415
F2
asg25
(lp2416
F400
asg27
(lp2417
F158
asg29
(lp2418
F7
assg41
Nssg42
I2
sg20
I148
sg43
Nsg44
I0
sg45
(dp2419
g47
g48
sg49
F89.719999999999999
ssg50
Nsg51
Nsa(dp2420
g13
g14
(S'\x07\xe0\x08\x1e\x0e(1\t}\xb0'
tRp2421
sg16
g14
(S"\x07\xe0\x08\x1e\x0e'\x18\x08\xe1p"
tRp2422
sg18
(dp2423
g20
I149
sg21
(dp2424
g23
(lp2425
I149
asg25
(lp2426
I149
asg27
(lp2427
I149
asg29
(lp2428
I149
assg31
(g32
g33
tp2429
sg35
(dp2430
g23
(lp2431
F130
asg25
(lp2432
F497
asg27
(lp2433
F186
asg29
(lp2434
F6
assg41
Nssg42
I2
sg20
I149
sg43
Nsg44
I0
sg45
(dp2435
g47
g48
sg49
F1.1200000000000001
ssg50
Nsg51
Nsa(dp2436
g13
g14
(S'\x07\xe0\x08\x1e\x0e*\x15\n-x'
tRp2437
sg16
g14
(S'\x07\xe0\x08\x1e\x0e(1\n\x12 '
tRp2438
sg18
(dp2439
g20
I150
sg21
(dp2440
g23
(lp2441
I150
asg25
(lp2442
I150
asg27
(lp2443
I150
asg29
(lp2444
I150
assg31
(g32
g33
tp2445
sg35
(dp2446
g23
(lp2447
F146
asg25
(lp2448
F438
asg27
(lp2449
F200
asg29
(lp2450
F5
assg41
Nssg42
I2
sg20
I150
sg43
Nsg44
I0
sg45
(dp2451
g47
g48
sg49
F1.1000000000000001
ssg50
Nsg51
Nsa(dp2452
g13
g14
(S'\x07\xe0\x08\x1e\x0e*6\x00\x07\xd0'
tRp2453
sg16
g14
(S'\x07\xe0\x08\x1e\x0e*\x15\n\xae`'
tRp2454
sg18
(dp2455
g20
I151
sg21
(dp2456
g23
(lp2457
I151
asg25
(lp2458
I151
asg27
(lp2459
I151
asg29
(lp2460
I151
assg31
(g32
g33
tp2461
sg35
(dp2462
g23
(lp2463
F80
asg25
(lp2464
F382
asg27
(lp2465
F46
asg29
(lp2466
F6
assg41
Nssg42
I2
sg20
I151
sg43
Nsg44
I0
sg45
(dp2467
g47
g48
sg49
F1.29
ssg50
Nsg51
Nsa(dp2468
g13
g14
(S'\x07\xe0\x08\x1e\x0e,\x12\x05\x10\xe0'
tRp2469
sg16
g14
(S'\x07\xe0\x08\x1e\x0e*6\x00a\xa8'
tRp2470
sg18
(dp2471
g20
I152
sg21
(dp2472
g23
(lp2473
I152
asg25
(lp2474
I152
asg27
(lp2475
I152
asg29
(lp2476
I152
assg31
(g32
g33
tp2477
sg35
(dp2478
g23
(lp2479
F144
asg25
(lp2480
F334
asg27
(lp2481
F222
asg29
(lp2482
F4
assg41
Nssg42
I2
sg20
I152
sg43
Nsg44
I0
sg45
(dp2483
g47
g48
sg49
F1.1899999999999999
ssg50
Nsg51
Nsa(dp2484
g13
g14
(S'\x07\xe0\x08\x1e\x0e.\x10\x03\x11('
tRp2485
sg16
g14
(S'\x07\xe0\x08\x1e\x0e,\x12\x05\xa98'
tRp2486
sg18
(dp2487
g20
I153
sg21
(dp2488
g23
(lp2489
I153
asg25
(lp2490
I153
asg27
(lp2491
I153
asg29
(lp2492
I153
assg31
(g32
g33
tp2493
sg35
(dp2494
g23
(lp2495
F228
asg25
(lp2496
F442
asg27
(lp2497
F204
asg29
(lp2498
F5
assg41
Nssg42
I2
sg20
I153
sg43
Nsg44
I0
sg45
(dp2499
g47
g48
sg49
F1.28
ssg50
Nsg51
Nsa(dp2500
g13
g14
(S'\x07\xe0\x08\x1e\x0e/\x17\x05n\xa0'
tRp2501
sg16
g14
(S'\x07\xe0\x08\x1e\x0e.\x10\x03\xa1\xb0'
tRp2502
sg18
(dp2503
g20
I154
sg21
(dp2504
g23
(lp2505
I154
asg25
(lp2506
I154
asg27
(lp2507
I154
asg29
(lp2508
I154
assg31
(g32
g33
tp2509
sg35
(dp2510
g23
(lp2511
F118
asg25
(lp2512
F464
asg27
(lp2513
F256
asg29
(lp2514
F3
assg41
Nssg42
I2
sg20
I154
sg43
Nsg44
I0
sg45
(dp2515
g47
g48
sg49
F1.2
ssg50
Nsg51
Nsa(dp2516
g13
g14
(S'\x07\xe0\x08\x1e\x0e1\x0f\x00\x98X'
tRp2517
sg16
g14
(S'\x07\xe0\x08\x1e\x0e/\x17\x06\x03\x10'
tRp2518
sg18
(dp2519
g20
I155
sg21
(dp2520
g23
(lp2521
I155
asg25
(lp2522
I155
asg27
(lp2523
I155
asg29
(lp2524
I155
assg31
(g32
g33
tp2525
sg35
(dp2526
g23
(lp2527
F176
asg25
(lp2528
F417
asg27
(lp2529
F238
asg29
(lp2530
F5
assg41
Nssg42
I2
sg20
I155
sg43
Nsg44
I0
sg45
(dp2531
g47
g48
sg49
F1.51
ssg50
Nsg51
Nsa(dp2532
g13
g14
(S'\x07\xe0\x08\x1e\x0e2\x0e\tn\x10'
tRp2533
sg16
g14
(S'\x07\xe0\x08\x1e\x0e1\x0f\x01\x01\xd0'
tRp2534
sg18
(dp2535
g20
I156
sg21
(dp2536
g23
(lp2537
I156
asg25
(lp2538
I156
asg27
(lp2539
I156
asg29
(lp2540
I156
assg31
(g32
g33
tp2541
sg35
(dp2542
g23
(lp2543
F102
asg25
(lp2544
F365
asg27
(lp2545
F128
asg29
(lp2546
F7
assg41
Nssg42
I2
sg20
I156
sg43
Nsg44
I0
sg45
(dp2547
g47
g48
sg49
F1.1299999999999999
ssg50
Nsg51
Nsa(dp2548
g13
g14
(S'\x07\xe0\x08\x1e\x0e3$\x0e\xf8\x08'
tRp2549
sg16
g14
(S'\x07\xe0\x08\x1e\x0e2\x0e\n\x06h'
tRp2550
sg18
(dp2551
g20
I157
sg21
(dp2552
g23
(lp2553
I157
asg25
(lp2554
I157
asg27
(lp2555
I157
asg29
(lp2556
I157
assg31
(g32
g33
tp2557
sg35
(dp2558
g23
(lp2559
F146
asg25
(lp2560
F512
asg27
(lp2561
F298
asg29
(lp2562
F3
assg41
Nssg42
I2
sg20
I157
sg43
Nsg44
I0
sg45
(dp2563
g47
g48
sg49
F1.1899999999999999
ssg50
Nsg51
Nsa(dp2564
g13
g14
(S'\x07\xe0\x08\x1e\x0e39\t^p'
tRp2565
sg16
g14
(S'\x07\xe0\x08\x1e\x0e3%\x00#('
tRp2566
sg18
(dp2567
g20
I158
sg21
(dp2568
g23
(lp2569
I158
asg25
(lp2570
I158
asg27
(lp2571
I158
asg29
(lp2572
I158
assg31
(g32
g33
tp2573
sg35
(dp2574
g23
(lp2575
F48
asg25
(lp2576
F389
asg27
(lp2577
F16
asg29
(lp2578
F8
assg41
Nssg42
I2
sg20
I158
sg43
Nsg44
I0
sg45
(dp2579
g47
g48
sg49
F1.3
ssg50
Nsg51
Nsa(dp2580
g13
g14
(S'\x07\xe0\x08\x1e\x0e5#\x01\xb9h'
tRp2581
sg16
g14
(S'\x07\xe0\x08\x1e\x0e39\t\xdbp'
tRp2582
sg18
(dp2583
g20
I159
sg21
(dp2584
g23
(lp2585
I159
asg25
(lp2586
I159
asg27
(lp2587
I159
asg29
(lp2588
I159
assg31
(g32
g33
tp2589
sg35
(dp2590
g23
(lp2591
F194
asg25
(lp2592
F409
asg27
(lp2593
F140
asg29
(lp2594
F10
assg41
Nssg42
I2
sg20
I159
sg43
Nsg44
I0
sg45
(dp2595
g47
g48
sg49
F2.04
ssg50
Nsg51
Nsa(dp2596
g13
g14
(S'\x07\xe0\x08\x1e\x0e6\x0f\x01\xb5\x80'
tRp2597
sg16
g14
(S'\x07\xe0\x08\x1e\x0e5#\x02I\xf0'
tRp2598
sg18
(dp2599
g20
I160
sg21
(dp2600
g23
(lp2601
I160
asg25
(lp2602
I160
asg27
(lp2603
I160
asg29
(lp2604
I160
assg31
(g32
g33
tp2605
sg35
(dp2606
g23
(lp2607
F68
asg25
(lp2608
F479
asg27
(lp2609
F74
asg29
(lp2610
F9
assg41
Nssg42
I2
sg20
I160
sg43
Nsg44
I0
sg45
(dp2611
g47
g48
sg49
F1.0700000000000001
ssg50
Nsg51
Nsa(dp2612
g13
g14
(S'\x07\xe0\x08\x1e\x0e60\x07K0'
tRp2613
sg16
g14
(S'\x07\xe0\x08\x1e\x0e6\x0f\x02M\xd8'
tRp2614
sg18
(dp2615
g20
I161
sg21
(dp2616
g23
(lp2617
I161
asg25
(lp2618
I161
asg27
(lp2619
I161
asg29
(lp2620
I161
assg31
(g32
g33
tp2621
sg35
(dp2622
g23
(lp2623
F22
asg25
(lp2624
F476
asg27
(lp2625
F76
asg29
(lp2626
F11
assg41
Nssg42
I2
sg20
I161
sg43
Nsg44
I0
sg45
(dp2627
g47
g48
sg49
F89.719999999999999
ssg50
Nsg51
Nsa(dp2628
g13
g14
(S'\x07\xe0\x08\x1e\x0e7#\x01\x05\xb8'
tRp2629
sg16
g14
(S'\x07\xe0\x08\x1e\x0e60\x07\xe3\x88'
tRp2630
sg18
(dp2631
g20
I162
sg21
(dp2632
g23
(lp2633
I162
asg25
(lp2634
I162
asg27
(lp2635
I162
asg29
(lp2636
I162
assg31
(g32
g33
tp2637
sg35
(dp2638
g23
(lp2639
F74
asg25
(lp2640
F491
asg27
(lp2641
F90
asg29
(lp2642
F11
assg41
Nssg42
I2
sg20
I162
sg43
Nsg44
I0
sg45
(dp2643
g47
g48
sg49
F89.719999999999999
ssg50
Nsg51
Nsa(dp2644
g13
g14
(S'\x07\xe0\x08\x1e\x0e8\x06\x0b\xa0\x90'
tRp2645
sg16
g14
(S'\x07\xe0\x08\x1e\x0e7#\x01\x9e\x10'
tRp2646
sg18
(dp2647
g20
I163
sg21
(dp2648
g23
(lp2649
I163
asg25
(lp2650
I163
asg27
(lp2651
I163
asg29
(lp2652
I163
assg31
(g32
g33
tp2653
sg35
(dp2654
g23
(lp2655
F62
asg25
(lp2656
F502
asg27
(lp2657
F30
asg29
(lp2658
F12
assg41
Nssg42
I2
sg20
I163
sg43
Nsg44
I0
sg45
(dp2659
g47
g48
sg49
F1.8600000000000001
ssg50
Nsg51
Nsa(dp2660
g13
g14
(S'\x07\xe0\x08\x1e\x0e8$\n!\xc0'
tRp2661
sg16
g14
(S'\x07\xe0\x08\x1e\x0e8\x06\x0c<\xd0'
tRp2662
sg18
(dp2663
g20
I164
sg21
(dp2664
g23
(lp2665
I164
asg25
(lp2666
I164
asg27
(lp2667
I164
asg29
(lp2668
I164
assg31
(g32
g33
tp2669
sg35
(dp2670
g23
(lp2671
F34
asg25
(lp2672
F451
asg27
(lp2673
F62
asg29
(lp2674
F9
assg41
Nssg42
I2
sg20
I164
sg43
Nsg44
I0
sg45
(dp2675
g47
g48
sg49
F1.3400000000000001
ssg50
Nsg51
Nsa(dp2676
g13
g14
(S'\x07\xe0\x08\x1e\x0e9$\x06=\xa8'
tRp2677
sg16
g14
(S'\x07\xe0\x08\x1e\x0e8$\n\xba\x18'
tRp2678
sg18
(dp2679
g20
I165
sg21
(dp2680
g23
(lp2681
I165
asg25
(lp2682
I165
asg27
(lp2683
I165
asg29
(lp2684
I165
assg31
(g32
g33
tp2685
sg35
(dp2686
g23
(lp2687
F92
asg25
(lp2688
F510
asg27
(lp2689
F102
asg29
(lp2690
F9
assg41
Nssg42
I2
sg20
I165
sg43
Nsg44
I0
sg45
(dp2691
g47
g48
sg49
F2
ssg50
Nsg51
Nsa(dp2692
g13
g14
(S'\x07\xe0\x08\x1e\x0e:\x18\x0e\xdc\xb0'
tRp2693
sg16
g14
(S'\x07\xe0\x08\x1e\x0e9$\x077\xa8'
tRp2694
sg18
(dp2695
g20
I166
sg21
(dp2696
g23
(lp2697
I166
asg25
(lp2698
I166
asg27
(lp2699
I166
asg29
(lp2700
I166
assg31
(g32
g33
tp2701
sg35
(dp2702
g23
(lp2703
F2
asg25
(lp2704
F460
asg27
(lp2705
F178
asg29
(lp2706
F10
assg41
Nssg42
I2
sg20
I166
sg43
Nsg44
I0
sg45
(dp2707
g47
g48
sg49
F89.719999999999999
ssg50
Nsg51
Nsa(dp2708
g13
g14
(S'\x07\xe0\x08\x1e\x0e;3\x0b\x94\xd8'
tRp2709
sg16
g14
(S'\x07\xe0\x08\x1e\x0e:\x19\x002\xc8'
tRp2710
sg18
(dp2711
g20
I167
sg21
(dp2712
g23
(lp2713
I167
asg25
(lp2714
I167
asg27
(lp2715
I167
asg29
(lp2716
I167
assg31
(g32
g33
tp2717
sg35
(dp2718
g23
(lp2719
F106
asg25
(lp2720
F103
asg27
(lp2721
F166
asg29
(lp2722
F13
assg41
Nssg42
I2
sg20
I167
sg43
Nsg44
I0
sg45
(dp2723
g47
g48
sg49
F89.719999999999999
ssg50
Nsg51
Nsa(dp2724
g13
g14
(S'\x07\xe0\x08\x1e\x0f\x00(\x04\x0b('
tRp2725
sg16
g14
(S'\x07\xe0\x08\x1e\x0e;3\x0c1\x18'
tRp2726
sg18
(dp2727
g20
I168
sg21
(dp2728
g23
(lp2729
I168
asg25
(lp2730
I168
asg27
(lp2731
I168
asg29
(lp2732
I168
assg31
(g32
g33
tp2733
sg35
(dp2734
g23
(lp2735
F54
asg25
(lp2736
F487
asg27
(lp2737
F114
asg29
(lp2738
F10
assg41
Nssg42
I2
sg20
I168
sg43
Nsg44
I0
sg45
(dp2739
g47
g48
sg49
F89.719999999999999
ssg50
Nsg51
Nsa(dp2740
g13
g14
(S'\x07\xe0\x08\x1e\x0f\x01\x12\r6\xd0'
tRp2741
sg16
g14
(S'\x07\xe0\x08\x1e\x0f\x00(\x04\xa3\x80'
tRp2742
sg18
(dp2743
g20
I169
sg21
(dp2744
g23
(lp2745
I169
asg25
(lp2746
I169
asg27
(lp2747
I169
asg29
(lp2748
I169
assg31
(g32
g33
tp2749
sg35
(dp2750
g23
(lp2751
F120
asg25
(lp2752
F400
asg27
(lp2753
F42
asg29
(lp2754
F8
assg41
Nssg42
I2
sg20
I169
sg43
Nsg44
I0
sg45
(dp2755
g47
g48
sg49
F1.3899999999999999
ssg50
Nsg51
Nsa(dp2756
g13
g14
(S'\x07\xe0\x08\x1e\x0f\x02\x06\x00\xea`'
tRp2757
sg16
g14
(S'\x07\xe0\x08\x1e\x0f\x01\x12\r\x94\x90'
tRp2758
sg18
(dp2759
g20
I170
sg21
(dp2760
g23
(lp2761
I170
asg25
(lp2762
I170
asg27
(lp2763
I170
asg29
(lp2764
I170
assg31
(g32
g33
tp2765
sg35
(dp2766
g23
(lp2767
F18
asg25
(lp2768
F303
asg27
(lp2769
F154
asg29
(lp2770
F9
assg41
Nssg42
I2
sg20
I170
sg43
Nsg44
I0
sg45
(dp2771
g47
g48
sg49
F2.3300000000000001
ssg50
Nsg51
Nsa(dp2772
g13
g14
(S'\x07\xe0\x08\x1e\x0f\x02&\n\xb2H'
tRp2773
sg16
g14
(S'\x07\xe0\x08\x1e\x0f\x02\x06\x01\x86\xa0'
tRp2774
sg18
(dp2775
g20
I171
sg21
(dp2776
g23
(lp2777
I171
asg25
(lp2778
I171
asg27
(lp2779
I171
asg29
(lp2780
I171
assg31
(g32
g33
tp2781
sg35
(dp2782
g23
(lp2783
F182
asg25
(lp2784
F282
asg27
(lp2785
F78
asg29
(lp2786
F1
assg41
Nssg42
I2
sg20
I171
sg43
Nsg44
I0
sg45
(dp2787
g47
g48
sg49
F7.4800000000000004
ssg50
Nsg51
Nsa(dp2788
g13
g14
(S'\x07\xe0\x08\x1e\x0f\x03\x01\r\xbb\xa0'
tRp2789
sg16
g14
(S'\x07\xe0\x08\x1e\x0f\x02&\x0bRp'
tRp2790
sg18
(dp2791
g20
I172
sg21
(dp2792
g23
(lp2793
I172
asg25
(lp2794
I172
asg27
(lp2795
I172
asg29
(lp2796
I172
assg31
(g32
g33
tp2797
sg35
(dp2798
g23
(lp2799
F84
asg25
(lp2800
F426
asg27
(lp2801
F2
asg29
(lp2802
F14
assg41
Nssg42
I2
sg20
I172
sg43
Nsg44
I0
sg45
(dp2803
g47
g48
sg49
F2.2799999999999998
ssg50
Nsg51
Nsa(dp2804
g13
g14
(S'\x07\xe0\x08\x1e\x0f\x07&\x01\xdc\x90'
tRp2805
sg16
g14
(S'\x07\xe0\x08\x1e\x0f\x03\x01\x0eL('
tRp2806
sg18
(dp2807
g20
I173
sg21
(dp2808
g23
(lp2809
I173
asg25
(lp2810
I173
asg27
(lp2811
I173
asg29
(lp2812
I173
assg31
(g32
g33
tp2813
sg35
(dp2814
g23
(lp2815
F132
asg25
(lp2816
F313
asg27
(lp2817
F462
asg29
(lp2818
F12
assg41
Nssg42
I2
sg20
I173
sg43
Nsg44
I0
sg45
(dp2819
g47
g48
sg49
F89.719999999999999
ssg50
Nsg51
Nsa(dp2820
g13
g14
(S'\x07\xe0\x08\x1e\x0f\x08)\n\xd9X'
tRp2821
sg16
g14
(S'\x07\xe0\x08\x1e\x0f\x07&\x02|\xb8'
tRp2822
sg18
(dp2823
g20
I174
sg21
(dp2824
g23
(lp2825
I174
asg25
(lp2826
I174
asg27
(lp2827
I174
asg29
(lp2828
I174
assg31
(g32
g33
tp2829
sg35
(dp2830
g23
(lp2831
F166
asg25
(lp2832
F373
asg27
(lp2833
F216
asg29
(lp2834
F2
assg41
Nssg42
I2
sg20
I174
sg43
Nsg44
I0
sg45
(dp2835
g47
g48
sg49
F1.6699999999999999
ssg50
Nsg51
Nsa(dp2836
g13
g14
(S'\x07\xe0\x08\x1e\x0f\t/\x03\xdcH'
tRp2837
sg16
g14
(S'\x07\xe0\x08\x1e\x0f\x08)\x0by\x80'
tRp2838
sg18
(dp2839
g20
I175
sg21
(dp2840
g23
(lp2841
I175
asg25
(lp2842
I175
asg27
(lp2843
I175
asg29
(lp2844
I175
assg31
(g32
g33
tp2845
sg35
(dp2846
g23
(lp2847
F66
asg25
(lp2848
F437
asg27
(lp2849
F134
asg29
(lp2850
F13
assg41
Nssg42
I2
sg20
I175
sg43
Nsg44
I0
sg45
(dp2851
g47
g48
sg49
F89.719999999999999
ssg50
Nsg51
Nsa(dp2852
g13
g14
(S'\x07\xe0\x08\x1e\x0f\n\x1f\x03c0'
tRp2853
sg16
g14
(S'\x07\xe0\x08\x1e\x0f\t/\x04\x88('
tRp2854
sg18
(dp2855
g20
I176
sg21
(dp2856
g23
(lp2857
I176
asg25
(lp2858
I176
asg27
(lp2859
I176
asg29
(lp2860
I176
assg31
(g32
g33
tp2861
sg35
(dp2862
g23
(lp2863
F248
asg25
(lp2864
F481
asg27
(lp2865
F32
asg29
(lp2866
F4
assg41
Nssg42
I2
sg20
I176
sg43
Nsg44
I0
sg45
(dp2867
g47
g48
sg49
F1.2
ssg50
Nsg51
Nsa(dp2868
g13
g14
(S'\x07\xe0\x08\x1e\x0f\x0b\x19\x03k\x00'
tRp2869
sg16
g14
(S'\x07\xe0\x08\x1e\x0f\n\x1f\x03\xffp'
tRp2870
sg18
(dp2871
g20
I177
sg21
(dp2872
g23
(lp2873
I177
asg25
(lp2874
I177
asg27
(lp2875
I177
asg29
(lp2876
I177
assg31
(g32
g33
tp2877
sg35
(dp2878
g23
(lp2879
F36
asg25
(lp2880
F352
asg27
(lp2881
F146
asg29
(lp2882
F9
assg41
Nssg42
I2
sg20
I177
sg43
Nsg44
I0
sg45
(dp2883
g47
g48
sg49
F2.2000000000000002
ssg50
Nsg51
Nsa(dp2884
g13
g14
(S'\x07\xe0\x08\x1e\x0f\r \x0e\xd0\xf8'
tRp2885
sg16
g14
(S'\x07\xe0\x08\x1e\x0f\x0b\x19\x04\x12\xf8'
tRp2886
sg18
(dp2887
g20
I178
sg21
(dp2888
g23
(lp2889
I178
asg25
(lp2890
I178
asg27
(lp2891
I178
asg29
(lp2892
I178
assg31
(g32
g33
tp2893
sg35
(dp2894
g23
(lp2895
F92
asg25
(lp2896
F247
asg27
(lp2897
F346
asg29
(lp2898
F11
assg41
Nssg42
I2
sg20
I178
sg43
Nsg44
I0
sg45
(dp2899
g47
g48
sg49
F77.670000000000002
ssg50
Nsg51
Nsa(dp2900
g13
g14
(S'\x07\xe0\x08\x1e\x0f\x0e\n\x06* '
tRp2901
sg16
g14
(S'\x07\xe0\x08\x1e\x0f\r!\x002\xc8'
tRp2902
sg18
(dp2903
g20
I179
sg21
(dp2904
g23
(lp2905
I179
asg25
(lp2906
I179
asg27
(lp2907
I179
asg29
(lp2908
I179
assg31
(g32
g33
tp2909
sg35
(dp2910
g23
(lp2911
F48
asg25
(lp2912
F335
asg27
(lp2913
F96
asg29
(lp2914
F6
assg41
Nssg42
I2
sg20
I179
sg43
Nsg44
I0
sg45
(dp2915
g47
g48
sg49
F1.26
ssg50
Nsg51
Nsa(dp2916
g13
g14
(S'\x07\xe0\x08\x1e\x0f\x0e$\n!\xc0'
tRp2917
sg16
g14
(S'\x07\xe0\x08\x1e\x0f\x0e\n\x06\xce0'
tRp2918
sg18
(dp2919
g20
I180
sg21
(dp2920
g23
(lp2921
I180
asg25
(lp2922
I180
asg27
(lp2923
I180
asg29
(lp2924
I180
assg31
(g32
g33
tp2925
sg35
(dp2926
g23
(lp2927
F72
asg25
(lp2928
F261
asg27
(lp2929
F56
asg29
(lp2930
F3
assg41
Nssg42
I2
sg20
I180
sg43
Nsg44
I0
sg45
(dp2931
g47
g48
sg49
F1.3799999999999999
ssg50
Nsg51
Nsa(dp2932
g13
g14
(S'\x07\xe0\x08\x1e\x0f\x16\x07\x03\x95\xf8'
tRp2933
sg16
g14
(S'\x07\xe0\x08\x1e\x0f\x0e$\n\xd5p'
tRp2934
sg18
(dp2935
g20
I181
sg21
(dp2936
g23
(lp2937
I181
asg25
(lp2938
I181
asg27
(lp2939
I181
asg29
(lp2940
I181
assg31
(g32
g33
tp2941
sg35
(dp2942
g23
(lp2943
F394
asg25
(lp2944
F414
asg27
(lp2945
F502
asg29
(lp2946
F8
assg41
Nssg42
I2
sg20
I181
sg43
Nsg44
I0
sg45
(dp2947
g47
g48
sg49
F89.719999999999999
ssg50
Nsg51
Nsa(dp2948
g13
g14
(S'\x07\xe0\x08\x1e\x0f\x17\x00\x0f&\xe8'
tRp2949
sg16
g14
(S'\x07\xe0\x08\x1e\x0f\x16\x07\x04:\x08'
tRp2950
sg18
(dp2951
g20
I182
sg21
(dp2952
g23
(lp2953
I182
asg25
(lp2954
I182
asg27
(lp2955
I182
asg29
(lp2956
I182
assg31
(g32
g33
tp2957
sg35
(dp2958
g23
(lp2959
F236
asg25
(lp2960
F386
asg27
(lp2961
F66
asg29
(lp2962
F4
assg41
Nssg42
I2
sg20
I182
sg43
Nsg44
I0
sg45
(dp2963
g47
g48
sg49
F1.22
ssg50
Nsg51
Nsa(dp2964
g13
g14
(S'\x07\xe0\x08\x1e\x0f\x175\x0cLp'
tRp2965
sg16
g14
(S'\x07\xe0\x08\x1e\x0f\x17\x01\x00\x90\x88'
tRp2966
sg18
(dp2967
g20
I183
sg21
(dp2968
g23
(lp2969
I183
asg25
(lp2970
I183
asg27
(lp2971
I183
asg29
(lp2972
I183
assg31
(g32
g33
tp2973
sg35
(dp2974
g23
(lp2975
F108
asg25
(lp2976
F446
asg27
(lp2977
F190
asg29
(lp2978
F2
assg41
Nssg42
I2
sg20
I183
sg43
Nsg44
I0
sg45
(dp2979
g47
g48
sg49
F1.4299999999999999
ssg50
Nsg51
Nsa(dp2980
g13
g14
(S'\x07\xe0\x08\x1e\x0f\x18\r\x00u0'
tRp2981
sg16
g14
(S'\x07\xe0\x08\x1e\x0f\x175\x0c\xfc8'
tRp2982
sg18
(dp2983
g20
I184
sg21
(dp2984
g23
(lp2985
I184
asg25
(lp2986
I184
asg27
(lp2987
I184
asg29
(lp2988
I184
assg31
(g32
g33
tp2989
sg35
(dp2990
g23
(lp2991
F28
asg25
(lp2992
F360
asg27
(lp2993
F18
asg29
(lp2994
F7
assg41
Nssg42
I2
sg20
I184
sg43
Nsg44
I0
sg45
(dp2995
g47
g48
sg49
F1.1200000000000001
ssg50
Nsg51
Nsa(dp2996
g13
g14
(S'\x07\xe0\x08\x1e\x0f\x1b\x13\x08\x9b '
tRp2997
sg16
g14
(S'\x07\xe0\x08\x1e\x0f\x18\r\x00\xf6\x18'
tRp2998
sg18
(dp2999
g20
I185
sg21
(dp3000
g23
(lp3001
I185
asg25
(lp3002
I185
asg27
(lp3003
I185
asg29
(lp3004
I185
assg31
(g32
g33
tp3005
sg35
(dp3006
g23
(lp3007
F158
asg25
(lp3008
F498
asg27
(lp3009
F274
asg29
(lp3010
F10
assg41
Nssg42
I2
sg20
I185
sg43
Nsg44
I0
sg45
(dp3011
g47
g48
sg49
F89.719999999999999
ssg50
Nsg51
Nsa(dp3012
g13
g14
(S'\x07\xe0\x08\x1e\x0f \x07\x0f*\xd0'
tRp3013
sg16
g14
(S'\x07\xe0\x08\x1e\x0f\x1b\x13\t7`'
tRp3014
sg18
(dp3015
g20
I186
sg21
(dp3016
g23
(lp3017
I186
asg25
(lp3018
I186
asg27
(lp3019
I186
asg29
(lp3020
I186
assg31
(g32
g33
tp3021
sg35
(dp3022
g23
(lp3023
F310
asg25
(lp3024
F460
asg27
(lp3025
F476
asg29
(lp3026
F5
assg41
Nssg42
I2
sg20
I186
sg43
Nsg44
I0
sg45
(dp3027
g47
g48
sg49
F89.719999999999999
ssg50
Nsg51
Nsa(dp3028
g13
g14
(S'\x07\xe0\x08\x1e\x0f!!\x089x'
tRp3029
sg16
g14
(S'\x07\xe0\x08\x1e\x0f \x08\x00\x90\x88'
tRp3030
sg18
(dp3031
g20
I187
sg21
(dp3032
g23
(lp3033
I187
asg25
(lp3034
I187
asg27
(lp3035
I187
asg29
(lp3036
I187
assg31
(g32
g33
tp3037
sg35
(dp3038
g23
(lp3039
F210
asg25
(lp3040
F511
asg27
(lp3041
F116
asg29
(lp3042
F7
assg41
Nssg42
I2
sg20
I187
sg43
Nsg44
I0
sg45
(dp3043
g47
g48
sg49
F1.47
ssg50
Nsg51
Nsa(dp3044
g13
g14
(S'\x07\xe0\x08\x1e\x0f"\x1f\x0e[\xc8'
tRp3045
sg16
g14
(S'\x07\xe0\x08\x1e\x0f!!\x08\xd5\xb8'
tRp3046
sg18
(dp3047
g20
I188
sg21
(dp3048
g23
(lp3049
I188
asg25
(lp3050
I188
asg27
(lp3051
I188
asg29
(lp3052
I188
assg31
(g32
g33
tp3053
sg35
(dp3054
g23
(lp3055
F172
asg25
(lp3056
F468
asg27
(lp3057
F244
asg29
(lp3058
F1
assg41
Nssg42
I2
sg20
I188
sg43
Nsg44
I0
sg45
(dp3059
g47
g48
sg49
F7.2199999999999998
ssg50
Nsg51
Nsa(dp3060
g13
g14
(S'\x07\xe0\x08\x1e\x0f#\x16\x04\xed\xb8'
tRp3061
sg16
g14
(S'\x07\xe0\x08\x1e\x0f"\x1f\x0f\x0fx'
tRp3062
sg18
(dp3063
g20
I189
sg21
(dp3064
g23
(lp3065
I189
asg25
(lp3066
I189
asg27
(lp3067
I189
asg29
(lp3068
I189
assg31
(g32
g33
tp3069
sg35
(dp3070
g23
(lp3071
F124
asg25
(lp3072
F396
asg27
(lp3073
F160
asg29
(lp3074
F3
assg41
Nssg42
I2
sg20
I189
sg43
Nsg44
I0
sg45
(dp3075
g47
g48
sg49
F1.3
ssg50
Nsg51
Nsa(dp3076
g13
g14
(S'\x07\xe0\x08\x1e\x0f#2\x07$ '
tRp3077
sg16
g14
(S'\x07\xe0\x08\x1e\x0f#\x16\x05\x99\x98'
tRp3078
sg18
(dp3079
g20
I190
sg21
(dp3080
g23
(lp3081
I190
asg25
(lp3082
I190
asg27
(lp3083
I190
asg29
(lp3084
I190
assg31
(g32
g33
tp3085
sg35
(dp3086
g23
(lp3087
F14
asg25
(lp3088
F3
asg27
(lp3089
F84
asg29
(lp3090
F4
assg41
Nssg42
I2
sg20
I190
sg43
Nsg44
I0
sg45
(dp3091
g47
g48
sg49
F24.690000000000001
ssg50
Nsg51
Nsa(dp3092
g13
g14
(S'\x07\xe0\x08\x1e\x0f%\x1e\t\xdbp'
tRp3093
sg16
g14
(S'\x07\xe0\x08\x1e\x0f#2\x07\xa5\x08'
tRp3094
sg18
(dp3095
g20
I191
sg21
(dp3096
g23
(lp3097
I191
asg25
(lp3098
I191
asg27
(lp3099
I191
asg29
(lp3100
I191
assg31
(g32
g33
tp3101
sg35
(dp3102
g23
(lp3103
F138
asg25
(lp3104
F291
asg27
(lp3105
F230
asg29
(lp3106
F6
assg41
Nssg42
I2
sg20
I191
sg43
Nsg44
I0
sg45
(dp3107
g47
g48
sg49
F1.3
ssg50
Nsg51
Nsa(dp3108
g13
g14
(S"\x07\xe0\x08\x1e\x0f'\x01\x0c\xc5\x88"
tRp3109
sg16
g14
(S'\x07\xe0\x08\x1e\x0f%\x1e\n\x87P'
tRp3110
sg18
(dp3111
g20
I192
sg21
(dp3112
g23
(lp3113
I192
asg25
(lp3114
I192
asg27
(lp3115
I192
asg29
(lp3116
I192
assg31
(g32
g33
tp3117
sg35
(dp3118
g23
(lp3119
F188
asg25
(lp3120
F433
asg27
(lp3121
F172
asg29
(lp3122
F5
assg41
Nssg42
I2
sg20
I192
sg43
Nsg44
I0
sg45
(dp3123
g47
g48
sg49
F1.0700000000000001
ssg50
Nsg51
Nsa(dp3124
g13
g14
(S'\x07\xe0\x08\x1e\x0f)!\x05n\xa0'
tRp3125
sg16
g14
(S"\x07\xe0\x08\x1e\x0f'\x01\ri\x98"
tRp3126
sg18
(dp3127
g20
I193
sg21
(dp3128
g23
(lp3129
I193
asg25
(lp3130
I193
asg27
(lp3131
I193
asg29
(lp3132
I193
assg31
(g32
g33
tp3133
sg35
(dp3134
g23
(lp3135
F284
asg25
(lp3136
F431
asg27
(lp3137
F208
asg29
(lp3138
F8
assg41
Nssg42
I2
sg20
I193
sg43
Nsg44
I0
sg45
(dp3139
g47
g48
sg49
F1.8899999999999999
ssg50
Nsg51
Nsa(dp3140
g13
g14
(S'\x07\xe0\x08\x1e\x0f+\n\r\xac\x00'
tRp3141
sg16
g14
(S'\x07\xe0\x08\x1e\x0f)!\x06\x1a\x80'
tRp3142
sg18
(dp3143
g20
I194
sg21
(dp3144
g23
(lp3145
I194
asg25
(lp3146
I194
asg27
(lp3147
I194
asg29
(lp3148
I194
assg31
(g32
g33
tp3149
sg35
(dp3150
g23
(lp3151
F266
asg25
(lp3152
F344
asg27
(lp3153
F124
asg29
(lp3154
F7
assg41
Nssg42
I2
sg20
I194
sg43
Nsg44
I0
sg45
(dp3155
g47
g48
sg49
F1.23
ssg50
Nsg51
Nsa(dp3156
g13
g14
(S'\x07\xe0\x08\x1e\x0f,&\x07\x9d8'
tRp3157
sg16
g14
(S'\x07\xe0\x08\x1e\x0f+\n\x0e\x9e0'
tRp3158
sg18
(dp3159
g20
I195
sg21
(dp3160
g23
(lp3161
I195
asg25
(lp3162
I195
asg27
(lp3163
I195
asg29
(lp3164
I195
assg31
(g32
g33
tp3165
sg35
(dp3166
g23
(lp3167
F192
asg25
(lp3168
F372
asg27
(lp3169
F180
asg29
(lp3170
F5
assg41
Nssg42
I2
sg20
I195
sg43
Nsg44
I0
sg45
(dp3171
g47
g48
sg49
F1.1499999999999999
ssg50
Nsg51
Nsa(dp3172
g13
g14
(S'\x07\xe0\x08\x1e\x0f-;\x05,8'
tRp3173
sg16
g14
(S'\x07\xe0\x08\x1e\x0f,&\x08M\x00'
tRp3174
sg18
(dp3175
g20
I196
sg21
(dp3176
g23
(lp3177
I196
asg25
(lp3178
I196
asg27
(lp3179
I196
asg29
(lp3180
I196
assg31
(g32
g33
tp3181
sg35
(dp3182
g23
(lp3183
F222
asg25
(lp3184
F404
asg27
(lp3185
F106
asg29
(lp3186
F6
assg41
Nssg42
I2
sg20
I196
sg43
Nsg44
I0
sg45
(dp3187
g47
g48
sg49
F1.3700000000000001
ssg50
Nsg51
Nsa(dp3188
g13
g14
(S'\x07\xe0\x08\x1e\x0f/"\x00\x9c@'
tRp3189
sg16
g14
(S'\x07\xe0\x08\x1e\x0f-;\x05\xdc\x00'
tRp3190
sg18
(dp3191
g20
I197
sg21
(dp3192
g23
(lp3193
I197
asg25
(lp3194
I197
asg27
(lp3195
I197
asg29
(lp3196
I197
assg31
(g32
g33
tp3197
sg35
(dp3198
g23
(lp3199
F184
asg25
(lp3200
F132
asg27
(lp3201
F170
asg29
(lp3202
F8
assg41
Nssg42
I2
sg20
I197
sg43
Nsg44
I0
sg45
(dp3203
g47
g48
sg49
F89.719999999999999
ssg50
Nsg51
Nsa(dp3204
g13
g14
(S"\x07\xe0\x08\x1e\x0f1'\r'0"
tRp3205
sg16
g14
(S'\x07\xe0\x08\x1e\x0f/"\x010\xb0'
tRp3206
sg18
(dp3207
g20
I198
sg21
(dp3208
g23
(lp3209
I198
asg25
(lp3210
I198
asg27
(lp3211
I198
asg29
(lp3212
I198
assg31
(g32
g33
tp3213
sg35
(dp3214
g23
(lp3215
F334
asg25
(lp3216
F419
asg27
(lp3217
F152
asg29
(lp3218
F5
assg41
Nssg42
I2
sg20
I198
sg43
Nsg44
I0
sg45
(dp3219
g47
g48
sg49
F1.4199999999999999
ssg50
Nsg51
Nsa(dp3220
g13
g14
(S'\x07\xe0\x08\x1e\x0f2#\n\xd9X'
tRp3221
sg16
g14
(S"\x07\xe0\x08\x1e\x0f1'\r\xcf("
tRp3222
sg18
(dp3223
g20
I199
sg21
(dp3224
g23
(lp3225
I199
asg25
(lp3226
I199
asg27
(lp3227
I199
asg29
(lp3228
I199
assg31
(g32
g33
tp3229
sg35
(dp3230
g23
(lp3231
F214
asg25
(lp3232
F319
asg27
(lp3233
F52
asg29
(lp3234
F6
assg41
Nssg42
I2
sg20
I199
sg43
Nsg44
I0
sg45
(dp3235
g47
g48
sg49
F1.26
ssg50
Nsg51
NsasS'_exp_key'
p3236
NsS'_dynamic_trials'
p3237
(lp3238
g12
ag52
ag68
ag84
ag100
ag116
ag132
ag148
ag164
ag180
ag196
ag212
ag228
ag244
ag260
ag276
ag292
ag308
ag324
ag340
ag356
ag372
ag388
ag404
ag420
ag436
ag452
ag468
ag484
ag500
ag516
ag532
ag548
ag564
ag580
ag596
ag612
ag628
ag644
ag660
ag676
ag692
ag708
ag724
ag740
ag756
ag772
ag788
ag804
ag820
ag836
ag852
ag868
ag884
ag900
ag916
ag932
ag948
ag964
ag980
ag996
ag1012
ag1028
ag1044
ag1060
ag1076
ag1092
ag1108
ag1124
ag1140
ag1156
ag1172
ag1188
ag1204
ag1220
ag1236
ag1252
ag1268
ag1284
ag1300
ag1316
ag1332
ag1348
ag1364
ag1380
ag1396
ag1412
ag1428
ag1444
ag1460
ag1476
ag1492
ag1508
ag1524
ag1540
ag1556
ag1572
ag1588
ag1604
ag1620
ag1636
ag1652
ag1668
ag1684
ag1700
ag1716
ag1732
ag1748
ag1764
ag1780
ag1796
ag1812
ag1828
ag1844
ag1860
ag1876
ag1892
ag1908
ag1924
ag1940
ag1956
ag1972
ag1988
ag2004
ag2020
ag2036
ag2052
ag2068
ag2084
ag2100
ag2116
ag2132
ag2148
ag2164
ag2180
ag2196
ag2212
ag2228
ag2244
ag2260
ag2276
ag2292
ag2308
ag2324
ag2340
ag2356
ag2372
ag2388
ag2404
ag2420
ag2436
ag2452
ag2468
ag2484
ag2500
ag2516
ag2532
ag2548
ag2564
ag2580
ag2596
ag2612
ag2628
ag2644
ag2660
ag2676
ag2692
ag2708
ag2724
ag2740
ag2756
ag2772
ag2788
ag2804
ag2820
ag2836
ag2852
ag2868
ag2884
ag2900
ag2916
ag2932
ag2948
ag2964
ag2980
ag2996
ag3012
ag3028
ag3044
ag3060
ag3076
ag3092
ag3108
ag3124
ag3140
ag3156
ag3172
ag3188
ag3204
ag3220
asS'_ids'
p3239
c__builtin__
set
p3240
((lp3241
I0
aI1
aI2
aI3
aI4
aI5
aI6
aI7
aI8
aI9
aI10
aI11
aI12
aI13
aI14
aI15
aI16
aI17
aI18
aI19
aI20
aI21
aI22
aI23
aI24
aI25
aI26
aI27
aI28
aI29
aI30
aI31
aI32
aI33
aI34
aI35
aI36
aI37
aI38
aI39
aI40
aI41
aI42
aI43
aI44
aI45
aI46
aI47
aI48
aI49
aI50
aI51
aI52
aI53
aI54
aI55
aI56
aI57
aI58
aI59
aI60
aI61
aI62
aI63
aI64
aI65
aI66
aI67
aI68
aI69
aI70
aI71
aI72
aI73
aI74
aI75
aI76
aI77
aI78
aI79
aI80
aI81
aI82
aI83
aI84
aI85
aI86
aI87
aI88
aI89
aI90
aI91
aI92
aI93
aI94
aI95
aI96
aI97
aI98
aI99
aI100
aI101
aI102
aI103
aI104
aI105
aI106
aI107
aI108
aI109
aI110
aI111
aI112
aI113
aI114
aI115
aI116
aI117
aI118
aI119
aI120
aI121
aI122
aI123
aI124
aI125
aI126
aI127
aI128
aI129
aI130
aI131
aI132
aI133
aI134
aI135
aI136
aI137
aI138
aI139
aI140
aI141
aI142
aI143
aI144
aI145
aI146
aI147
aI148
aI149
aI150
aI151
aI152
aI153
aI154
aI155
aI156
aI157
aI158
aI159
aI160
aI161
aI162
aI163
aI164
aI165
aI166
aI167
aI168
aI169
aI170
aI171
aI172
aI173
aI174
aI175
aI176
aI177
aI178
aI179
aI180
aI181
aI182
aI183
aI184
aI185
aI186
aI187
aI188
aI189
aI190
aI191
aI192
aI193
aI194
aI195
aI196
aI197
aI198
aI199
atRp3242
sbsS'domain'
p3243
g3
(chyperopt.fmin
Domain
p3244
g5
NtRp3245
(dp3246
g31
(g32
g33
tp3247
sS'name'
p3248
NsS's_new_ids'
p3249
g3
(chyperopt.pyll.base
Literal
p3250
g5
NtRp3251
(dp3252
g3248
S'literal'
p3253
sS'pos_args'
p3254
(lp3255
sS'named_args'
p3256
(lp3257
sS'o_len'
p3258
I7
sS'_obj'
p3259
S'new_ids'
p3260
sS'pure'
p3261
I01
sbsS'vh'
p3262
g3
(chyperopt.vectorize
VectorizeHelper
p3263
g5
NtRp3264
(dp3265
S'take_memo'
p3266
(dp3267
g3
(g3250
g5
NtRp3268
(dp3269
g3248
g3253
sg3254
(lp3270
sg3256
(lp3271
sg3258
Nsg3259
I2
sg3261
I01
sb(lp3272
g3
(chyperopt.pyll.base
Apply
p3273
g5
NtRp3274
(dp3275
g3258
Nsg3261
I01
sg3248
S'idxs_take'
p3276
sg3254
(lp3277
g3
(g3273
g5
NtRp3278
(dp3279
g3258
Nsg3261
I01
sg3248
S'array_union'
p3280
sg3254
(lp3281
g3251
asg3256
(lp3282
sbag3
(g3273
g5
NtRp3283
(dp3284
g3258
Nsg3261
I01
sg3248
S'asarray'
p3285
sg3254
(lp3286
g3
(g3273
g5
NtRp3287
(dp3288
g3258
Nsg3261
I01
sg3248
S'repeat'
p3289
sg3254
(lp3290
g3
(g3273
g5
NtRp3291
(dp3292
g3258
Nsg3261
I01
sg3248
S'len'
p3293
sg3254
(lp3294
g3251
asg3256
(lp3295
sbag3268
asg3256
(lp3296
sbasg3256
(lp3297
sbag3
(g3273
g5
NtRp3298
(dp3299
g3258
Nsg3261
I01
sg3248
g3280
sg3254
(lp3300
g3
(g3273
g5
NtRp3301
(dp3302
g3258
Nsg3261
I01
sg3248
g3280
sg3254
(lp3303
g3
(g3273
g5
NtRp3304
(dp3305
g3258
Nsg3261
I01
sg3248
g3280
sg3254
(lp3306
g3251
asg3256
(lp3307
sbasg3256
(lp3308
sbasg3256
(lp3309
sbasg3256
(lp3310
sbasg3
(g3250
g5
NtRp3311
(dp3312
g3248
g3253
sg3254
(lp3313
sg3256
(lp3314
sg3258
Nsg3259
I1
sg3261
I01
sb(lp3315
g3
(g3273
g5
NtRp3316
(dp3317
g3258
Nsg3261
I01
sg3248
g3276
sg3254
(lp3318
g3
(g3273
g5
NtRp3319
(dp3320
g3258
Nsg3261
I01
sg3248
g3280
sg3254
(lp3321
g3251
asg3256
(lp3322
sbag3
(g3273
g5
NtRp3323
(dp3324
g3258
Nsg3261
I01
sg3248
g3285
sg3254
(lp3325
g3
(g3273
g5
NtRp3326
(dp3327
g3258
Nsg3261
I01
sg3248
g3289
sg3254
(lp3328
g3
(g3273
g5
NtRp3329
(dp3330
g3258
Nsg3261
I01
sg3248
g3293
sg3254
(lp3331
g3251
asg3256
(lp3332
sbag3311
asg3256
(lp3333
sbasg3256
(lp3334
sbag3
(g3273
g5
NtRp3335
(dp3336
g3258
Nsg3261
I01
sg3248
g3280
sg3254
(lp3337
g3
(g3273
g5
NtRp3338
(dp3339
g3258
Nsg3261
I01
sg3248
g3280
sg3254
(lp3340
g3304
asg3256
(lp3341
sbasg3256
(lp3342
sbasg3256
(lp3343
sbasg3
(g3273
g5
NtRp3344
(dp3345
g3258
Nsg3261
I01
sg3248
S'float'
p3346
sg3254
(lp3347
g3
(g3273
g5
NtRp3348
(dp3349
g3258
Nsg3261
I00
sg3248
S'hyperopt_param'
p3350
sg3254
(lp3351
g3
(g3250
g5
NtRp3352
(dp3353
g3248
g3253
sg3254
(lp3354
sg3256
(lp3355
sg3258
I11
sg3259
g29
sg3261
I01
sbag3
(g3273
g5
NtRp3356
(dp3357
g3258
Nsg3261
I00
sg3248
S'quniform'
p3358
sg3254
(lp3359
g3311
ag3
(g3250
g5
NtRp3360
(dp3361
g3248
g3253
sg3254
(lp3362
sg3256
(lp3363
sg3258
Nsg3259
I14
sg3261
I01
sbag3
(g3250
g5
NtRp3364
(dp3365
g3248
g3253
sg3254
(lp3366
sg3256
(lp3367
sg3258
Nsg3259
I1
sg3261
I01
sbasg3256
(lp3368
(S'rng'
p3369
g3
(g3250
g5
NtRp3370
(dp3371
g3248
g3253
sg3254
(lp3372
sg3256
(lp3373
sg3258
Nsg3259
cnumpy.random
__RandomState_ctor
p3374
(tRp3375
(S'MT19937'
p3376
cnumpy.core.multiarray
_reconstruct
p3377
(cnumpy
ndarray
p3378
(I0
tS'b'
tRp3379
(I1
(I624
tcnumpy
dtype
p3380
(S'u4'
I0
I1
tRp3381
(I3
S'<'
NNNI-1
I-1
I0
tbI00
S'\xd7\x18u\xe1\x122\xeb\x80\x8c=\xf6\xef\xc9e\xd6\xfb\xc9\xb5\x834G\xb7\xed\x11\xb8\x03\xbc\x07\xcf\xabw\xd9\xc7\xfd\x93\x98e\xabN\x9d`\x0bv\x0f\xfc\xe2"\xb3z\x1c\xf2\x19\x02_\xa0d\xcc\xb2\xd7\xd2\xbe\xe4\xf9\t\xd7\x1f\x11\x17\x96-\xa0\xaad\x02\xb5bFEL\xa2\xeb\xfeT\x08\xb8\x93\xf9$\xcf\x9d\xafz\xc0\xcdq\xce\xa6\xee\xb2\x03\xc4;\xabz\x0e6-\x9f-\x94\x8a\x84I\xd6t3v}\xc3\xe0\x83Sp\t\x04\xe3\xf2\xeeN\xab\xa2`\x9d\x06\xb7\xb2\xce\x00\x02\x03\xaeZ\x87\x97\xc7\xc8RZ\x00\xfe\xa1\x0e\xb8 v\xc1\x95\xf2Xyt\xce\xa7\x00\xe5 #\xa3BM\xf9/,q\xc4\xe4\x07\xca\xbf\xaf1\x05\xc6\xcb\xdc\xff\x8d\xd1\xa6k\xe1\xd5)\x1fc^\x0f\xe2\x0c\xa0\xde\xb5\x1ev=\xb8\xf2\xed\x96\xfb\x8c\x13\x83\xecs\x98\x1cb\x00\xda\xd2\x17\xd5Q4\xbb\x1a\xed\x9a\xa2\x1f\x84\xfd\x87\x84\xe5\xa6.Mo\xed\x81/:\xed\xa9\xa2\xda\xb9z\xad\xe3f#\x80\xe2\xd9-Z\xd1\r\x08m\x0b\xc7Lx\x8b\xb6kyf\xbdi\n\xdd}\xfcr\x16\xbb\x03\x140\x90]\x141\xf1\x91\xe6\xb6\xa7\xac\xac\x1f\xb4\x0e\xf3G\x99\xf2g\xdd\x9b\xa2\xea\x84\xf4\x977E\xc2\xc2o\xb5}\xa9\xe4/5d\x8a\x93"\x83\x94\x7f\\\xd5\xe2u(*\xd8\xc0\xa1V\x86\xad\xd2\x90\xe0\x85*\xfb"\x84\x81\xf8\xa7[\x1dq\x96Y\xa4\x84\xeeo\xc0\xafnh\xb5\xbaVJ\x0f\x0c\x1d\xde\xcd\xfb\xb6\xc2:\xff\x85\xc1\xa1P`\x13\xf5\x1d\x97)H\xaf\xd7v*\xfe\xde\x8f\xfe\xce\x84\x07\xf0I\x99/\t\xb9\xa5C\x87}\xd6\xd9lo\t\xa0u\xd7w\x87Fo\x10\xa8\x04\xd9>d\xfe\xfd\xd6\xf5\xf1\xe1)\x03X\xfd\x05[\xaaN\x16dt\xd4E\xf75\xa5\xa9q4y\xe2\xa9:>f\t\xa8\xfd\x9c\xd5<\xaf\xf8\x8b\x8dR*\xeb\x85\x84\xc8\xe4\xc2O\x11\xa2\xeeC\x1f\x08[\xa1\xfc\x02\x1c\x1bb\xca\x1f\x05P\xee\xdcW\xad*\t\xb0\xb9\x1b\xb5\xef\x95lK\xe13%\x15DoD\x8bj\xc1pv@\xdaWD7~*W:D\x17m\xe1\xae\xe5\x80k9\xd6\x10\x82""V\xf7-\xa0\xe2\xc5\xf5\x1f`\x0b\xf5\x83\x8f\xffap\xf70\xdeJQ\xcaE\xb9\x1d9n\xb0G\xc8\x0elJ\xa6T\x1b\x86\xda\xb1\xdb\xda\xfb\x8e\x0b\xade%\xdd\xd1\xff\x0b\x9f\x07.\x1b\x8cu\x0f\xd0<T\xcc\r&o\xda$\x84\x13B\x7fS4\x1c\xf3\x15\xfe\x08#B\xe5AG\xd5\xe3\xe4\xda\xb0\x96\xfe\x99\xa2(\x98uR%\xa5\xb8X\x10\x1bC\xdc #\x88"+\n\xcd\xa9#\x954!<K\x9fZ\xba#\xfe\xa4|>\'\x1a\xae\x82<\xc4\xfb\x06\x94\x87*\x88l62q\xa4\x0e \xc4\xf8\xa0\xe2\x83\xb5T8=\xcd\xf0\xc5\x80\xfc\x86@\xeay\x7f\x95?\x00\x07\x99\x0e>r\xfd\x14\xc5\x1d:\x7f\x03|\'R\xb2\xd7\x01\xfc\x9c3\x93\x06t\xb4\xd5\x18\xb2FWd\xfe\xd9\xb2\x04Z(\xef\xd1\xa1\xb5y\x91\x97n$\xf6\xd2f\x11\x82\x81D|\xbb2T\xe5\xd3\xdfP/{\xd5\xb0\x84\xb0\x1d+\x0c$\x04\x9e\xf7\xce\xe8\xaen,\x93`\xa7\x89\x8e\xf6m\x7fH\xa1\xdf\xbc0\xcc\xfa\x02LW;\xd6a\x8d\x10\x0b\x03\\]\xa4\xe2v\xd3\xae\n[z\x11\x93i\xf9,\xad(\xd7r\x90\xe7\x0c\xb5\xeez\xb8P\xd8\x0c\xddho\xcaEx\n\'\x8d-\x92\x88\x0cL\xd9\x86\xc0\r\x9duk\xcd\xc19q\x11\x80\xc6\xb7\'n\xb8 (8\xcae\xecd?\xce6\x16\x8b\x180\x94\xb9?\xa5\xac?g\x861\xf1`\x16|\xc1+\xecr\xfa)n\x99\xf9\xd6@%\x93\x86\xa6\xc5(\x1d\x0c\xb3\xb4\x86\xefq\\U\x1dgG\x9a0\rG\x1b\xa2\x08\xaf\x88/D\x82\xd2\x10;\xc7)\xa9i[:)&\xe7\xf11U\xaf\t\x8a\x9c\xb6P\xe7\xaf\x04\x93\xed\xe9\x8d\\\xa6V:\x02\xd2\x03\x0f\x9aG6\xb9~9\xad<^s=\xa6+\xaco\\-\xa4*\x98\x02w274\n\xf6\x86\x95\xdej5\x08\x9fx\xc7\xe7\xff\xd1JMU\x1b\xa44\xb2H\x03q\xdb\xdd\xc3\xda\xefK\xdd\x13\x95(\x01|\x9b\xa0\xe7\xf9\xf79K\t\x83;\xd8\xd6\xc4\xe8\xc1\x93\x93\xdc\xb5"\xd3\xc1\xb9\xc3\x86\x12\xcd\xa3\x18\xdb\xb5\x86/\x8d5\xdd\xe2\x02\x83\x00\xa1R)\xf4\xf3\xbe\xe6\xe6\xbf\xfb\xfb\x92\x05\xcay\xec\x83\xf5\x19\xa5*36\xba\xd6\x92\xfd\n\x96:F]\xe2\xd3\x12d$n\xbf,\xdc\xcc\xca\x03\xf7\xff8\xfa\x90\xdd\xa3\xe8\xd7u\xabI]\xa5(\xc7\xf3\xc3\x8c\x8b2[\x03\x979\xe0}N\x87\xc7\\(g\xbb\xa9\x9a\x11\xf9;\x9d\xb0\xa4*\x9c\xab\xbd\'\xf5\x92x\xb1\r\xc0p\xad#\xb8\xa1\x9e\x93IuB\xe2\xd4\xa5u\xdb\x0c\x86}\x1e\xe7\xb3\xcfy\xfen9\x8bt\xb3+i?\x88\xda\xc3\xca\x86\xf5V\xb0\xf3\xee\x84\xe3\x98\xd2\xfc\x9a\xe9\xb8\xf1\x1c\xfb9\x82\x87\x8a\x82k\xb0\x95OQ\xf8\x0e\x8f\xe6\x04\xd5\xfd\xf2\xfb8\xaf\xa5*\x05\xec\x03=\xe3;\x83\x96\xcc\xfe\xe6V\xa5\xe0\xce\\\xf9\xe2\x1d\xafJc\xa2\x0ez\xf7|A\xab`M\xc9\xfb\xb6\x96\xee\xcc\x96Zb\xf4\xdb#\xc8\xcb\xba\xb4\xc0\xda|\x85\\\xec\xba\xe2\xa8\xa5^\x95UR\xbc\xd9\xd5Z\x01%%lo\x9e\xa9\x02\x82b\x9c\xddW|\x06a\x9b\xf8%\xf0\xbd\xf1.0\x8d\x00\xb0\xefmK\x17\xde\xcb\x0b\xcc\x03\xcb\xa2r\x9e\xe0\x11\x98\x12u\x1f\xab\x12\xcfSC\x84\xd9\x89\xf9\xc7\x9b(\xcd\xeaw\x05JZ\x0c\xd2.\xcb\xaf\x03\xa8\xfal\xdf|\x8f\x9d\xcd~`\x8a&\xea\xe8?A\xc6\x15>\xf62\xa4\x97(\x93A\x9dt\x98\xfe\xbe\t#A\x0e\xb4)\x1a\xf0\x98q\xb6\xf9n.\xa0g(r\x98a\x9cp^\xee\x18\xe8\x97\xd2\x8b\x7f\xa6Q\xa8#\x13\x8aR\xa3\x12\x1dJ\xa6\x19\x90\x8e\xbdHE=\xf1E\xd5\xaf\xb3\x184\xf1\xd8|ua_\xf9\x81V\xb2\x9d\xc7\xd6t`\xd6B\xb8\xab\xd1\x82\xc0\xcf\xc7\x19\xf7\x8d\xccLd\xa1\xecD\xc8\xb7\x06\x0f$\x1epM\x03\xe6\xd6g\xbbO\xc6s\xea\x94nau\x1e\xd2\x0b\xf0\xec\x9a9B\xc4\xf8\xd3\xfb\x17\xe5\xb9\xa0\xe6\xab\xeb\xf0\x81\xb7H\xbc\xda5\xa9\x93\x8b_\x14B\xc2\x80\xec2\xdf\x87\xe92\x9d\x16\xe6\x7f3\xf9\xb4\xc97\xa5e\\N\x85\xff|.*\x93\xa96\x19\n\xbc\xf0\xab\x89,\xddzC\xed4\x9c\x17?\x17\x03\xabjp\xe0\xc0\x01nx+#\xf0?_\x86\xa7\xa4\x01\xd7e\xac\xe3\t3\xb7\xf1\xde4\xe6\xd0\x88\xa4\xce\x9b#\xd2%\xe33i\xd1\x8e\xa0\xc64w:\n\xc2\xdat]\x9f\xa6\x83x!\x11l\x11\xa6\xca\xf2\x14\x81\xcd\xaa\xae\xe2\xf6\xb1\xca\xcc\xa5?\x08\xf4EY=\x87\x8a\xc3\xe9\xb3\x93\x01^{\xba\xac0\n"y^\x8e\x89E\x8c}#\xc1\\M\x07\xd5W\x80\x90\x1c\x1a\xa9Q2_Z-\x9d.\x0e\xf0\xd3\xd6\xe8\xa8\xd9\xcd\x85V\x8b\x89\n\xf7\xf9\x07\xeb\xe6\xa7\xdcT\xa4\xac(\xa8o\xec\xad\xf3\x930x\x0c\x12\xb4\xf7\xa4\x1cxD\xf7v\xdc\xf6_g\xe5\xc6;Zp\xa6\xa2\xfc< \x88\xbeOA/\xec\x1e\xcd\x84c>\xbbY\xac\x91\x9d8\x07KW\xad\xa2\xb1rg\x98-\xdeBX\x1f\xba\x15\xed\xdd\xc9\xe2\xd5\x03Vt\xb7\x8f\xd1\x9f\x94\xdb\x7f\xf2F\x85=OW@4\xef\xff8f>\xb8\x1f\xa4\x96\x10E\xc0m\x8c\x02\x10\x91\x11\x17\xb8x\xae\n\x0e\xd7\x8e\xd9\xe5\x06\x80{\xa1\x12\xaf\x9e\xcd\t\n\xc5\xc4\xee\x8aQ6\xdf\xa8\x18\n\xe5\xee\xd1\xc8\x0f\xd8\x89\xa5\x18N\xca\x98_H\xc9fBSz\xdcy\x88\x17\xa8`\xea\xdcw\xfcE\xb9V\xfd\xe8o\xb2\x84|~0\x11\xf6A\x9b\xd7\xe7\xd6)\xd4M3\xc2=H\xa5\xcf\xc4;Y\xae\x13\xff\xd8\xc77H\xf4\x7f\xbb\xdb\xa0L\xa6\xf5\xaf\x13\xba\xd3\x0ffm9*\x88mRUX\x84\x81\x05~!\xe1\x92E\xc4"x\x87e\xe5fb(\x0f\\\xc0$\xcf\xc5\x8d\xefBZk\xa3\x88\xcc\xb7\xd5\x08\x8f7\x85\x17\t\'\x0e\x1bp)\xe4\x10\x1b\xb4\x1b\xed\x93!\xd8\xaa\xec\xdc\xf8\x19\xcafB8\xf5-\xc0B\x83}oL\xe1.\x91\x90\x18\xbd\xc5\xae\xd3X\xad\xff\xf8~\x97\x8e1.\x18\xc3\xa3X\x1d9lm\x82\x1f8\xf2\x8a\x82X\xf7\xe3\x06\xfc\xa9AE\x91\x99Q\xd2\x16\x1dD\x8b\x12\t}\xaa{\x02t\x1d\xbb}0O\x9bW\xab\x08-*CU#\xf53W\xca\xc6\x98\xf3j\xc1\xa80\xcf\xfe.\x8a\x0c\xf7oT\x8f\xc7\x03\x1d\xd2\x18\x05\x96\xfa\x90b\xbe\\\x08q$\n{\xf7\xb9\x1e\xae\xb5?e\xf1F\x87i\xb4\xaaar2[\xd1\xd0\xc4\\k\xa7\xc6\xb7\x9a9\xea\x93\xb5\x93\x8d#\xf4\x1a\xae\xd9\xadN7_\xfa\xe7C\x0e:-z|\xdf\xbe\xe9\x14\xc7g\xb5"\x12\t\x91\xbd\xb6)`y\xce\x10\x93\xf8#\x92\x17_\xe5\x19\xe3Mv\x8c\xcb\xdf\'A\xc1\xab\x90Be\xb8\xf9A\xa7\x10m\x0ep)\xa7\x94l\x8e\xc4\xdf\xc5\xa2\xae\nC\x80\x10\rz\x10\xa1#\xaaF\xaa`}\xe5\x86``\xc5\xfe\x14<!\n\xfb\xd0\x1c\x92\xa9Lj\xb2\xc6\x188\x0b\x01\xac\xc3\xc3\xd8r\xf0\x84\x9c\xb2(\xb1P\x9c3"G\xaf\x11\x14\x01\xd0\x0c\xc4y\xec+\xce\xb1\x17m<\x8fD`\x9a\xc6\xc0+X\xd6\t\xef\xfd\x1bV\xdd\x08\x1e\xdaI\xbf\'\xd2\x7f<o\x04\xed\xd6\xd4i\x9c\xb8\'>"\xe0/i\x01\xc6id\xf5\xeeK\xd2\xd5\x9d\xddR\xa6\xa90\x19u,\x861\xac}\x93\xfd\x88\xb9\\\xd6\x9c\x1b\xdd\xde\xa7\x19\xbe\x9a\xccI\x892\xe0\xda\xc5B9ZFF%\x7f1\xc8\x95\x92\x93v\x9aFV\xf3<\xdb\xbd)&t\x19M\xf2\x1e\x15\xc1\x9d\x81\xdd\xf2\'x\x16q\x98"-\x87_\x13_\xaa\x1c\x0f\xb5\xad\xe9\xf7e\xdb*\xdd\xafG\x1ea_\xf3\x96 P\x94\xeeE\xe8\xdc\x95\xa3\x8f\xf3\x89\xbb\xf6\x1c\x10\xaf)-P\xfaq\xb7[K@\x9c\xc3'
tbI250
I1
F-1.787400482654014
tbsg3261
I01
sbtp3382
asbasg3256
(lp3383
sbasg3256
(lp3384
sb(lp3385
g3
(g3273
g5
NtRp3386
(dp3387
g3258
Nsg3261
I01
sg3248
g3276
sg3254
(lp3388
g3338
ag3
(g3273
g5
NtRp3389
(dp3390
g3258
Nsg3261
I01
sg3248
S'idxs_map'
p3391
sg3254
(lp3392
g3338
ag3
(g3250
g5
NtRp3393
(dp3394
g3248
g3253
sg3254
(lp3395
sg3256
(lp3396
sg3258
I5
sg3259
g3346
sg3261
I01
sbag3
(g3273
g5
NtRp3397
(dp3398
g3258
Nsg3261
I00
sg3248
g3254
sg3254
(lp3399
g3338
ag3
(g3273
g5
NtRp3400
(dp3401
g3258
Nsg3261
I01
sg3248
g3276
sg3254
(lp3402
g3335
ag3
(g3273
g5
NtRp3403
(dp3404
g3258
Nsg3261
I00
sg3248
g3358
sg3254
(lp3405
g3311
ag3360
ag3364
asg3256
(lp3406
(lp3407
S'size'
p3408
ag3
(g3273
g5
NtRp3409
(dp3410
g3258
Nsg3261
I01
sg3248
g3293
sg3254
(lp3411
g3335
asg3256
(lp3412
sbaa(g3369
g3
(g3250
g5
NtRp3413
(dp3414
g3248
g3253
sg3254
(lp3415
sg3256
(lp3416
sg3258
Nsg3259
g3375
sg3261
I01
sbtp3417
asbag3338
asg3256
(lp3418
sbasg3256
(lp3419
sbasg3256
(lp3420
sbag3304
asg3256
(lp3421
sbasg3
(g3273
g5
NtRp3422
(dp3423
g3258
Nsg3261
I01
sg3248
g3346
sg3254
(lp3424
g3
(g3273
g5
NtRp3425
(dp3426
g3258
Nsg3261
I00
sg3248
g3350
sg3254
(lp3427
g3
(g3250
g5
NtRp3428
(dp3429
g3248
g3253
sg3254
(lp3430
sg3256
(lp3431
sg3258
I8
sg3259
g25
sg3261
I01
sbag3
(g3273
g5
NtRp3432
(dp3433
g3258
Nsg3261
I00
sg3248
g3358
sg3254
(lp3434
g3
(g3250
g5
NtRp3435
(dp3436
g3248
g3253
sg3254
(lp3437
sg3256
(lp3438
sg3258
Nsg3259
I1
sg3261
I01
sbag3
(g3250
g5
NtRp3439
(dp3440
g3248
g3253
sg3254
(lp3441
sg3256
(lp3442
sg3258
Nsg3259
I512
sg3261
I01
sbag3
(g3250
g5
NtRp3443
(dp3444
g3248
g3253
sg3254
(lp3445
sg3256
(lp3446
sg3258
Nsg3259
I1
sg3261
I01
sbasg3256
(lp3447
(g3369
g3370
tp3448
asbasg3256
(lp3449
sbasg3256
(lp3450
sb(lp3451
g3
(g3273
g5
NtRp3452
(dp3453
g3258
Nsg3261
I01
sg3248
g3276
sg3254
(lp3454
g3
(g3273
g5
NtRp3455
(dp3456
g3258
Nsg3261
I01
sg3248
g3280
sg3254
(lp3457
g3304
asg3256
(lp3458
sbag3
(g3273
g5
NtRp3459
(dp3460
g3258
Nsg3261
I01
sg3248
g3391
sg3254
(lp3461
g3455
ag3
(g3250
g5
NtRp3462
(dp3463
g3248
g3253
sg3254
(lp3464
sg3256
(lp3465
sg3258
I5
sg3259
g3346
sg3261
I01
sbag3
(g3273
g5
NtRp3466
(dp3467
g3258
Nsg3261
I00
sg3248
g3254
sg3254
(lp3468
g3455
ag3
(g3273
g5
NtRp3469
(dp3470
g3258
Nsg3261
I01
sg3248
g3276
sg3254
(lp3471
g3
(g3273
g5
NtRp3472
(dp3473
g3258
Nsg3261
I01
sg3248
g3280
sg3254
(lp3474
g3455
asg3256
(lp3475
sbag3
(g3273
g5
NtRp3476
(dp3477
g3258
Nsg3261
I00
sg3248
g3358
sg3254
(lp3478
g3435
ag3439
ag3443
asg3256
(lp3479
(lp3480
g3408
ag3
(g3273
g5
NtRp3481
(dp3482
g3258
Nsg3261
I01
sg3248
g3293
sg3254
(lp3483
g3472
asg3256
(lp3484
sbaa(g3369
g3413
tp3485
asbag3455
asg3256
(lp3486
sbasg3256
(lp3487
sbasg3256
(lp3488
sbag3304
asg3256
(lp3489
sbasg3435
(lp3490
g3
(g3273
g5
NtRp3491
(dp3492
g3258
Nsg3261
I01
sg3248
g3276
sg3254
(lp3493
g3
(g3273
g5
NtRp3494
(dp3495
g3258
Nsg3261
I01
sg3248
g3280
sg3254
(lp3496
g3251
asg3256
(lp3497
sbag3
(g3273
g5
NtRp3498
(dp3499
g3258
Nsg3261
I01
sg3248
g3285
sg3254
(lp3500
g3
(g3273
g5
NtRp3501
(dp3502
g3258
Nsg3261
I01
sg3248
g3289
sg3254
(lp3503
g3
(g3273
g5
NtRp3504
(dp3505
g3258
Nsg3261
I01
sg3248
g3293
sg3254
(lp3506
g3251
asg3256
(lp3507
sbag3435
asg3256
(lp3508
sbasg3256
(lp3509
sbag3472
asg3256
(lp3510
sbasg3
(g3273
g5
NtRp3511
(dp3512
g3258
Nsg3261
I01
sg3248
g3346
sg3254
(lp3513
g3
(g3273
g5
NtRp3514
(dp3515
g3258
Nsg3261
I00
sg3248
g3350
sg3254
(lp3516
g3
(g3250
g5
NtRp3517
(dp3518
g3248
g3253
sg3254
(lp3519
sg3256
(lp3520
sg3258
I11
sg3259
g23
sg3261
I01
sbag3
(g3273
g5
NtRp3521
(dp3522
g3258
Nsg3261
I00
sg3248
g3358
sg3254
(lp3523
g3
(g3250
g5
NtRp3524
(dp3525
g3248
g3253
sg3254
(lp3526
sg3256
(lp3527
sg3258
Nsg3259
I1
sg3261
I01
sbag3
(g3250
g5
NtRp3528
(dp3529
g3248
g3253
sg3254
(lp3530
sg3256
(lp3531
sg3258
Nsg3259
I512
sg3261
I01
sbag3
(g3250
g5
NtRp3532
(dp3533
g3248
g3253
sg3254
(lp3534
sg3256
(lp3535
sg3258
Nsg3259
I2
sg3261
I01
sbasg3256
(lp3536
(g3369
g3370
tp3537
asbasg3256
(lp3538
sbasg3256
(lp3539
sb(lp3540
g3
(g3273
g5
NtRp3541
(dp3542
g3258
Nsg3261
I01
sg3248
g3276
sg3254
(lp3543
g3
(g3273
g5
NtRp3544
(dp3545
g3258
Nsg3261
I01
sg3248
g3280
sg3254
(lp3546
g3304
asg3256
(lp3547
sbag3
(g3273
g5
NtRp3548
(dp3549
g3258
Nsg3261
I01
sg3248
g3391
sg3254
(lp3550
g3544
ag3
(g3250
g5
NtRp3551
(dp3552
g3248
g3253
sg3254
(lp3553
sg3256
(lp3554
sg3258
I5
sg3259
g3346
sg3261
I01
sbag3
(g3273
g5
NtRp3555
(dp3556
g3258
Nsg3261
I00
sg3248
g3254
sg3254
(lp3557
g3544
ag3
(g3273
g5
NtRp3558
(dp3559
g3258
Nsg3261
I01
sg3248
g3276
sg3254
(lp3560
g3
(g3273
g5
NtRp3561
(dp3562
g3258
Nsg3261
I01
sg3248
g3280
sg3254
(lp3563
g3544
asg3256
(lp3564
sbag3
(g3273
g5
NtRp3565
(dp3566
g3258
Nsg3261
I00
sg3248
g3358
sg3254
(lp3567
g3524
ag3528
ag3532
asg3256
(lp3568
(lp3569
g3408
ag3
(g3273
g5
NtRp3570
(dp3571
g3258
Nsg3261
I01
sg3248
g3293
sg3254
(lp3572
g3561
asg3256
(lp3573
sbaa(g3369
g3413
tp3574
asbag3544
asg3256
(lp3575
sbasg3256
(lp3576
sbasg3256
(lp3577
sbag3304
asg3256
(lp3578
sbasg3356
(lp3579
g3400
asg3
(g3273
g5
NtRp3580
(dp3581
g3258
Nsg3261
I01
sg3248
g3346
sg3254
(lp3582
g3
(g3273
g5
NtRp3583
(dp3584
g3258
Nsg3261
I00
sg3248
g3350
sg3254
(lp3585
g3
(g3250
g5
NtRp3586
(dp3587
g3248
g3253
sg3254
(lp3588
sg3256
(lp3589
sg3258
I11
sg3259
g27
sg3261
I01
sbag3
(g3273
g5
NtRp3590
(dp3591
g3258
Nsg3261
I00
sg3248
g3358
sg3254
(lp3592
g3
(g3250
g5
NtRp3593
(dp3594
g3248
g3253
sg3254
(lp3595
sg3256
(lp3596
sg3258
Nsg3259
I1
sg3261
I01
sbag3
(g3250
g5
NtRp3597
(dp3598
g3248
g3253
sg3254
(lp3599
sg3256
(lp3600
sg3258
Nsg3259
I512
sg3261
I01
sbag3268
asg3256
(lp3601
(g3369
g3370
tp3602
asbasg3256
(lp3603
sbasg3256
(lp3604
sb(lp3605
g3
(g3273
g5
NtRp3606
(dp3607
g3258
Nsg3261
I01
sg3248
g3276
sg3254
(lp3608
g3301
ag3
(g3273
g5
NtRp3609
(dp3610
g3258
Nsg3261
I01
sg3248
g3391
sg3254
(lp3611
g3301
ag3
(g3250
g5
NtRp3612
(dp3613
g3248
g3253
sg3254
(lp3614
sg3256
(lp3615
sg3258
I5
sg3259
g3346
sg3261
I01
sbag3
(g3273
g5
NtRp3616
(dp3617
g3258
Nsg3261
I00
sg3248
g3254
sg3254
(lp3618
g3301
ag3
(g3273
g5
NtRp3619
(dp3620
g3258
Nsg3261
I01
sg3248
g3276
sg3254
(lp3621
g3298
ag3
(g3273
g5
NtRp3622
(dp3623
g3258
Nsg3261
I00
sg3248
g3358
sg3254
(lp3624
g3593
ag3597
ag3268
asg3256
(lp3625
(lp3626
g3408
ag3
(g3273
g5
NtRp3627
(dp3628
g3258
Nsg3261
I01
sg3248
g3293
sg3254
(lp3629
g3298
asg3256
(lp3630
sbaa(g3369
g3413
tp3631
asbag3301
asg3256
(lp3632
sbasg3256
(lp3633
sbasg3256
(lp3634
sbag3304
asg3256
(lp3635
sbasg3432
(lp3636
g3469
asg3532
(lp3637
g3
(g3273
g5
NtRp3638
(dp3639
g3258
Nsg3261
I01
sg3248
g3276
sg3254
(lp3640
g3
(g3273
g5
NtRp3641
(dp3642
g3258
Nsg3261
I01
sg3248
g3280
sg3254
(lp3643
g3251
asg3256
(lp3644
sbag3
(g3273
g5
NtRp3645
(dp3646
g3258
Nsg3261
I01
sg3248
g3285
sg3254
(lp3647
g3
(g3273
g5
NtRp3648
(dp3649
g3258
Nsg3261
I01
sg3248
g3289
sg3254
(lp3650
g3
(g3273
g5
NtRp3651
(dp3652
g3258
Nsg3261
I01
sg3248
g3293
sg3254
(lp3653
g3251
asg3256
(lp3654
sbag3532
asg3256
(lp3655
sbasg3256
(lp3656
sbag3561
asg3256
(lp3657
sbasg3
(g3273
g5
NtRp3658
(dp3659
g3258
I4
sg3261
I00
sg3248
S'dict'
p3660
sg3254
(lp3661
sg3256
(lp3662
(lp3663
g27
ag3580
aa(lp3664
g23
ag3511
aa(lp3665
g25
ag3422
aa(lp3666
g29
ag3344
aasb(lp3667
g3
(g3273
g5
NtRp3668
(dp3669
g3258
Nsg3261
I01
sg3248
g3276
sg3254
(lp3670
g3304
ag3
(g3273
g5
NtRp3671
(dp3672
g3258
Nsg3261
I01
sg3248
g3391
sg3254
(lp3673
g3304
ag3
(g3250
g5
NtRp3674
(dp3675
g3248
g3253
sg3254
(lp3676
sg3256
(lp3677
sg3258
I4
sg3259
g3660
sg3261
I01
sbasg3256
(lp3678
(lp3679
g27
ag3
(g3273
g5
NtRp3680
(dp3681
g3258
Nsg3261
I00
sg3248
g3254
sg3254
(lp3682
g3304
ag3606
asg3256
(lp3683
sbaa(lp3684
g23
ag3
(g3273
g5
NtRp3685
(dp3686
g3258
Nsg3261
I00
sg3248
g3254
sg3254
(lp3687
g3304
ag3541
asg3256
(lp3688
sbaa(lp3689
g25
ag3
(g3273
g5
NtRp3690
(dp3691
g3258
Nsg3261
I00
sg3248
g3254
sg3254
(lp3692
g3304
ag3452
asg3256
(lp3693
sbaa(lp3694
g29
ag3
(g3273
g5
NtRp3695
(dp3696
g3258
Nsg3261
I00
sg3248
g3254
sg3254
(lp3697
g3304
ag3386
asg3256
(lp3698
sbaasbag3251
asg3256
(lp3699
sbasg3521
(lp3700
g3558
asg3524
(lp3701
g3
(g3273
g5
NtRp3702
(dp3703
g3258
Nsg3261
I01
sg3248
g3276
sg3254
(lp3704
g3
(g3273
g5
NtRp3705
(dp3706
g3258
Nsg3261
I01
sg3248
g3280
sg3254
(lp3707
g3251
asg3256
(lp3708
sbag3
(g3273
g5
NtRp3709
(dp3710
g3258
Nsg3261
I01
sg3248
g3285
sg3254
(lp3711
g3
(g3273
g5
NtRp3712
(dp3713
g3258
Nsg3261
I01
sg3248
g3289
sg3254
(lp3714
g3
(g3273
g5
NtRp3715
(dp3716
g3258
Nsg3261
I01
sg3248
g3293
sg3254
(lp3717
g3251
asg3256
(lp3718
sbag3524
asg3256
(lp3719
sbasg3256
(lp3720
sbag3561
asg3256
(lp3721
sbasg3443
(lp3722
g3
(g3273
g5
NtRp3723
(dp3724
g3258
Nsg3261
I01
sg3248
g3276
sg3254
(lp3725
g3
(g3273
g5
NtRp3726
(dp3727
g3258
Nsg3261
I01
sg3248
g3280
sg3254
(lp3728
g3251
asg3256
(lp3729
sbag3
(g3273
g5
NtRp3730
(dp3731
g3258
Nsg3261
I01
sg3248
g3285
sg3254
(lp3732
g3
(g3273
g5
NtRp3733
(dp3734
g3258
Nsg3261
I01
sg3248
g3289
sg3254
(lp3735
g3
(g3273
g5
NtRp3736
(dp3737
g3258
Nsg3261
I01
sg3248
g3293
sg3254
(lp3738
g3251
asg3256
(lp3739
sbag3443
asg3256
(lp3740
sbasg3256
(lp3741
sbag3472
asg3256
(lp3742
sbasg3528
(lp3743
g3
(g3273
g5
NtRp3744
(dp3745
g3258
Nsg3261
I01
sg3248
g3276
sg3254
(lp3746
g3
(g3273
g5
NtRp3747
(dp3748
g3258
Nsg3261
I01
sg3248
g3280
sg3254
(lp3749
g3251
asg3256
(lp3750
sbag3
(g3273
g5
NtRp3751
(dp3752
g3258
Nsg3261
I01
sg3248
g3285
sg3254
(lp3753
g3
(g3273
g5
NtRp3754
(dp3755
g3258
Nsg3261
I01
sg3248
g3289
sg3254
(lp3756
g3
(g3273
g5
NtRp3757
(dp3758
g3258
Nsg3261
I01
sg3248
g3293
sg3254
(lp3759
g3251
asg3256
(lp3760
sbag3528
asg3256
(lp3761
sbasg3256
(lp3762
sbag3561
asg3256
(lp3763
sbasg3593
(lp3764
g3
(g3273
g5
NtRp3765
(dp3766
g3258
Nsg3261
I01
sg3248
g3276
sg3254
(lp3767
g3
(g3273
g5
NtRp3768
(dp3769
g3258
Nsg3261
I01
sg3248
g3280
sg3254
(lp3770
g3251
asg3256
(lp3771
sbag3
(g3273
g5
NtRp3772
(dp3773
g3258
Nsg3261
I01
sg3248
g3285
sg3254
(lp3774
g3
(g3273
g5
NtRp3775
(dp3776
g3258
Nsg3261
I01
sg3248
g3289
sg3254
(lp3777
g3
(g3273
g5
NtRp3778
(dp3779
g3258
Nsg3261
I01
sg3248
g3293
sg3254
(lp3780
g3251
asg3256
(lp3781
sbag3593
asg3256
(lp3782
sbasg3256
(lp3783
sbag3298
asg3256
(lp3784
sbasg3360
(lp3785
g3
(g3273
g5
NtRp3786
(dp3787
g3258
Nsg3261
I01
sg3248
g3276
sg3254
(lp3788
g3
(g3273
g5
NtRp3789
(dp3790
g3258
Nsg3261
I01
sg3248
g3280
sg3254
(lp3791
g3251
asg3256
(lp3792
sbag3
(g3273
g5
NtRp3793
(dp3794
g3258
Nsg3261
I01
sg3248
g3285
sg3254
(lp3795
g3
(g3273
g5
NtRp3796
(dp3797
g3258
Nsg3261
I01
sg3248
g3289
sg3254
(lp3798
g3
(g3273
g5
NtRp3799
(dp3800
g3258
Nsg3261
I01
sg3248
g3293
sg3254
(lp3801
g3251
asg3256
(lp3802
sbag3360
asg3256
(lp3803
sbasg3256
(lp3804
sbag3335
asg3256
(lp3805
sbasg3364
(lp3806
g3
(g3273
g5
NtRp3807
(dp3808
g3258
Nsg3261
I01
sg3248
g3276
sg3254
(lp3809
g3
(g3273
g5
NtRp3810
(dp3811
g3258
Nsg3261
I01
sg3248
g3280
sg3254
(lp3812
g3251
asg3256
(lp3813
sbag3
(g3273
g5
NtRp3814
(dp3815
g3258
Nsg3261
I01
sg3248
g3285
sg3254
(lp3816
g3
(g3273
g5
NtRp3817
(dp3818
g3258
Nsg3261
I01
sg3248
g3289
sg3254
(lp3819
g3
(g3273
g5
NtRp3820
(dp3821
g3258
Nsg3261
I01
sg3248
g3293
sg3254
(lp3822
g3251
asg3256
(lp3823
sbag3364
asg3256
(lp3824
sbasg3256
(lp3825
sbag3335
asg3256
(lp3826
sbasg3597
(lp3827
g3
(g3273
g5
NtRp3828
(dp3829
g3258
Nsg3261
I01
sg3248
g3276
sg3254
(lp3830
g3
(g3273
g5
NtRp3831
(dp3832
g3258
Nsg3261
I01
sg3248
g3280
sg3254
(lp3833
g3251
asg3256
(lp3834
sbag3
(g3273
g5
NtRp3835
(dp3836
g3258
Nsg3261
I01
sg3248
g3285
sg3254
(lp3837
g3
(g3273
g5
NtRp3838
(dp3839
g3258
Nsg3261
I01
sg3248
g3289
sg3254
(lp3840
g3
(g3273
g5
NtRp3841
(dp3842
g3258
Nsg3261
I01
sg3248
g3293
sg3254
(lp3843
g3251
asg3256
(lp3844
sbag3597
asg3256
(lp3845
sbasg3256
(lp3846
sbag3298
asg3256
(lp3847
sbasg3439
(lp3848
g3
(g3273
g5
NtRp3849
(dp3850
g3258
Nsg3261
I01
sg3248
g3276
sg3254
(lp3851
g3
(g3273
g5
NtRp3852
(dp3853
g3258
Nsg3261
I01
sg3248
g3280
sg3254
(lp3854
g3251
asg3256
(lp3855
sbag3
(g3273
g5
NtRp3856
(dp3857
g3258
Nsg3261
I01
sg3248
g3285
sg3254
(lp3858
g3
(g3273
g5
NtRp3859
(dp3860
g3258
Nsg3261
I01
sg3248
g3289
sg3254
(lp3861
g3
(g3273
g5
NtRp3862
(dp3863
g3258
Nsg3261
I01
sg3248
g3293
sg3254
(lp3864
g3251
asg3256
(lp3865
sbag3439
asg3256
(lp3866
sbasg3256
(lp3867
sbag3472
asg3256
(lp3868
sbasg3590
(lp3869
g3619
assS'expr'
p3870
g3658
sS'idxs_memo'
p3871
(dp3872
g3268
g3278
sg3311
g3319
sg3344
g3338
sg3422
g3455
sg3435
g3494
sg3511
g3544
sg3356
g3335
sg3580
g3301
sg3432
g3472
sg3532
g3641
sg3658
g3304
sg3521
g3561
sg3524
g3705
sg3443
g3726
sg3528
g3747
sg3593
g3768
sg3360
g3789
sg3364
g3810
sg3597
g3831
sg3439
g3852
sg3590
g3298
ssS'dfs_nodes'
p3873
(lp3874
g3586
ag3593
ag3597
ag3268
ag3590
ag3583
ag3580
ag3517
ag3524
ag3528
ag3532
ag3521
ag3514
ag3511
ag3428
ag3435
ag3439
ag3443
ag3432
ag3425
ag3422
ag3352
ag3311
ag3360
ag3364
ag3356
ag3348
ag3344
ag3658
asS'params'
p3875
(dp3876
g23
g3521
sg25
g3432
sg27
g3590
sg29
g3356
ssS'v_expr'
p3877
g3668
sS'expr_idxs'
p3878
g3251
sbsg3870
g3658
sS'pass_expr_memo_ctrl'
p3879
I00
sg3369
g3375
sg41
Nsg3875
(dp3880
g23
g3521
sg25
g3432
sg27
g3590
sg29
g3356
ssS's_idxs_vals'
p3881
g3
(g3273
g5
NtRp3882
(dp3883
g3258
Nsg3261
I01
sg3248
g3254
sg3254
(lp3884
g3
(g3273
g5
NtRp3885
(dp3886
g3258
I4
sg3261
I00
sg3248
g3660
sg3254
(lp3887
sg3256
(lp3888
(lp3889
g27
ag3298
aa(lp3890
g23
ag3561
aa(lp3891
g25
ag3472
aa(lp3892
g29
ag3335
aasbag3
(g3273
g5
NtRp3893
(dp3894
g3258
I4
sg3261
I00
sg3248
g3660
sg3254
(lp3895
sg3256
(lp3896
(lp3897
g27
ag3622
aa(lp3898
g23
ag3565
aa(lp3899
g25
ag3476
aa(lp3900
g29
ag3403
aasbasg3256
(lp3901
sbsS'loss_target'
p3902
NsS'installed_rng'
p3903
I01
sS'fn'
p3904
cHPOlib.cv
main
p3905
sbs.