(dp1
S'cv_endtime'
p2
(lp3
F1472575184.077493
aF1472575308.4045551
aF1472575451.6763051
aF1472575570.2127399
aF1472575764.681637
aF1472575975.9182849
aF1472576110.7954979
aF1472576190.1238151
aF1472576278.638329
aF1472576374.964313
aF1472576480.265048
aF1472576583.0737171
aF1472576670.752538
aF1472576830.0969031
aF1472576895.018213
aF1472577048.6787851
aF1472577311.5393779
aF1472577422.6789651
aF1472577587.250113
aF1472577648.2698319
aF1472577767.7133839
aF1472577847.413018
aF1472578021.931586
aF1472578167.1908579
aF1472578237.4612689
aF1472578428.701174
aF1472579139.901598
aF1472579241.4039049
aF1472579314.2485809
aF1472579471.6038921
aF1472579535.980176
aF1472579776.178683
aF1472579837.0465331
aF1472580056.024184
aF1472580220.7385471
aF1472580422.7478149
aF1472580541.8774331
aF1472580607.8668699
aF1472580710.6558239
aF1472580807.5954511
aF1472580867.7126219
aF1472581001.593008
aF1472581141.7694631
aF1472581307.3752091
aF1472581416.5759909
aF1472581531.2394111
aF1472581647.5937231
aF1472581727.7939019
aF1472581807.5055971
aF1472581871.0846031
aF1472581933.976249
aF1472582040.7856951
aF1472582106.35021
aF1472582275.8411491
aF1472582418.983505
aF1472582483.267442
aF1472582581.16764
aF1472582681.365469
aF1472582834.50156
aF1472582935.2665529
aF1472583691.946708
aF1472583768.8811929
aF1472583831.05633
aF1472583907.79071
aF1472584032.2068069
aF1472584170.8578761
aF1472584262.9947679
aF1472584389.9642999
aF1472584508.8992741
aF1472584648.2510719
aF1472584803.7641661
aF1472584945.164398
aF1472585078.549262
aF1472585149.824393
aF1472585215.508507
aF1472585689.826776
aF1472585848.1643851
aF1472585972.4653411
aF1472586079.258374
aF1472586196.040401
aF1472586379.008971
aF1472586488.605711
aF1472586604.5316701
aF1472586728.824368
aF1472586911.1592741
aF1472586987.407372
aF1472587063.1746271
aF1472587129.9609051
aF1472587233.2704589
aF1472587302.993742
aF1472587373.4509201
aF1472587441.6016059
aF1472588245.837744
aF1472588312.7789099
aF1472588381.1959791
aF1472588520.9195261
aF1472588629.7028511
aF1472588897.993299
aF1472589136.382798
aF1472589280.5889821
aF1472589420.1862681
aF1472589488.269388
aF1472589569.064708
aF1472589670.328999
aF1472589804.0348091
aF1472590023.2592471
aF1472590260.608799
aF1472590405.169853
aF1472590509.9874401
aF1472590654.2640779
aF1472590792.620707
aF1472590963.086468
aF1472591118.1282361
aF1472591186.7874861
aF1472591338.1501491
aF1472591470.7871809
aF1472591635.107264
aF1472591813.642925
aF1472592009.4711969
aF1472592181.007055
aF1472592344.272845
aF1472592523.2200141
aF1472592594.159353
aF1472592747.659363
aF1472592909.0840509
aF1472593087.599184
aF1472593256.0542631
aF1472593438.2590511
aF1472593580.8232291
aF1472593743.8470681
aF1472593902.499368
aF1472594043.203887
aF1472594215.1953101
aF1472594340.626133
aF1472594531.8878839
aF1472594729.3693359
aF1472594937.316155
aF1472595085.599225
aF1472595273.3051291
aF1472595528.692584
aF1472595665.678196
aF1472595801.6673501
aF1472596035.0574329
aF1472596265.057934
aF1472596507.7431519
aF1472596595.5453291
aF1472596854.7816801
aF1472596989.910017
aF1472597073.835891
aF1472597206.8347421
aF1472597418.1554351
aF1472597629.4893589
aF1472597778.242486
aF1472598167.3885989
aF1472598540.1560941
aF1472598691.83022
aF1472598834.272213
aF1472598996.49368
aF1472599275.2069941
aF1472599633.871367
aF1472599736.668611
aF1472599877.5097129
aF1472600063.8643479
aF1472600192.689929
aF1472600291.452625
aF1472600570.5732529
aF1472600835.3365431
aF1472600936.709368
aF1472601143.062732
aF1472601464.073122
aF1472601598.76122
aF1472601800.9162569
aF1472602007.0531249
aF1472602321.1799769
aF1472602489.3292789
aF1472602679.21506
aF1472602836.0159931
aF1472602988.577543
aF1472603114.221633
aF1472603311.5077729
aF1472603660.4467571
aF1472603931.401279
aF1472604114.9308989
aF1472604283.3890359
aF1472604573.2687531
aF1472604688.4097691
aF1472604848.350322
aF1472605107.0083461
aF1472605252.509583
aF1472605407.5332689
aF1472605524.298346
aF1472605700.5336201
aF1472605872.9857099
aF1472606015.205884
aF1472606107.0538399
aF1472606277.0859859
aF1472606509.5033741
aF1472606670.702095
aF1472606887.2789741
aF1472607044.2430279
asS'folds'
p4
I1
sS'cv_starttime'
p5
(lp6
F1472574956.1065459
aF1472575186.9966631
aF1472575355.2402949
aF1472575497.392695
aF1472575613.712477
aF1472575810.1178041
aF1472576019.8139839
aF1472576155.407829
aF1472576234.2455709
aF1472576323.156682
aF1472576418.8707089
aF1472576524.8895531
aF1472576627.086241
aF1472576716.3331151
aF1472576875.707469
aF1472576941.5673821
aF1472577094.8366189
aF1472577358.347631
aF1472577467.9193029
aF1472577631.2112889
aF1472577693.8864019
aF1472577813.6871641
aF1472577892.727411
aF1472578066.2553101
aF1472578212.936101
aF1472578282.622756
aF1472578472.9013219
aF1472579185.358346
aF1472579288.429795
aF1472579358.6644671
aF1472579518.803767
aF1472579581.747781
aF1472579822.1195281
aF1472579882.7290759
aF1472580102.120326
aF1472580267.6998711
aF1472580469.0737081
aF1472580590.340328
aF1472580654.521384
aF1472580758.95365
aF1472580853.195245
aF1472580914.000334
aF1472581048.716675
aF1472581190.171103
aF1472581355.028028
aF1472581463.119101
aF1472581577.756999
aF1472581696.0992949
aF1472581774.047183
aF1472581855.3492119
aF1472581917.2430439
aF1472581982.025743
aF1472582087.038204
aF1472582155.2523551
aF1472582324.013485
aF1472582466.285094
aF1472582531.287672
aF1472582629.6478779
aF1472582728.3499441
aF1472582883.889133
aF1472582982.428647
aF1472583741.167305
aF1472583816.5016429
aF1472583878.579278
aF1472583957.3653159
aF1472584080.000407
aF1472584219.5603919
aF1472584311.789583
aF1472584437.7451119
aF1472584557.466718
aF1472584696.845968
aF1472584853.2792101
aF1472584992.891773
aF1472585125.9451561
aF1472585198.771965
aF1472585265.2425809
aF1472585737.818229
aF1472585898.022387
aF1472586021.2131331
aF1472586129.3583541
aF1472586250.042207
aF1472586431.6134191
aF1472586542.7630589
aF1472586655.726182
aF1472586779.0517321
aF1472586959.5026121
aF1472587035.9853261
aF1472587112.7431891
aF1472587182.7106349
aF1472587283.3034871
aF1472587353.66487
aF1472587423.9374421
aF1472587490.788151
aF1472588295.400533
aF1472588362.7447169
aF1472588430.0185039
aF1472588570.8073411
aF1472588678.3878911
aF1472588946.5644619
aF1472589191.813081
aF1472589330.7143109
aF1472589469.0142879
aF1472589539.76262
aF1472589620.7342939
aF1472589721.887259
aF1472589854.2310269
aF1472590075.6141081
aF1472590316.2395029
aF1472590459.364157
aF1472590565.4641111
aF1472590710.70701
aF1472590849.9153471
aF1472591019.051729
aF1472591173.776854
aF1472591242.816592
aF1472591392.8120301
aF1472591525.978853
aF1472591691.5964849
aF1472591868.895242
aF1472592067.0032749
aF1472592238.6104701
aF1472592402.3103869
aF1472592579.2646661
aF1472592651.3441341
aF1472592805.483062
aF1472592967.2913101
aF1472593146.806335
aF1472593312.5406051
aF1472593494.1120629
aF1472593639.112335
aF1472593801.7732029
aF1472593960.644052
aF1472594100.056036
aF1472594273.024224
aF1472594399.1390741
aF1472594588.0263519
aF1472594787.642741
aF1472594997.6254809
aF1472595145.885185
aF1472595334.4615171
aF1472595589.6335931
aF1472595727.15995
aF1472595861.596616
aF1472596100.7328639
aF1472596334.375679
aF1472596578.9363911
aF1472596667.1328399
aF1472596924.8212531
aF1472597058.0743899
aF1472597141.8187301
aF1472597276.7184169
aF1472597489.454046
aF1472597704.5984371
aF1472597851.2008641
aF1472598238.6003709
aF1472598610.8576989
aF1472598756.098352
aF1472598899.6915741
aF1472599062.4469421
aF1472599341.1945021
aF1472599700.9528289
aF1472599801.7706449
aF1472599940.708046
aF1472600127.7043509
aF1472600258.977581
aF1472600357.8004501
aF1472600636.644377
aF1472600903.957134
aF1472601003.994333
aF1472601212.0869131
aF1472601537.2753561
aF1472601671.9190531
aF1472601871.8254371
aF1472602077.3302779
aF1472602394.4163711
aF1472602560.841373
aF1472602752.1833191
aF1472602909.214642
aF1472603063.0166321
aF1472603186.980232
aF1472603386.8878241
aF1472603736.8849051
aF1472604004.5611219
aF1472604192.6139979
aF1472604358.039242
aF1472604648.9996531
aF1472604764.9582961
aF1472604926.022579
aF1472605182.9544821
aF1472605330.7792301
aF1472605484.9118481
aF1472605605.1025431
aF1472605776.26004
aF1472605950.2180259
aF1472606091.016504
aF1472606189.17575
aF1472606357.3628581
aF1472606583.869612
aF1472606749.6460049
aF1472606966.1549881
asS'endtime'
p7
(lp8
F1472607047.1894879
asS'optimizer'
p9
S'/root/tf-hpolib/HPOlib/optimizers/spearmint/spearmint_april2013_mod'
p10
sS'optimizer_time'
p11
(lp12
F1.6741180419921875
aF2.9191701412200928
aF46.835739850997925
aF45.716389894485474
aF43.499737024307251
aF45.436167001724243
aF43.895699024200439
aF44.61233115196228
aF44.121755838394165
aF44.51835298538208
aF43.90639591217041
aF44.624505043029785
aF44.012523889541626
aF45.58057713508606
aF45.610565900802612
aF46.549169063568115
aF46.157833814620972
aF46.808253049850464
aF45.24033784866333
aF43.961175918579102
aF45.616569995880127
aF45.973780155181885
aF45.314393043518066
aF44.323724031448364
aF45.745243072509766
aF45.161487102508545
aF44.200147867202759
aF45.456748008728027
aF47.025890111923218
aF44.415886163711548
aF47.199874877929688
aF45.767605066299438
aF45.940845012664795
aF45.68254280090332
aF46.096142053604126
aF46.961323976516724
aF46.32589316368103
aF48.462894916534424
aF46.654514074325562
aF48.297826051712036
aF45.599793910980225
aF46.287712097167969
aF47.123667001724243
aF48.401639938354492
aF47.652818918228149
aF46.543110132217407
aF46.517587900161743
aF48.505571842193604
aF46.253281116485596
aF47.843614816665649
aF46.158440828323364
aF48.049494028091431
aF46.252508878707886
aF48.902145147323608
aF48.172335863113403
aF47.301589012145996
aF48.020230054855347
aF48.48023796081543
aF46.984475135803223
aF49.387573003768921
aF47.162094116210938
aF49.2205970287323
aF47.620450019836426
aF47.522948026657104
aF49.574605941772461
aF47.793600082397461
aF48.702515840530396
aF48.794815063476562
aF47.78081202507019
aF48.56744384765625
aF48.594896078109741
aF49.515043973922729
aF47.727375030517578
aF47.395894050598145
aF48.947571992874146
aF49.734073877334595
aF47.991452932357788
aF49.858001947402954
aF48.74779200553894
aF50.099980115890503
aF54.001806020736694
aF52.604448080062866
aF54.157347917556763
aF51.194511890411377
aF50.227364063262939
aF48.343338012695312
aF48.577954053878784
aF49.568562030792236
aF52.749729871749878
aF50.033028125762939
aF50.671128034591675
aF50.48652195930481
aF49.186545133590698
aF49.562788963317871
aF49.96580696105957
aF48.822524785995483
aF49.887814998626709
aF48.68503999710083
aF48.571162939071655
aF55.430283069610596
aF50.125328779220581
aF48.828019857406616
aF51.493232011795044
aF51.669585943222046
aF51.558259963989258
aF50.196217775344849
aF52.35486102104187
aF55.630703926086426
aF54.1943039894104
aF55.476670980453491
aF56.44293212890625
aF57.294640064239502
aF55.965260982513428
aF55.64861798286438
aF56.02910590171814
aF54.661880970001221
aF55.191672086715698
aF56.489220857620239
aF55.252316951751709
aF57.53207802772522
aF57.603415012359619
aF58.03754186630249
aF56.044651985168457
aF57.184781074523926
aF57.823698997497559
aF58.207259178161621
aF59.207150936126709
aF56.486341953277588
aF55.853011846542358
aF58.289105892181396
aF57.926134824752808
aF58.144684076309204
aF56.85214900970459
aF57.828913927078247
aF58.512941122055054
aF56.138468027114868
aF58.273405075073242
aF60.309325933456421
aF60.285959959030151
aF61.1563880443573
aF60.941009044647217
aF61.481754064559937
aF59.929265975952148
aF65.6754310131073
aF69.317744970321655
aF71.193239212036133
aF71.587510824203491
aF70.039572954177856
aF68.16437292098999
aF67.982839107513428
aF69.88367486000061
aF71.298610925674438
aF75.109078168869019
aF72.958378076553345
aF71.211771965026855
aF70.701604843139648
aF64.268131971359253
aF65.419361114501953
aF65.953262090682983
aF65.987508058547974
aF67.081461906433105
aF65.102033853530884
aF63.198333024978638
aF63.84000301361084
aF66.287652015686035
aF66.347825050354004
aF66.071124076843262
aF68.620590925216675
aF67.284965038299561
aF69.024181127548218
aF73.202234029769897
aF73.157833099365234
aF70.909180164337158
aF70.277153015136719
aF73.236394166946411
aF71.512094020843506
aF72.96825909614563
aF73.198648929595947
aF74.439089059829712
aF72.758599042892456
aF75.380051136016846
aF76.438148021697998
aF73.159842967987061
aF77.683099031448364
aF74.650206089019775
aF75.730900049209595
aF76.548527002334595
aF77.672256946563721
aF75.946135997772217
aF78.269647121429443
aF77.378579139709473
aF80.804197072982788
aF75.726419925689697
aF77.232316017150879
aF75.810620069503784
aF82.121910095214844
aF80.276872158050537
aF74.366237878799438
aF78.943909883499146
aF78.876013994216919
aF2.9464600086212158
asS'instance_order'
p13
(lp14
(I0
I0
tp15
a(I1
I0
tp16
a(I2
I0
tp17
a(I3
I0
tp18
a(I4
I0
tp19
a(I5
I0
tp20
a(I6
I0
tp21
a(I7
I0
tp22
a(I8
I0
tp23
a(I9
I0
tp24
a(I10
I0
tp25
a(I11
I0
tp26
a(I12
I0
tp27
a(I13
I0
tp28
a(I14
I0
tp29
a(I15
I0
tp30
a(I16
I0
tp31
a(I17
I0
tp32
a(I18
I0
tp33
a(I19
I0
tp34
a(I20
I0
tp35
a(I21
I0
tp36
a(I22
I0
tp37
a(I23
I0
tp38
a(I24
I0
tp39
a(I25
I0
tp40
a(I26
I0
tp41
a(I27
I0
tp42
a(I28
I0
tp43
a(I29
I0
tp44
a(I30
I0
tp45
a(I31
I0
tp46
a(I32
I0
tp47
a(I33
I0
tp48
a(I34
I0
tp49
a(I35
I0
tp50
a(I36
I0
tp51
a(I37
I0
tp52
a(I38
I0
tp53
a(I39
I0
tp54
a(I40
I0
tp55
a(I41
I0
tp56
a(I42
I0
tp57
a(I43
I0
tp58
a(I44
I0
tp59
a(I45
I0
tp60
a(I46
I0
tp61
a(I47
I0
tp62
a(I48
I0
tp63
a(I49
I0
tp64
a(I50
I0
tp65
a(I51
I0
tp66
a(I52
I0
tp67
a(I53
I0
tp68
a(I54
I0
tp69
a(I55
I0
tp70
a(I56
I0
tp71
a(I57
I0
tp72
a(I58
I0
tp73
a(I59
I0
tp74
a(I60
I0
tp75
a(I61
I0
tp76
a(I62
I0
tp77
a(I63
I0
tp78
a(I64
I0
tp79
a(I65
I0
tp80
a(I66
I0
tp81
a(I67
I0
tp82
a(I68
I0
tp83
a(I69
I0
tp84
a(I70
I0
tp85
a(I71
I0
tp86
a(I72
I0
tp87
a(I73
I0
tp88
a(I74
I0
tp89
a(I75
I0
tp90
a(I76
I0
tp91
a(I77
I0
tp92
a(I78
I0
tp93
a(I79
I0
tp94
a(I80
I0
tp95
a(I81
I0
tp96
a(I82
I0
tp97
a(I83
I0
tp98
a(I84
I0
tp99
a(I85
I0
tp100
a(I86
I0
tp101
a(I87
I0
tp102
a(I88
I0
tp103
a(I89
I0
tp104
a(I90
I0
tp105
a(I91
I0
tp106
a(I92
I0
tp107
a(I93
I0
tp108
a(I94
I0
tp109
a(I95
I0
tp110
a(I96
I0
tp111
a(I97
I0
tp112
a(I98
I0
tp113
a(I99
I0
tp114
a(I100
I0
tp115
a(I101
I0
tp116
a(I102
I0
tp117
a(I103
I0
tp118
a(I104
I0
tp119
a(I105
I0
tp120
a(I106
I0
tp121
a(I107
I0
tp122
a(I108
I0
tp123
a(I109
I0
tp124
a(I110
I0
tp125
a(I111
I0
tp126
a(I112
I0
tp127
a(I113
I0
tp128
a(I114
I0
tp129
a(I115
I0
tp130
a(I116
I0
tp131
a(I117
I0
tp132
a(I118
I0
tp133
a(I119
I0
tp134
a(I120
I0
tp135
a(I121
I0
tp136
a(I122
I0
tp137
a(I123
I0
tp138
a(I124
I0
tp139
a(I125
I0
tp140
a(I126
I0
tp141
a(I127
I0
tp142
a(I128
I0
tp143
a(I129
I0
tp144
a(I130
I0
tp145
a(I131
I0
tp146
a(I132
I0
tp147
a(I133
I0
tp148
a(I134
I0
tp149
a(I135
I0
tp150
a(I136
I0
tp151
a(I137
I0
tp152
a(I138
I0
tp153
a(I139
I0
tp154
a(I140
I0
tp155
a(I141
I0
tp156
a(I142
I0
tp157
a(I143
I0
tp158
a(I144
I0
tp159
a(I145
I0
tp160
a(I146
I0
tp161
a(I147
I0
tp162
a(I148
I0
tp163
a(I149
I0
tp164
a(I150
I0
tp165
a(I151
I0
tp166
a(I152
I0
tp167
a(I153
I0
tp168
a(I154
I0
tp169
a(I155
I0
tp170
a(I156
I0
tp171
a(I157
I0
tp172
a(I158
I0
tp173
a(I159
I0
tp174
a(I160
I0
tp175
a(I161
I0
tp176
a(I162
I0
tp177
a(I163
I0
tp178
a(I164
I0
tp179
a(I165
I0
tp180
a(I166
I0
tp181
a(I167
I0
tp182
a(I168
I0
tp183
a(I169
I0
tp184
a(I170
I0
tp185
a(I171
I0
tp186
a(I172
I0
tp187
a(I173
I0
tp188
a(I174
I0
tp189
a(I175
I0
tp190
a(I176
I0
tp191
a(I177
I0
tp192
a(I178
I0
tp193
a(I179
I0
tp194
a(I180
I0
tp195
a(I181
I0
tp196
a(I182
I0
tp197
a(I183
I0
tp198
a(I184
I0
tp199
a(I185
I0
tp200
a(I186
I0
tp201
a(I187
I0
tp202
a(I188
I0
tp203
a(I189
I0
tp204
a(I190
I0
tp205
a(I191
I0
tp206
a(I192
I0
tp207
a(I193
I0
tp208
a(I194
I0
tp209
a(I195
I0
tp210
a(I196
I0
tp211
a(I197
I0
tp212
a(I198
I0
tp213
a(I199
I0
tp214
asS'max_wallclock_time'
p215
S''
sS'title'
p216
NsS'trials'
p217
(lp218
(dp219
S'status'
p220
I3
sS'std'
p221
cnumpy.core.multiarray
scalar
p222
(cnumpy
dtype
p223
(S'f8'
I0
I1
tRp224
(I3
S'<'
NNNI-1
I-1
I0
tbS'\x00\x00\x00\x00\x00\x00\x00\x00'
tRp225
sS'instance_durations'
p226
cnumpy.core.multiarray
_reconstruct
p227
(cnumpy
ndarray
p228
(I0
tS'b'
tRp229
(I1
(I1
tg223
(S'f8'
I0
I1
tRp230
(I3
S'<'
NNNI-1
I-1
I0
tbI00
S'\xb4\xc8v\xbe\x9fvl@'
tbsS'instance_results'
p231
g227
(g228
(I0
tS'b'
tRp232
(I1
(I1
tg230
I00
S'\xaeG\xe1z\x14nV@'
tbsS'instance_status'
p233
g227
(g228
(I0
tS'b'
tRp234
(I1
(I1
tg223
(S'i8'
I0
I1
tRp235
(I3
S'<'
NNNI-1
I-1
I0
tbI00
S'\x03\x00\x00\x00\x00\x00\x00\x00'
tbsS'params'
p236
ccollections
OrderedDict
p237
((lp238
(lp239
S'-conv1_depth'
p240
aS'176'
p241
aa(lp242
S'-conv2_depth'
p243
aS'368'
p244
aa(lp245
S'-fc_depth'
p246
aS'16'
p247
aa(lp248
S'-filter_size'
p249
aS'11'
p250
aatRp251
sS'result'
p252
g222
(g224
S'\xaeG\xe1z\x14nV@'
tRp253
sS'duration'
p254
g222
(g224
S'\xb4\xc8v\xbe\x9fvl@'
tRp255
sS'test_error'
p256
Fnan
sa(dp257
S'status'
p258
I3
sS'std'
p259
g222
(g224
S'\x00\x00\x00\x00\x00\x00\x00\x00'
tRp260
sS'instance_durations'
p261
g227
(g228
(I0
tS'b'
tRp262
(I1
(I1
tg223
(S'f8'
I0
I1
tRp263
(I3
S'<'
NNNI-1
I-1
I0
tbI00
S'\xb6\xf3\xfd\xd4xI^@'
tbsS'instance_results'
p264
g227
(g228
(I0
tS'b'
tRp265
(I1
(I1
tg263
I00
S'R\xb8\x1e\x85\xebQ\xf4?'
tbsS'instance_status'
p266
g227
(g228
(I0
tS'b'
tRp267
(I1
(I1
tg223
(S'i8'
I0
I1
tRp268
(I3
S'<'
NNNI-1
I-1
I0
tbI00
S'\x03\x00\x00\x00\x00\x00\x00\x00'
tbsS'params'
p269
g237
((lp270
(lp271
S'-conv1_depth'
p272
aS'432'
p273
aa(lp274
S'-conv2_depth'
p275
aS'112'
p276
aa(lp277
S'-fc_depth'
p278
aS'272'
p279
aa(lp280
S'-filter_size'
p281
aS'4'
aatRp282
sS'result'
p283
g222
(g224
S'R\xb8\x1e\x85\xebQ\xf4?'
tRp284
sS'duration'
p285
g222
(g224
S'\xb6\xf3\xfd\xd4xI^@'
tRp286
sS'test_error'
p287
Fnan
sa(dp288
S'status'
p289
I3
sS'std'
p290
g222
(g224
S'\x00\x00\x00\x00\x00\x00\x00\x00'
tRp291
sS'instance_durations'
p292
g227
(g228
(I0
tS'b'
tRp293
(I1
(I1
tg223
(S'f8'
I0
I1
tRp294
(I3
S'<'
NNNI-1
I-1
I0
tbI00
S'\x13\xf2A\xcff\tX@'
tbsS'instance_results'
p295
g227
(g228
(I0
tS'b'
tRp296
(I1
(I1
tg294
I00
S'\xcd\xcc\xcc\xcc\xcc\xcc\xf4?'
tbsS'instance_status'
p297
g227
(g228
(I0
tS'b'
tRp298
(I1
(I1
tg223
(S'i8'
I0
I1
tRp299
(I3
S'<'
NNNI-1
I-1
I0
tbI00
S'\x03\x00\x00\x00\x00\x00\x00\x00'
tbsS'params'
p300
g237
((lp301
(lp302
S'-conv1_depth'
p303
aS'444'
p304
aa(lp305
S'-conv2_depth'
p306
aS'80'
p307
aa(lp308
S'-fc_depth'
p309
aS'232'
p310
aa(lp311
S'-filter_size'
p312
aS'3'
aatRp313
sS'result'
p314
g222
(g224
S'\xcd\xcc\xcc\xcc\xcc\xcc\xf4?'
tRp315
sS'duration'
p316
g222
(g224
S'\x13\xf2A\xcff\tX@'
tRp317
sS'test_error'
p318
Fnan
sa(dp319
S'status'
p320
I3
sS'std'
p321
g222
(g224
S'\x00\x00\x00\x00\x00\x00\x00\x00'
tRp322
sS'instance_durations'
p323
g227
(g228
(I0
tS'b'
tRp324
(I1
(I1
tg223
(S'f8'
I0
I1
tRp325
(I3
S'<'
NNNI-1
I-1
I0
tbI00
S'D\xfa\xed\xeb\xc0%R@'
tbsS'instance_results'
p326
g227
(g228
(I0
tS'b'
tRp327
(I1
(I1
tg325
I00
S'\xaeG\xe1z\x14nV@'
tbsS'instance_status'
p328
g227
(g228
(I0
tS'b'
tRp329
(I1
(I1
tg223
(S'i8'
I0
I1
tRp330
(I3
S'<'
NNNI-1
I-1
I0
tbI00
S'\x03\x00\x00\x00\x00\x00\x00\x00'
tbsS'params'
p331
g237
((lp332
(lp333
S'-conv1_depth'
p334
aS'512'
p335
aa(lp336
S'-conv2_depth'
p337
aS'2'
aa(lp338
S'-fc_depth'
p339
aS'510'
p340
aa(lp341
S'-filter_size'
p342
aS'1'
aatRp343
sS'result'
p344
g222
(g224
S'\xaeG\xe1z\x14nV@'
tRp345
sS'duration'
p346
g222
(g224
S'D\xfa\xed\xeb\xc0%R@'
tRp347
sS'test_error'
p348
Fnan
sa(dp349
S'status'
p350
I3
sS'std'
p351
g222
(g224
S'\x00\x00\x00\x00\x00\x00\x00\x00'
tRp352
sS'instance_durations'
p353
g227
(g228
(I0
tS'b'
tRp354
(I1
(I1
tg223
(S'f8'
I0
I1
tRp355
(I3
S'<'
NNNI-1
I-1
I0
tbI00
S'^\xbaI\x0c\x02\xd7b@'
tbsS'instance_results'
p356
g227
(g228
(I0
tS'b'
tRp357
(I1
(I1
tg355
I00
S'\x8f\xc2\xf5(\\\x8f\xfe?'
tbsS'instance_status'
p358
g227
(g228
(I0
tS'b'
tRp359
(I1
(I1
tg223
(S'i8'
I0
I1
tRp360
(I3
S'<'
NNNI-1
I-1
I0
tbI00
S'\x03\x00\x00\x00\x00\x00\x00\x00'
tbsS'params'
p361
g237
((lp362
(lp363
S'-conv1_depth'
p364
aS'415'
p365
aa(lp366
S'-conv2_depth'
p367
aS'512'
p368
aa(lp369
S'-fc_depth'
p370
aS'509'
p371
aa(lp372
S'-filter_size'
p373
aS'2'
aatRp374
sS'result'
p375
g222
(g224
S'\x8f\xc2\xf5(\\\x8f\xfe?'
tRp376
sS'duration'
p377
g222
(g224
S'^\xbaI\x0c\x02\xd7b@'
tRp378
sS'test_error'
p379
Fnan
sa(dp380
S'status'
p381
I3
sS'std'
p382
g222
(g224
S'\x00\x00\x00\x00\x00\x00\x00\x00'
tRp383
sS'instance_durations'
p384
g227
(g228
(I0
tS'b'
tRp385
(I1
(I1
tg223
(S'f8'
I0
I1
tRp386
(I3
S'<'
NNNI-1
I-1
I0
tbI00
S'b\x10X9\xb4\xb0d@'
tbsS'instance_results'
p387
g227
(g228
(I0
tS'b'
tRp388
(I1
(I1
tg386
I00
S'\xaeG\xe1z\x14nV@'
tbsS'test_error'
p389
Fnan
sS'params'
p390
g237
((lp391
(lp392
S'-conv1_depth'
p393
aS'501'
p394
aa(lp395
S'-conv2_depth'
p396
aS'46'
p397
aa(lp398
S'-fc_depth'
p399
aS'490'
p400
aa(lp401
S'-filter_size'
p402
aS'14'
p403
aatRp404
sS'result'
p405
g222
(g224
S'\xaeG\xe1z\x14nV@'
tRp406
sS'duration'
p407
g222
(g224
S'b\x10X9\xb4\xb0d@'
tRp408
sS'instance_status'
p409
g227
(g228
(I0
tS'b'
tRp410
(I1
(I1
tg223
(S'i8'
I0
I1
tRp411
(I3
S'<'
NNNI-1
I-1
I0
tbI00
S'\x03\x00\x00\x00\x00\x00\x00\x00'
tbsa(dp412
S'status'
p413
I3
sS'std'
p414
g222
(g224
S'\x00\x00\x00\x00\x00\x00\x00\x00'
tRp415
sS'instance_durations'
p416
g227
(g228
(I0
tS'b'
tRp417
(I1
(I1
tg223
(S'f8'
I0
I1
tRp418
(I3
S'<'
NNNI-1
I-1
I0
tbI00
S'\xa9\x13\xd0D\xd8\xacV@'
tbsS'instance_results'
p419
g227
(g228
(I0
tS'b'
tRp420
(I1
(I1
tg418
I00
S'\x1f\x85\xebQ\xb8\x1e\xfd?'
tbsS'instance_status'
p421
g227
(g228
(I0
tS'b'
tRp422
(I1
(I1
tg223
(S'i8'
I0
I1
tRp423
(I3
S'<'
NNNI-1
I-1
I0
tbI00
S'\x03\x00\x00\x00\x00\x00\x00\x00'
tbsS'params'
p424
g237
((lp425
(lp426
S'-conv1_depth'
p427
aS'419'
p428
aa(lp429
S'-conv2_depth'
p430
aS'120'
p431
aa(lp432
S'-fc_depth'
p433
aS'198'
p434
aa(lp435
S'-filter_size'
p436
aS'2'
aatRp437
sS'result'
p438
g222
(g224
S'\x1f\x85\xebQ\xb8\x1e\xfd?'
tRp439
sS'duration'
p440
g222
(g224
S'\xa9\x13\xd0D\xd8\xacV@'
tRp441
sS'test_error'
p442
Fnan
sa(dp443
S'status'
p444
I3
sS'std'
p445
g222
(g224
S'\x00\x00\x00\x00\x00\x00\x00\x00'
tRp446
sS'instance_durations'
p447
g227
(g228
(I0
tS'b'
tRp448
(I1
(I1
tg223
(S'f8'
I0
I1
tRp449
(I3
S'<'
NNNI-1
I-1
I0
tbI00
S'\xd74\xef8E?A@'
tbsS'instance_results'
p450
g227
(g228
(I0
tS'b'
tRp451
(I1
(I1
tg449
I00
S'H\xe1z\x14\xaeG\x05@'
tbsS'test_error'
p452
Fnan
sS'params'
p453
g237
((lp454
(lp455
S'-conv1_depth'
p456
aS'3'
aa(lp457
S'-conv2_depth'
p458
aS'510'
p459
aa(lp460
S'-fc_depth'
p461
aS'61'
p462
aa(lp463
S'-filter_size'
p464
aS'3'
aatRp465
sS'result'
p466
g222
(g224
S'H\xe1z\x14\xaeG\x05@'
tRp467
sS'duration'
p468
g222
(g224
S'\xd74\xef8E?A@'
tRp469
sS'instance_status'
p470
g227
(g228
(I0
tS'b'
tRp471
(I1
(I1
tg223
(S'i8'
I0
I1
tRp472
(I3
S'<'
NNNI-1
I-1
I0
tbI00
S'\x03\x00\x00\x00\x00\x00\x00\x00'
tbsa(dp473
S'status'
p474
I3
sS'std'
p475
g222
(g224
S'\x00\x00\x00\x00\x00\x00\x00\x00'
tRp476
sS'instance_durations'
p477
g227
(g228
(I0
tS'b'
tRp478
(I1
(I1
tg223
(S'f8'
I0
I1
tRp479
(I3
S'<'
NNNI-1
I-1
I0
tbI00
S'\xe3\xc7\x98\xbb\x96\x10F@'
tbsS'instance_results'
p480
g227
(g228
(I0
tS'b'
tRp481
(I1
(I1
tg479
I00
S'\xaeG\xe1z\x14nV@'
tbsS'test_error'
p482
Fnan
sS'params'
p483
g237
((lp484
(lp485
S'-conv1_depth'
p486
aS'38'
p487
aa(lp488
S'-conv2_depth'
p489
aS'484'
p490
aa(lp491
S'-fc_depth'
p492
aS'1'
aa(lp493
S'-filter_size'
p494
aS'3'
aatRp495
sS'result'
p496
g222
(g224
S'\xaeG\xe1z\x14nV@'
tRp497
sS'duration'
p498
g222
(g224
S'\xe3\xc7\x98\xbb\x96\x10F@'
tRp499
sS'instance_status'
p500
g227
(g228
(I0
tS'b'
tRp501
(I1
(I1
tg223
(S'i8'
I0
I1
tRp502
(I3
S'<'
NNNI-1
I-1
I0
tbI00
S'\x03\x00\x00\x00\x00\x00\x00\x00'
tbsa(dp503
S'status'
p504
I3
sS'std'
p505
g222
(g224
S'\x00\x00\x00\x00\x00\x00\x00\x00'
tRp506
sS'instance_durations'
p507
g227
(g228
(I0
tS'b'
tRp508
(I1
(I1
tg223
(S'f8'
I0
I1
tRp509
(I3
S'<'
NNNI-1
I-1
I0
tbI00
S'\xebs\xb5\x15\xfb\xcbI@'
tbsS'instance_results'
p510
g227
(g228
(I0
tS'b'
tRp511
(I1
(I1
tg509
I00
S'\xecQ\xb8\x1e\x85\xeb\xf5?'
tbsS'instance_status'
p512
g227
(g228
(I0
tS'b'
tRp513
(I1
(I1
tg223
(S'i8'
I0
I1
tRp514
(I3
S'<'
NNNI-1
I-1
I0
tbI00
S'\x03\x00\x00\x00\x00\x00\x00\x00'
tbsS'params'
p515
g237
((lp516
(lp517
S'-conv1_depth'
p518
aS'54'
p519
aa(lp520
S'-conv2_depth'
p521
aS'176'
p522
aa(lp523
S'-fc_depth'
p524
aS'510'
p525
aa(lp526
S'-filter_size'
p527
aS'6'
aatRp528
sS'result'
p529
g222
(g224
S'\xecQ\xb8\x1e\x85\xeb\xf5?'
tRp530
sS'duration'
p531
g222
(g224
S'\xebs\xb5\x15\xfb\xcbI@'
tRp532
sS'test_error'
p533
Fnan
sa(dp534
S'status'
p535
I3
sS'std'
p536
g222
(g224
S'\x00\x00\x00\x00\x00\x00\x00\x00'
tRp537
sS'instance_durations'
p538
g227
(g228
(I0
tS'b'
tRp539
(I1
(I1
tg223
(S'f8'
I0
I1
tRp540
(I3
S'<'
NNNI-1
I-1
I0
tbI00
S'\xc3\xf5(\\\x8f\x92N@'
tbsS'instance_results'
p541
g227
(g228
(I0
tS'b'
tRp542
(I1
(I1
tg540
I00
S'\xb8\x1e\x85\xebQ\xb8(@'
tbsS'instance_status'
p543
g227
(g228
(I0
tS'b'
tRp544
(I1
(I1
tg223
(S'i8'
I0
I1
tRp545
(I3
S'<'
NNNI-1
I-1
I0
tbI00
S'\x03\x00\x00\x00\x00\x00\x00\x00'
tbsS'params'
p546
g237
((lp547
(lp548
S'-conv1_depth'
p549
aS'7'
aa(lp550
S'-conv2_depth'
p551
aS'482'
p552
aa(lp553
S'-fc_depth'
p554
aS'512'
p555
aa(lp556
S'-filter_size'
p557
aS'1'
aatRp558
sS'result'
p559
g222
(g224
S'\xb8\x1e\x85\xebQ\xb8(@'
tRp560
sS'duration'
p561
g222
(g224
S'\xc3\xf5(\\\x8f\x92N@'
tRp562
sS'test_error'
p563
Fnan
sa(dp564
S'status'
p565
I3
sS'std'
p566
g222
(g224
S'\x00\x00\x00\x00\x00\x00\x00\x00'
tRp567
sS'instance_durations'
p568
g227
(g228
(I0
tS'b'
tRp569
(I1
(I1
tg223
(S'f8'
I0
I1
tRp570
(I3
S'<'
NNNI-1
I-1
I0
tbI00
S'\xa0\x1a/\xdd$\xf6L@'
tbsS'instance_results'
p571
g227
(g228
(I0
tS'b'
tRp572
(I1
(I1
tg570
I00
S'\xaeG\xe1z\x14nV@'
tbsS'instance_status'
p573
g227
(g228
(I0
tS'b'
tRp574
(I1
(I1
tg223
(S'i8'
I0
I1
tRp575
(I3
S'<'
NNNI-1
I-1
I0
tbI00
S'\x03\x00\x00\x00\x00\x00\x00\x00'
tbsS'params'
p576
g237
((lp577
(lp578
S'-conv1_depth'
p579
aS'7'
aa(lp580
S'-conv2_depth'
p581
aS'499'
p582
aa(lp583
S'-fc_depth'
p584
aS'29'
p585
aa(lp586
S'-filter_size'
p587
aS'14'
p588
aatRp589
sS'result'
p590
g222
(g224
S'\xaeG\xe1z\x14nV@'
tRp591
sS'duration'
p592
g222
(g224
S'\xa0\x1a/\xdd$\xf6L@'
tRp593
sS'test_error'
p594
Fnan
sa(dp595
S'status'
p596
I3
sS'std'
p597
g222
(g224
S'\x00\x00\x00\x00\x00\x00\x00\x00'
tRp598
sS'instance_durations'
p599
g227
(g228
(I0
tS'b'
tRp600
(I1
(I1
tg223
(S'f8'
I0
I1
tRp601
(I3
S'<'
NNNI-1
I-1
I0
tbI00
S'\x01M\x84\rO\xbfE@'
tbsS'instance_results'
p602
g227
(g228
(I0
tS'b'
tRp603
(I1
(I1
tg601
I00
S'\x8f\xc2\xf5(\\\x0f#@'
tbsS'test_error'
p604
Fnan
sS'params'
p605
g237
((lp606
(lp607
S'-conv1_depth'
p608
aS'9'
aa(lp609
S'-conv2_depth'
p610
aS'314'
p611
aa(lp612
S'-fc_depth'
p613
aS'486'
p614
aa(lp615
S'-filter_size'
p616
aS'1'
aatRp617
sS'result'
p618
g222
(g224
S'\x8f\xc2\xf5(\\\x0f#@'
tRp619
sS'duration'
p620
g222
(g224
S'\x01M\x84\rO\xbfE@'
tRp621
sS'instance_status'
p622
g227
(g228
(I0
tS'b'
tRp623
(I1
(I1
tg223
(S'i8'
I0
I1
tRp624
(I3
S'<'
NNNI-1
I-1
I0
tbI00
S'\x03\x00\x00\x00\x00\x00\x00\x00'
tbsa(dp625
S'status'
p626
I3
sS'std'
p627
g222
(g224
S'\x00\x00\x00\x00\x00\x00\x00\x00'
tRp628
sS'instance_durations'
p629
g227
(g228
(I0
tS'b'
tRp630
(I1
(I1
tg223
(S'f8'
I0
I1
tRp631
(I3
S'<'
NNNI-1
I-1
I0
tbI00
S'm\xe7\xfb\xa9\xf1b\\@'
tbsS'instance_results'
p632
g227
(g228
(I0
tS'b'
tRp633
(I1
(I1
tg631
I00
S'\x1f\x85\xebQ\xb8\x9e @'
tbsS'instance_status'
p634
g227
(g228
(I0
tS'b'
tRp635
(I1
(I1
tg223
(S'i8'
I0
I1
tRp636
(I3
S'<'
NNNI-1
I-1
I0
tbI00
S'\x03\x00\x00\x00\x00\x00\x00\x00'
tbsS'params'
p637
g237
((lp638
(lp639
S'-conv1_depth'
p640
aS'512'
p641
aa(lp642
S'-conv2_depth'
p643
aS'504'
p644
aa(lp645
S'-fc_depth'
p646
aS'167'
p647
aa(lp648
S'-filter_size'
p649
aS'1'
aatRp650
sS'result'
p651
g222
(g224
S'\x1f\x85\xebQ\xb8\x9e @'
tRp652
sS'duration'
p653
g222
(g224
S'm\xe7\xfb\xa9\xf1b\\@'
tRp654
sS'test_error'
p655
Fnan
sa(dp656
S'status'
p657
I3
sS'std'
p658
g222
(g224
S'\x00\x00\x00\x00\x00\x00\x00\x00'
tRp659
sS'instance_durations'
p660
g227
(g228
(I0
tS'b'
tRp661
(I1
(I1
tg223
(S'f8'
I0
I1
tRp662
(I3
S'<'
NNNI-1
I-1
I0
tbI00
S'\xdb\xf9~j\xbc\x043@'
tbsS'instance_results'
p663
g227
(g228
(I0
tS'b'
tRp664
(I1
(I1
tg662
I00
S"\x00\x00\x00\x00\x00\x80'@"
tbsS'test_error'
p665
Fnan
sS'params'
p666
g237
((lp667
(lp668
S'-conv1_depth'
p669
aS'1'
aa(lp670
S'-conv2_depth'
p671
aS'185'
p672
aa(lp673
S'-fc_depth'
p674
aS'129'
p675
aa(lp676
S'-filter_size'
p677
aS'1'
aatRp678
sS'result'
p679
g222
(g224
S"\x00\x00\x00\x00\x00\x80'@"
tRp680
sS'duration'
p681
g222
(g224
S'\xdb\xf9~j\xbc\x043@'
tRp682
sS'instance_status'
p683
g227
(g228
(I0
tS'b'
tRp684
(I1
(I1
tg223
(S'i8'
I0
I1
tRp685
(I3
S'<'
NNNI-1
I-1
I0
tbI00
S'\x03\x00\x00\x00\x00\x00\x00\x00'
tbsa(dp686
S'status'
p687
I3
sS'std'
p688
g222
(g224
S'\x00\x00\x00\x00\x00\x00\x00\x00'
tRp689
sS'instance_durations'
p690
g227
(g228
(I0
tS'b'
tRp691
(I1
(I1
tg223
(S'f8'
I0
I1
tRp692
(I3
S'<'
NNNI-1
I-1
I0
tbI00
S'\x8f\xc2\xf5(\\\xb7Z@'
tbsS'instance_results'
p693
g227
(g228
(I0
tS'b'
tRp694
(I1
(I1
tg692
I00
S'\xa4p=\n\xd7\xa3\xf4?'
tbsS'test_error'
p695
Fnan
sS'params'
p696
g237
((lp697
(lp698
S'-conv1_depth'
p699
aS'429'
p700
aa(lp701
S'-conv2_depth'
p702
aS'176'
p703
aa(lp704
S'-fc_depth'
p705
aS'224'
p706
aa(lp707
S'-filter_size'
p708
aS'3'
aatRp709
sS'result'
p710
g222
(g224
S'\xa4p=\n\xd7\xa3\xf4?'
tRp711
sS'duration'
p712
g222
(g224
S'\x8f\xc2\xf5(\\\xb7Z@'
tRp713
sS'instance_status'
p714
g227
(g228
(I0
tS'b'
tRp715
(I1
(I1
tg223
(S'i8'
I0
I1
tRp716
(I3
S'<'
NNNI-1
I-1
I0
tbI00
S'\x03\x00\x00\x00\x00\x00\x00\x00'
tbsa(dp717
S'status'
p718
I3
sS'std'
p719
g222
(g224
S'\x00\x00\x00\x00\x00\x00\x00\x00'
tRp720
sS'instance_durations'
p721
g227
(g228
(I0
tS'b'
tRp722
(I1
(I1
tg223
(S'f8'
I0
I1
tRp723
(I3
S'<'
NNNI-1
I-1
I0
tbI00
S'!\xb0rh\x91\rk@'
tbsS'instance_results'
p724
g227
(g228
(I0
tS'b'
tRp725
(I1
(I1
tg723
I00
S'\n\xd7\xa3p=\n\xf7?'
tbsS'instance_status'
p726
g227
(g228
(I0
tS'b'
tRp727
(I1
(I1
tg223
(S'i8'
I0
I1
tRp728
(I3
S'<'
NNNI-1
I-1
I0
tbI00
S'\x03\x00\x00\x00\x00\x00\x00\x00'
tbsS'params'
p729
g237
((lp730
(lp731
S'-conv1_depth'
p732
aS'510'
p733
aa(lp734
S'-conv2_depth'
p735
aS'509'
p736
aa(lp737
S'-fc_depth'
p738
aS'450'
p739
aa(lp740
S'-filter_size'
p741
aS'3'
aatRp742
sS'result'
p743
g222
(g224
S'\n\xd7\xa3p=\n\xf7?'
tRp744
sS'duration'
p745
g222
(g224
S'!\xb0rh\x91\rk@'
tRp746
sS'test_error'
p747
Fnan
sa(dp748
S'status'
p749
I3
sS'std'
p750
g222
(g224
S'\x00\x00\x00\x00\x00\x00\x00\x00'
tRp751
sS'instance_durations'
p752
g227
(g228
(I0
tS'b'
tRp753
(I1
(I1
tg223
(S'f8'
I0
I1
tRp754
(I3
S'<'
NNNI-1
I-1
I0
tbI00
S'\xb0rh\x91\xed\x04P@'
tbsS'instance_results'
p755
g227
(g228
(I0
tS'b'
tRp756
(I1
(I1
tg754
I00
S'=\n\xd7\xa3p=\x1c@'
tbsS'instance_status'
p757
g227
(g228
(I0
tS'b'
tRp758
(I1
(I1
tg223
(S'i8'
I0
I1
tRp759
(I3
S'<'
NNNI-1
I-1
I0
tbI00
S'\x03\x00\x00\x00\x00\x00\x00\x00'
tbsS'params'
p760
g237
((lp761
(lp762
S'-conv1_depth'
p763
aS'430'
p764
aa(lp765
S'-conv2_depth'
p766
aS'8'
aa(lp767
S'-fc_depth'
p768
aS'491'
p769
aa(lp770
S'-filter_size'
p771
aS'1'
aatRp772
sS'result'
p773
g222
(g224
S'=\n\xd7\xa3p=\x1c@'
tRp774
sS'duration'
p775
g222
(g224
S'\xb0rh\x91\xed\x04P@'
tRp776
sS'test_error'
p777
Fnan
sa(dp778
S'status'
p779
I3
sS'std'
p780
g222
(g224
S'\x00\x00\x00\x00\x00\x00\x00\x00'
tRp781
sS'instance_durations'
p782
g227
(g228
(I0
tS'b'
tRp783
(I1
(I1
tg223
(S'f8'
I0
I1
tRp784
(I3
S'<'
NNNI-1
I-1
I0
tbI00
S'\xaa\xf1\xd2Mb\xc0]@'
tbsS'instance_results'
p785
g227
(g228
(I0
tS'b'
tRp786
(I1
(I1
tg784
I00
S'ffffff\xf2?'
tbsS'test_error'
p787
Fnan
sS'params'
p788
g237
((lp789
(lp790
S'-conv1_depth'
p791
aS'291'
p792
aa(lp793
S'-conv2_depth'
p794
aS'148'
p795
aa(lp796
S'-fc_depth'
p797
aS'264'
p798
aa(lp799
S'-filter_size'
p800
aS'5'
aatRp801
sS'result'
p802
g222
(g224
S'ffffff\xf2?'
tRp803
sS'duration'
p804
g222
(g224
S'\xaa\xf1\xd2Mb\xc0]@'
tRp805
sS'instance_status'
p806
g227
(g228
(I0
tS'b'
tRp807
(I1
(I1
tg223
(S'i8'
I0
I1
tRp808
(I3
S'<'
NNNI-1
I-1
I0
tbI00
S'\x03\x00\x00\x00\x00\x00\x00\x00'
tbsa(dp809
S'status'
p810
I3
sS'std'
p811
g222
(g224
S'\x00\x00\x00\x00\x00\x00\x00\x00'
tRp812
sS'instance_durations'
p813
g227
(g228
(I0
tS'b'
tRp814
(I1
(I1
tg223
(S'f8'
I0
I1
tRp815
(I3
S'<'
NNNI-1
I-1
I0
tbI00
S'\x8a\x1fc\xeeZ\xe20@'
tbsS'instance_results'
p816
g227
(g228
(I0
tS'b'
tRp817
(I1
(I1
tg815
I00
S'\xc3\xf5(\\\x8f\xc2\x03@'
tbsS'test_error'
p818
Fnan
sS'params'
p819
g237
((lp820
(lp821
S'-conv1_depth'
p822
aS'1'
aa(lp823
S'-conv2_depth'
p824
aS'20'
p825
aa(lp826
S'-fc_depth'
p827
aS'484'
p828
aa(lp829
S'-filter_size'
p830
aS'14'
p831
aatRp832
sS'result'
p833
g222
(g224
S'\xc3\xf5(\\\x8f\xc2\x03@'
tRp834
sS'duration'
p835
g222
(g224
S'\x8a\x1fc\xeeZ\xe20@'
tRp836
sS'instance_status'
p837
g227
(g228
(I0
tS'b'
tRp838
(I1
(I1
tg223
(S'i8'
I0
I1
tRp839
(I3
S'<'
NNNI-1
I-1
I0
tbI00
S'\x03\x00\x00\x00\x00\x00\x00\x00'
tbsa(dp840
S'status'
p841
I3
sS'std'
p842
g222
(g224
S'\x00\x00\x00\x00\x00\x00\x00\x00'
tRp843
sS'instance_durations'
p844
g227
(g228
(I0
tS'b'
tRp845
(I1
(I1
tg223
(S'f8'
I0
I1
tRp846
(I3
S'<'
NNNI-1
I-1
I0
tbI00
S'\xf91\xe6\xae%`R@'
tbsS'instance_results'
p847
g227
(g228
(I0
tS'b'
tRp848
(I1
(I1
tg846
I00
S'ffffff\x1c@'
tbsS'test_error'
p849
Fnan
sS'params'
p850
g237
((lp851
(lp852
S'-conv1_depth'
p853
aS'506'
p854
aa(lp855
S'-conv2_depth'
p856
aS'23'
p857
aa(lp858
S'-fc_depth'
p859
aS'346'
p860
aa(lp861
S'-filter_size'
p862
aS'1'
aatRp863
sS'result'
p864
g222
(g224
S'ffffff\x1c@'
tRp865
sS'duration'
p866
g222
(g224
S'\xf91\xe6\xae%`R@'
tRp867
sS'instance_status'
p868
g227
(g228
(I0
tS'b'
tRp869
(I1
(I1
tg223
(S'i8'
I0
I1
tRp870
(I3
S'<'
NNNI-1
I-1
I0
tbI00
S'\x03\x00\x00\x00\x00\x00\x00\x00'
tbsa(dp871
S'status'
p872
I3
sS'std'
p873
g222
(g224
S'\x00\x00\x00\x00\x00\x00\x00\x00'
tRp874
sS'instance_durations'
p875
g227
(g228
(I0
tS'b'
tRp876
(I1
(I1
tg223
(S'f8'
I0
I1
tRp877
(I3
S'<'
NNNI-1
I-1
I0
tbI00
S' c\xeeZB\xb6@@'
tbsS'instance_results'
p878
g227
(g228
(I0
tS'b'
tRp879
(I1
(I1
tg877
I00
S'\xc3\xf5(\\\x8f\xc2\x1b@'
tbsS'instance_status'
p880
g227
(g228
(I0
tS'b'
tRp881
(I1
(I1
tg223
(S'i8'
I0
I1
tRp882
(I3
S'<'
NNNI-1
I-1
I0
tbI00
S'\x03\x00\x00\x00\x00\x00\x00\x00'
tbsS'params'
p883
g237
((lp884
(lp885
S'-conv1_depth'
p886
aS'183'
p887
aa(lp888
S'-conv2_depth'
p889
aS'4'
aa(lp890
S'-fc_depth'
p891
aS'503'
p892
aa(lp893
S'-filter_size'
p894
aS'1'
aatRp895
sS'result'
p896
g222
(g224
S'\xc3\xf5(\\\x8f\xc2\x1b@'
tRp897
sS'duration'
p898
g222
(g224
S' c\xeeZB\xb6@@'
tRp899
sS'test_error'
p900
Fnan
sa(dp901
S'status'
p902
I3
sS'std'
p903
g222
(g224
S'\x00\x00\x00\x00\x00\x00\x00\x00'
tRp904
sS'instance_durations'
p905
g227
(g228
(I0
tS'b'
tRp906
(I1
(I1
tg223
(S'f8'
I0
I1
tRp907
(I3
S'<'
NNNI-1
I-1
I0
tbI00
S'\xecQ\xb8\x1e\x85\x1f`@'
tbsS'instance_results'
p908
g227
(g228
(I0
tS'b'
tRp909
(I1
(I1
tg907
I00
S'\xd7\xa3p=\n\xd7\x1d@'
tbsS'test_error'
p910
Fnan
sS'params'
p911
g237
((lp912
(lp913
S'-conv1_depth'
p914
aS'499'
p915
aa(lp916
S'-conv2_depth'
p917
aS'480'
p918
aa(lp919
S'-fc_depth'
p920
aS'502'
p921
aa(lp922
S'-filter_size'
p923
aS'1'
aatRp924
sS'result'
p925
g222
(g224
S'\xd7\xa3p=\n\xd7\x1d@'
tRp926
sS'duration'
p927
g222
(g224
S'\xecQ\xb8\x1e\x85\x1f`@'
tRp928
sS'instance_status'
p929
g227
(g228
(I0
tS'b'
tRp930
(I1
(I1
tg223
(S'i8'
I0
I1
tRp931
(I3
S'<'
NNNI-1
I-1
I0
tbI00
S'\x03\x00\x00\x00\x00\x00\x00\x00'
tbsa(dp932
S'status'
p933
I3
sS'std'
p934
g222
(g224
S'\x00\x00\x00\x00\x00\x00\x00\x00'
tRp935
sS'instance_durations'
p936
g227
(g228
(I0
tS'b'
tRp937
(I1
(I1
tg223
(S'f8'
I0
I1
tRp938
(I3
S'<'
NNNI-1
I-1
I0
tbI00
S'm\xe7\xfb\xa9\xf1*Y@'
tbsS'instance_results'
p939
g227
(g228
(I0
tS'b'
tRp940
(I1
(I1
tg938
I00
S'\xe1z\x14\xaeG\xe1\x1b@'
tbsS'test_error'
p941
Fnan
sS'params'
p942
g237
((lp943
(lp944
S'-conv1_depth'
p945
aS'509'
p946
aa(lp947
S'-conv2_depth'
p948
aS'264'
p949
aa(lp950
S'-fc_depth'
p951
aS'496'
p952
aa(lp953
S'-filter_size'
p954
aS'1'
aatRp955
sS'result'
p956
g222
(g224
S'\xe1z\x14\xaeG\xe1\x1b@'
tRp957
sS'duration'
p958
g222
(g224
S'm\xe7\xfb\xa9\xf1*Y@'
tRp959
sS'instance_status'
p960
g227
(g228
(I0
tS'b'
tRp961
(I1
(I1
tg223
(S'i8'
I0
I1
tRp962
(I3
S'<'
NNNI-1
I-1
I0
tbI00
S'\x03\x00\x00\x00\x00\x00\x00\x00'
tbsa(dp963
S'status'
p964
I3
sS'std'
p965
g222
(g224
S'\x00\x00\x00\x00\x00\x00\x00\x00'
tRp966
sS'instance_durations'
p967
g227
(g228
(I0
tS'b'
tRp968
(I1
(I1
tg223
(S'f8'
I0
I1
tRp969
(I3
S'<'
NNNI-1
I-1
I0
tbI00
S'\x83QI\x9d\x8068@'
tbsS'instance_results'
p970
g227
(g228
(I0
tS'b'
tRp971
(I1
(I1
tg969
I00
S'\xaeG\xe1z\x14nV@'
tbsS'test_error'
p972
Fnan
sS'params'
p973
g237
((lp974
(lp975
S'-conv1_depth'
p976
aS'35'
p977
aa(lp978
S'-conv2_depth'
p979
aS'2'
aa(lp980
S'-fc_depth'
p981
aS'426'
p982
aa(lp983
S'-filter_size'
p984
aS'14'
p985
aatRp986
sS'result'
p987
g222
(g224
S'\xaeG\xe1z\x14nV@'
tRp988
sS'duration'
p989
g222
(g224
S'\x83QI\x9d\x8068@'
tRp990
sS'instance_status'
p991
g227
(g228
(I0
tS'b'
tRp992
(I1
(I1
tg223
(S'i8'
I0
I1
tRp993
(I3
S'<'
NNNI-1
I-1
I0
tbI00
S'\x03\x00\x00\x00\x00\x00\x00\x00'
tbsa(dp994
S'status'
p995
I3
sS'std'
p996
g222
(g224
S'\x00\x00\x00\x00\x00\x00\x00\x00'
tRp997
sS'instance_durations'
p998
g227
(g228
(I0
tS'b'
tRp999
(I1
(I1
tg223
(S'f8'
I0
I1
tRp1000
(I3
S'<'
NNNI-1
I-1
I0
tbI00
S'\xcd\xcc\xcc\xcc\xcc<b@'
tbsS'instance_results'
p1001
g227
(g228
(I0
tS'b'
tRp1002
(I1
(I1
tg1000
I00
S'\xaeG\xe1z\x14nV@'
tbsS'test_error'
p1003
Fnan
sS'params'
p1004
g237
((lp1005
(lp1006
S'-conv1_depth'
p1007
aS'506'
p1008
aa(lp1009
S'-conv2_depth'
p1010
aS'481'
p1011
aa(lp1012
S'-fc_depth'
p1013
aS'3'
aa(lp1014
S'-filter_size'
p1015
aS'2'
aatRp1016
sS'result'
p1017
g222
(g224
S'\xaeG\xe1z\x14nV@'
tRp1018
sS'duration'
p1019
g222
(g224
S'\xcd\xcc\xcc\xcc\xcc<b@'
tRp1020
sS'instance_status'
p1021
g227
(g228
(I0
tS'b'
tRp1022
(I1
(I1
tg223
(S'i8'
I0
I1
tRp1023
(I3
S'<'
NNNI-1
I-1
I0
tbI00
S'\x03\x00\x00\x00\x00\x00\x00\x00'
tbsa(dp1024
S'status'
p1025
I3
sS'std'
p1026
g222
(g224
S'\x00\x00\x00\x00\x00\x00\x00\x00'
tRp1027
sS'instance_durations'
p1028
g227
(g228
(I0
tS'b'
tRp1029
(I1
(I1
tg223
(S'f8'
I0
I1
tRp1030
(I3
S'<'
NNNI-1
I-1
I0
tbI00
S'\xb2\x9d\xef\xa7\xc6\xd5\x84@'
tbsS'instance_results'
p1031
g227
(g228
(I0
tS'b'
tRp1032
(I1
(I1
tg1030
I00
S'\xaeG\xe1z\x14nV@'
tbsS'test_error'
p1033
Fnan
sS'params'
p1034
g237
((lp1035
(lp1036
S'-conv1_depth'
p1037
aS'511'
p1038
aa(lp1039
S'-conv2_depth'
p1040
aS'401'
p1041
aa(lp1042
S'-fc_depth'
p1043
aS'6'
aa(lp1044
S'-filter_size'
p1045
aS'14'
p1046
aatRp1047
sS'result'
p1048
g222
(g224
S'\xaeG\xe1z\x14nV@'
tRp1049
sS'duration'
p1050
g222
(g224
S'\xb2\x9d\xef\xa7\xc6\xd5\x84@'
tRp1051
sS'instance_status'
p1052
g227
(g228
(I0
tS'b'
tRp1053
(I1
(I1
tg223
(S'i8'
I0
I1
tRp1054
(I3
S'<'
NNNI-1
I-1
I0
tbI00
S'\x03\x00\x00\x00\x00\x00\x00\x00'
tbsa(dp1055
S'status'
p1056
I3
sS'std'
p1057
g222
(g224
S'\x00\x00\x00\x00\x00\x00\x00\x00'
tRp1058
sS'instance_durations'
p1059
g227
(g228
(I0
tS'b'
tRp1060
(I1
(I1
tg223
(S'f8'
I0
I1
tRp1061
(I3
S'<'
NNNI-1
I-1
I0
tbI00
S'sh\x91\xed|\xdfK@'
tbsS'instance_results'
p1062
g227
(g228
(I0
tS'b'
tRp1063
(I1
(I1
tg1061
I00
S'\xe1z\x14\xaeG\xe1\x1e@'
tbsS'instance_status'
p1064
g227
(g228
(I0
tS'b'
tRp1065
(I1
(I1
tg223
(S'i8'
I0
I1
tRp1066
(I3
S'<'
NNNI-1
I-1
I0
tbI00
S'\x03\x00\x00\x00\x00\x00\x00\x00'
tbsS'params'
p1067
g237
((lp1068
(lp1069
S'-conv1_depth'
p1070
aS'327'
p1071
aa(lp1072
S'-conv2_depth'
p1073
aS'70'
p1074
aa(lp1075
S'-fc_depth'
p1076
aS'203'
p1077
aa(lp1078
S'-filter_size'
p1079
aS'1'
aatRp1080
sS'result'
p1081
g222
(g224
S'\xe1z\x14\xaeG\xe1\x1e@'
tRp1082
sS'duration'
p1083
g222
(g224
S'sh\x91\xed|\xdfK@'
tRp1084
sS'test_error'
p1085
Fnan
sa(dp1086
S'status'
p1087
I3
sS'std'
p1088
g222
(g224
S'\x00\x00\x00\x00\x00\x00\x00\x00'
tRp1089
sS'instance_durations'
p1090
g227
(g228
(I0
tS'b'
tRp1091
(I1
(I1
tg223
(S'f8'
I0
I1
tRp1092
(I3
S'<'
NNNI-1
I-1
I0
tbI00
S'\xee|?5^\x8a9@'
tbsS'instance_results'
p1093
g227
(g228
(I0
tS'b'
tRp1094
(I1
(I1
tg1092
I00
S'333333\x1b@'
tbsS'instance_status'
p1095
g227
(g228
(I0
tS'b'
tRp1096
(I1
(I1
tg223
(S'i8'
I0
I1
tRp1097
(I3
S'<'
NNNI-1
I-1
I0
tbI00
S'\x03\x00\x00\x00\x00\x00\x00\x00'
tbsS'params'
p1098
g237
((lp1099
(lp1100
S'-conv1_depth'
p1101
aS'104'
p1102
aa(lp1103
S'-conv2_depth'
p1104
aS'32'
p1105
aa(lp1106
S'-fc_depth'
p1107
aS'511'
p1108
aa(lp1109
S'-filter_size'
p1110
aS'1'
aatRp1111
sS'result'
p1112
g222
(g224
S'333333\x1b@'
tRp1113
sS'duration'
p1114
g222
(g224
S'\xee|?5^\x8a9@'
tRp1115
sS'test_error'
p1116
Fnan
sa(dp1117
S'status'
p1118
I3
sS'std'
p1119
g222
(g224
S'\x00\x00\x00\x00\x00\x00\x00\x00'
tRp1120
sS'instance_durations'
p1121
g227
(g228
(I0
tS'b'
tRp1122
(I1
(I1
tg223
(S'f8'
I0
I1
tRp1123
(I3
S'<'
NNNI-1
I-1
I0
tbI00
S'\x02+\x87\x16\xd9&\\@'
tbsS'instance_results'
p1124
g227
(g228
(I0
tS'b'
tRp1125
(I1
(I1
tg1123
I00
S'\xe1z\x14\xaeG\xe1\xfa?'
tbsS'test_error'
p1126
Fnan
sS'params'
p1127
g237
((lp1128
(lp1129
S'-conv1_depth'
p1130
aS'492'
p1131
aa(lp1132
S'-conv2_depth'
p1133
aS'41'
p1134
aa(lp1135
S'-fc_depth'
p1136
aS'503'
p1137
aa(lp1138
S'-filter_size'
p1139
aS'5'
aatRp1140
sS'result'
p1141
g222
(g224
S'\xe1z\x14\xaeG\xe1\xfa?'
tRp1142
sS'duration'
p1143
g222
(g224
S'\x02+\x87\x16\xd9&\\@'
tRp1144
sS'instance_status'
p1145
g227
(g228
(I0
tS'b'
tRp1146
(I1
(I1
tg223
(S'i8'
I0
I1
tRp1147
(I3
S'<'
NNNI-1
I-1
I0
tbI00
S'\x03\x00\x00\x00\x00\x00\x00\x00'
tbsa(dp1148
S'status'
p1149
I3
sS'std'
p1150
g222
(g224
S'\x00\x00\x00\x00\x00\x00\x00\x00'
tRp1151
sS'instance_durations'
p1152
g227
(g228
(I0
tS'b'
tRp1153
(I1
(I1
tg223
(S'f8'
I0
I1
tRp1154
(I3
S'<'
NNNI-1
I-1
I0
tbI00
S'\xf3\x8eSt$\xe70@'
tbsS'instance_results'
p1155
g227
(g228
(I0
tS'b'
tRp1156
(I1
(I1
tg1154
I00
S'ffffff @'
tbsS'test_error'
p1157
Fnan
sS'params'
p1158
g237
((lp1159
(lp1160
S'-conv1_depth'
p1161
aS'8'
aa(lp1162
S'-conv2_depth'
p1163
aS'137'
p1164
aa(lp1165
S'-fc_depth'
p1166
aS'128'
p1167
aa(lp1168
S'-filter_size'
p1169
aS'1'
aatRp1170
sS'result'
p1171
g222
(g224
S'ffffff @'
tRp1172
sS'duration'
p1173
g222
(g224
S'\xf3\x8eSt$\xe70@'
tRp1174
sS'instance_status'
p1175
g227
(g228
(I0
tS'b'
tRp1176
(I1
(I1
tg223
(S'i8'
I0
I1
tRp1177
(I3
S'<'
NNNI-1
I-1
I0
tbI00
S'\x03\x00\x00\x00\x00\x00\x00\x00'
tbsa(dp1178
S'status'
p1179
I3
sS'std'
p1180
g222
(g224
S'\x00\x00\x00\x00\x00\x00\x00\x00'
tRp1181
sS'instance_durations'
p1182
g227
(g228
(I0
tS'b'
tRp1183
(I1
(I1
tg223
(S'f8'
I0
I1
tRp1184
(I3
S'<'
NNNI-1
I-1
I0
tbI00
S'\xf0\xa7\xc6K7Eh@'
tbsS'instance_results'
p1185
g227
(g228
(I0
tS'b'
tRp1186
(I1
(I1
tg1184
I00
S'{\x14\xaeG\xe1z\x04@'
tbsS'test_error'
p1187
Fnan
sS'params'
p1188
g237
((lp1189
(lp1190
S'-conv1_depth'
p1191
aS'490'
p1192
aa(lp1193
S'-conv2_depth'
p1194
aS'173'
p1195
aa(lp1196
S'-fc_depth'
p1197
aS'512'
p1198
aa(lp1199
S'-filter_size'
p1200
aS'5'
aatRp1201
sS'result'
p1202
g222
(g224
S'{\x14\xaeG\xe1z\x04@'
tRp1203
sS'duration'
p1204
g222
(g224
S'\xf0\xa7\xc6K7Eh@'
tRp1205
sS'instance_status'
p1206
g227
(g228
(I0
tS'b'
tRp1207
(I1
(I1
tg223
(S'i8'
I0
I1
tRp1208
(I3
S'<'
NNNI-1
I-1
I0
tbI00
S'\x03\x00\x00\x00\x00\x00\x00\x00'
tbsa(dp1209
S'status'
p1210
I3
sS'std'
p1211
g222
(g224
S'\x00\x00\x00\x00\x00\x00\x00\x00'
tRp1212
sS'instance_durations'
p1213
g227
(g228
(I0
tS'b'
tRp1214
(I1
(I1
tg223
(S'f8'
I0
I1
tRp1215
(I3
S'<'
NNNI-1
I-1
I0
tbI00
S'\x1e\xa7\xe8H.?-@'
tbsS'instance_results'
p1216
g227
(g228
(I0
tS'b'
tRp1217
(I1
(I1
tg1215
I00
S'\\\x8f\xc2\xf5(\\\x1e@'
tbsS'test_error'
p1218
Fnan
sS'params'
p1219
g237
((lp1220
(lp1221
S'-conv1_depth'
p1222
aS'14'
p1223
aa(lp1224
S'-conv2_depth'
p1225
aS'41'
p1226
aa(lp1227
S'-fc_depth'
p1228
aS'340'
p1229
aa(lp1230
S'-filter_size'
p1231
aS'1'
aatRp1232
sS'result'
p1233
g222
(g224
S'\\\x8f\xc2\xf5(\\\x1e@'
tRp1234
sS'duration'
p1235
g222
(g224
S'\x1e\xa7\xe8H.?-@'
tRp1236
sS'instance_status'
p1237
g227
(g228
(I0
tS'b'
tRp1238
(I1
(I1
tg223
(S'i8'
I0
I1
tRp1239
(I3
S'<'
NNNI-1
I-1
I0
tbI00
S'\x03\x00\x00\x00\x00\x00\x00\x00'
tbsa(dp1240
S'status'
p1241
I3
sS'std'
p1242
g222
(g224
S'\x00\x00\x00\x00\x00\x00\x00\x00'
tRp1243
sS'instance_durations'
p1244
g227
(g228
(I0
tS'b'
tRp1245
(I1
(I1
tg223
(S'f8'
I0
I1
tRp1246
(I3
S'<'
NNNI-1
I-1
I0
tbI00
S'w\xbe\x9f\x1a/\xa1e@'
tbsS'instance_results'
p1247
g227
(g228
(I0
tS'b'
tRp1248
(I1
(I1
tg1246
I00
S'\xf6(\\\x8f\xc2\xf5\x02@'
tbsS'instance_status'
p1249
g227
(g228
(I0
tS'b'
tRp1250
(I1
(I1
tg223
(S'i8'
I0
I1
tRp1251
(I3
S'<'
NNNI-1
I-1
I0
tbI00
S'\x03\x00\x00\x00\x00\x00\x00\x00'
tbsS'params'
p1252
g237
((lp1253
(lp1254
S'-conv1_depth'
p1255
aS'464'
p1256
aa(lp1257
S'-conv2_depth'
p1258
aS'150'
p1259
aa(lp1260
S'-fc_depth'
p1261
aS'409'
p1262
aa(lp1263
S'-filter_size'
p1264
aS'5'
aatRp1265
sS'result'
p1266
g222
(g224
S'\xf6(\\\x8f\xc2\xf5\x02@'
tRp1267
sS'duration'
p1268
g222
(g224
S'w\xbe\x9f\x1a/\xa1e@'
tRp1269
sS'test_error'
p1270
Fnan
sa(dp1271
S'status'
p1272
I3
sS'std'
p1273
g222
(g224
S'\x00\x00\x00\x00\x00\x00\x00\x00'
tRp1274
sS'instance_durations'
p1275
g227
(g228
(I0
tS'b'
tRp1276
(I1
(I1
tg223
(S'f8'
I0
I1
tRp1277
(I3
S'<'
NNNI-1
I-1
I0
tbI00
S'\x0c\x02+\x87\x16\x99]@'
tbsS'instance_results'
p1278
g227
(g228
(I0
tS'b'
tRp1279
(I1
(I1
tg1277
I00
S'\x14\xaeG\xe1z\x14\x1e@'
tbsS'instance_status'
p1280
g227
(g228
(I0
tS'b'
tRp1281
(I1
(I1
tg223
(S'i8'
I0
I1
tRp1282
(I3
S'<'
NNNI-1
I-1
I0
tbI00
S'\x03\x00\x00\x00\x00\x00\x00\x00'
tbsS'params'
p1283
g237
((lp1284
(lp1285
S'-conv1_depth'
p1286
aS'512'
p1287
aa(lp1288
S'-conv2_depth'
p1289
aS'500'
p1290
aa(lp1291
S'-fc_depth'
p1292
aS'274'
p1293
aa(lp1294
S'-filter_size'
p1295
aS'1'
aatRp1296
sS'result'
p1297
g222
(g224
S'\x14\xaeG\xe1z\x14\x1e@'
tRp1298
sS'duration'
p1299
g222
(g224
S'\x0c\x02+\x87\x16\x99]@'
tRp1300
sS'test_error'
p1301
Fnan
sa(dp1302
S'status'
p1303
I3
sS'std'
p1304
g222
(g224
S'\x00\x00\x00\x00\x00\x00\x00\x00'
tRp1305
sS'instance_durations'
p1306
g227
(g228
(I0
tS'b'
tRp1307
(I1
(I1
tg223
(S'f8'
I0
I1
tRp1308
(I3
S'<'
NNNI-1
I-1
I0
tbI00
S'\xb2\x9d\xef\xa7\xc6Wc@'
tbsS'instance_results'
p1309
g227
(g228
(I0
tS'b'
tRp1310
(I1
(I1
tg1308
I00
S'R\xb8\x1e\x85\xebQ\xf4?'
tbsS'instance_status'
p1311
g227
(g228
(I0
tS'b'
tRp1312
(I1
(I1
tg223
(S'i8'
I0
I1
tRp1313
(I3
S'<'
NNNI-1
I-1
I0
tbI00
S'\x03\x00\x00\x00\x00\x00\x00\x00'
tbsS'params'
p1314
g237
((lp1315
(lp1316
S'-conv1_depth'
p1317
aS'391'
p1318
aa(lp1319
S'-conv2_depth'
p1320
aS'153'
p1321
aa(lp1322
S'-fc_depth'
p1323
aS'293'
p1324
aa(lp1325
S'-filter_size'
p1326
aS'5'
aatRp1327
sS'result'
p1328
g222
(g224
S'R\xb8\x1e\x85\xebQ\xf4?'
tRp1329
sS'duration'
p1330
g222
(g224
S'\xb2\x9d\xef\xa7\xc6Wc@'
tRp1331
sS'test_error'
p1332
Fnan
sa(dp1333
S'status'
p1334
I3
sS'std'
p1335
g222
(g224
S'\x00\x00\x00\x00\x00\x00\x00\x00'
tRp1336
sS'instance_durations'
p1337
g227
(g228
(I0
tS'b'
tRp1338
(I1
(I1
tg223
(S'f8'
I0
I1
tRp1339
(I3
S'<'
NNNI-1
I-1
I0
tbI00
S'\x96C\x8bl\xe7#R@'
tbsS'instance_results'
p1340
g227
(g228
(I0
tS'b'
tRp1341
(I1
(I1
tg1339
I00
S'ffffff\x1f@'
tbsS'instance_status'
p1342
g227
(g228
(I0
tS'b'
tRp1343
(I1
(I1
tg223
(S'i8'
I0
I1
tRp1344
(I3
S'<'
NNNI-1
I-1
I0
tbI00
S'\x03\x00\x00\x00\x00\x00\x00\x00'
tbsS'params'
p1345
g237
((lp1346
(lp1347
S'-conv1_depth'
p1348
aS'500'
p1349
aa(lp1350
S'-conv2_depth'
p1351
aS'15'
p1352
aa(lp1353
S'-fc_depth'
p1354
aS'246'
p1355
aa(lp1356
S'-filter_size'
p1357
aS'1'
aatRp1358
sS'result'
p1359
g222
(g224
S'ffffff\x1f@'
tRp1360
sS'duration'
p1361
g222
(g224
S'\x96C\x8bl\xe7#R@'
tRp1362
sS'test_error'
p1363
Fnan
sa(dp1364
S'status'
p1365
I3
sS'std'
p1366
g222
(g224
S'\x00\x00\x00\x00\x00\x00\x00\x00'
tRp1367
sS'instance_durations'
p1368
g227
(g228
(I0
tS'b'
tRp1369
(I1
(I1
tg223
(S'f8'
I0
I1
tRp1370
(I3
S'<'
NNNI-1
I-1
I0
tbI00
S'F%u\x02\x9aH1@'
tbsS'instance_results'
p1371
g227
(g228
(I0
tS'b'
tRp1372
(I1
(I1
tg1370
I00
S'\xcd\xcc\xcc\xcc\xcc\xcc\x00@'
tbsS'instance_status'
p1373
g227
(g228
(I0
tS'b'
tRp1374
(I1
(I1
tg223
(S'i8'
I0
I1
tRp1375
(I3
S'<'
NNNI-1
I-1
I0
tbI00
S'\x03\x00\x00\x00\x00\x00\x00\x00'
tbsS'params'
p1376
g237
((lp1377
(lp1378
S'-conv1_depth'
p1379
aS'36'
p1380
aa(lp1381
S'-conv2_depth'
p1382
aS'3'
aa(lp1383
S'-fc_depth'
p1384
aS'512'
p1385
aa(lp1386
S'-filter_size'
p1387
aS'3'
aatRp1388
sS'result'
p1389
g222
(g224
S'\xcd\xcc\xcc\xcc\xcc\xcc\x00@'
tRp1390
sS'duration'
p1391
g222
(g224
S'F%u\x02\x9aH1@'
tRp1392
sS'test_error'
p1393
Fnan
sa(dp1394
S'status'
p1395
I3
sS'std'
p1396
g222
(g224
S'\x00\x00\x00\x00\x00\x00\x00\x00'
tRp1397
sS'instance_durations'
p1398
g227
(g228
(I0
tS'b'
tRp1399
(I1
(I1
tg223
(S'f8'
I0
I1
tRp1400
(I3
S'<'
NNNI-1
I-1
I0
tbI00
S'q=\n\xd7\xa3\xf0K@'
tbsS'instance_results'
p1401
g227
(g228
(I0
tS'b'
tRp1402
(I1
(I1
tg1400
I00
S'q=\n\xd7\xa3p\x1c@'
tbsS'test_error'
p1403
Fnan
sS'params'
p1404
g237
((lp1405
(lp1406
S'-conv1_depth'
p1407
aS'323'
p1408
aa(lp1409
S'-conv2_depth'
p1410
aS'62'
p1411
aa(lp1412
S'-fc_depth'
p1413
aS'509'
p1414
aa(lp1415
S'-filter_size'
p1416
aS'1'
aatRp1417
sS'result'
p1418
g222
(g224
S'q=\n\xd7\xa3p\x1c@'
tRp1419
sS'duration'
p1420
g222
(g224
S'q=\n\xd7\xa3\xf0K@'
tRp1421
sS'instance_status'
p1422
g227
(g228
(I0
tS'b'
tRp1423
(I1
(I1
tg223
(S'i8'
I0
I1
tRp1424
(I3
S'<'
NNNI-1
I-1
I0
tbI00
S'\x03\x00\x00\x00\x00\x00\x00\x00'
tbsa(dp1425
S'status'
p1426
I3
sS'std'
p1427
g222
(g224
S'\x00\x00\x00\x00\x00\x00\x00\x00'
tRp1428
sS'instance_durations'
p1429
g227
(g228
(I0
tS'b'
tRp1430
(I1
(I1
tg223
(S'f8'
I0
I1
tRp1431
(I3
S'<'
NNNI-1
I-1
I0
tbI00
S'`vO\x1e\x162H@'
tbsS'instance_results'
p1432
g227
(g228
(I0
tS'b'
tRp1433
(I1
(I1
tg1431
I00
S'\xaeG\xe1z\x14\xae\x1f@'
tbsS'instance_status'
p1434
g227
(g228
(I0
tS'b'
tRp1435
(I1
(I1
tg223
(S'i8'
I0
I1
tRp1436
(I3
S'<'
NNNI-1
I-1
I0
tbI00
S'\x03\x00\x00\x00\x00\x00\x00\x00'
tbsS'params'
p1437
g237
((lp1438
(lp1439
S'-conv1_depth'
p1440
aS'5'
aa(lp1441
S'-conv2_depth'
p1442
aS'358'
p1443
aa(lp1444
S'-fc_depth'
p1445
aS'503'
p1446
aa(lp1447
S'-filter_size'
p1448
aS'1'
aatRp1449
sS'result'
p1450
g222
(g224
S'\xaeG\xe1z\x14\xae\x1f@'
tRp1451
sS'duration'
p1452
g222
(g224
S'`vO\x1e\x162H@'
tRp1453
sS'test_error'
p1454
Fnan
sa(dp1455
S'status'
p1456
I3
sS'std'
p1457
g222
(g224
S'\x00\x00\x00\x00\x00\x00\x00\x00'
tRp1458
sS'instance_durations'
p1459
g227
(g228
(I0
tS'b'
tRp1460
(I1
(I1
tg223
(S'f8'
I0
I1
tRp1461
(I3
S'<'
NNNI-1
I-1
I0
tbI00
S'I\x9d\x80&\xc2\x86,@'
tbsS'instance_results'
p1462
g227
(g228
(I0
tS'b'
tRp1463
(I1
(I1
tg1461
I00
S'\x00\x00\x00\x00\x00\x80&@'
tbsS'instance_status'
p1464
g227
(g228
(I0
tS'b'
tRp1465
(I1
(I1
tg223
(S'i8'
I0
I1
tRp1466
(I3
S'<'
NNNI-1
I-1
I0
tbI00
S'\x03\x00\x00\x00\x00\x00\x00\x00'
tbsS'params'
p1467
g237
((lp1468
(lp1469
S'-conv1_depth'
p1470
aS'11'
p1471
aa(lp1472
S'-conv2_depth'
p1473
aS'25'
p1474
aa(lp1475
S'-fc_depth'
p1476
aS'429'
p1477
aa(lp1478
S'-filter_size'
p1479
aS'1'
aatRp1480
sS'result'
p1481
g222
(g224
S'\x00\x00\x00\x00\x00\x80&@'
tRp1482
sS'duration'
p1483
g222
(g224
S'I\x9d\x80&\xc2\x86,@'
tRp1484
sS'test_error'
p1485
Fnan
sa(dp1486
S'status'
p1487
I3
sS'std'
p1488
g222
(g224
S'\x00\x00\x00\x00\x00\x00\x00\x00'
tRp1489
sS'instance_durations'
p1490
g227
(g228
(I0
tS'b'
tRp1491
(I1
(I1
tg223
(S'f8'
I0
I1
tRp1492
(I3
S'<'
NNNI-1
I-1
I0
tbI00
S'\x7fj\xbct\x93\xd8U@'
tbsS'instance_results'
p1493
g227
(g228
(I0
tS'b'
tRp1494
(I1
(I1
tg1492
I00
S'\xaeG\xe1z\x14nV@'
tbsS'test_error'
p1495
Fnan
sS'params'
p1496
g237
((lp1497
(lp1498
S'-conv1_depth'
p1499
aS'446'
p1500
aa(lp1501
S'-conv2_depth'
p1502
aS'6'
aa(lp1503
S'-fc_depth'
p1504
aS'461'
p1505
aa(lp1506
S'-filter_size'
p1507
aS'5'
aatRp1508
sS'result'
p1509
g222
(g224
S'\xaeG\xe1z\x14nV@'
tRp1510
sS'duration'
p1511
g222
(g224
S'\x7fj\xbct\x93\xd8U@'
tRp1512
sS'instance_status'
p1513
g227
(g228
(I0
tS'b'
tRp1514
(I1
(I1
tg223
(S'i8'
I0
I1
tRp1515
(I3
S'<'
NNNI-1
I-1
I0
tbI00
S'\x03\x00\x00\x00\x00\x00\x00\x00'
tbsa(dp1516
S'status'
p1517
I3
sS'std'
p1518
g222
(g224
S'\x00\x00\x00\x00\x00\x00\x00\x00'
tRp1519
sS'instance_durations'
p1520
g227
(g228
(I0
tS'b'
tRp1521
(I1
(I1
tg223
(S'f8'
I0
I1
tRp1522
(I3
S'<'
NNNI-1
I-1
I0
tbI00
S'\xe9&1\x08\xac0W@'
tbsS'instance_results'
p1523
g227
(g228
(I0
tS'b'
tRp1524
(I1
(I1
tg1522
I00
S'\xa4p=\n\xd7\xa3\xf8?'
tbsS'instance_status'
p1525
g227
(g228
(I0
tS'b'
tRp1526
(I1
(I1
tg223
(S'i8'
I0
I1
tRp1527
(I3
S'<'
NNNI-1
I-1
I0
tbI00
S'\x03\x00\x00\x00\x00\x00\x00\x00'
tbsS'params'
p1528
g237
((lp1529
(lp1530
S'-conv1_depth'
p1531
aS'50'
p1532
aa(lp1533
S'-conv2_depth'
p1534
aS'510'
p1535
aa(lp1536
S'-fc_depth'
p1537
aS'486'
p1538
aa(lp1539
S'-filter_size'
p1540
aS'5'
aatRp1541
sS'result'
p1542
g222
(g224
S'\xa4p=\n\xd7\xa3\xf8?'
tRp1543
sS'duration'
p1544
g222
(g224
S'\xe9&1\x08\xac0W@'
tRp1545
sS'test_error'
p1546
Fnan
sa(dp1547
S'status'
p1548
I3
sS'std'
p1549
g222
(g224
S'\x00\x00\x00\x00\x00\x00\x00\x00'
tRp1550
sS'instance_durations'
p1551
g227
(g228
(I0
tS'b'
tRp1552
(I1
(I1
tg223
(S'f8'
I0
I1
tRp1553
(I3
S'<'
NNNI-1
I-1
I0
tbI00
S'u\x93\x18\x04V>]@'
tbsS'instance_results'
p1554
g227
(g228
(I0
tS'b'
tRp1555
(I1
(I1
tg1553
I00
S'\xaeG\xe1z\x14.&@'
tbsS'instance_status'
p1556
g227
(g228
(I0
tS'b'
tRp1557
(I1
(I1
tg223
(S'i8'
I0
I1
tRp1558
(I3
S'<'
NNNI-1
I-1
I0
tbI00
S'\x03\x00\x00\x00\x00\x00\x00\x00'
tbsS'params'
p1559
g237
((lp1560
(lp1561
S'-conv1_depth'
p1562
aS'47'
p1563
aa(lp1564
S'-conv2_depth'
p1565
aS'505'
p1566
aa(lp1567
S'-fc_depth'
p1568
aS'507'
p1569
aa(lp1570
S'-filter_size'
p1571
aS'14'
p1572
aatRp1573
sS'result'
p1574
g222
(g224
S'\xaeG\xe1z\x14.&@'
tRp1575
sS'duration'
p1576
g222
(g224
S'u\x93\x18\x04V>]@'
tRp1577
sS'test_error'
p1578
Fnan
sa(dp1579
S'status'
p1580
I3
sS'std'
p1581
g222
(g224
S'\x00\x00\x00\x00\x00\x00\x00\x00'
tRp1582
sS'instance_durations'
p1583
g227
(g228
(I0
tS'b'
tRp1584
(I1
(I1
tg223
(S'f8'
I0
I1
tRp1585
(I3
S'<'
NNNI-1
I-1
I0
tbI00
S'\xbdR\x96!\x8e\xa5N@'
tbsS'instance_results'
p1586
g227
(g228
(I0
tS'b'
tRp1587
(I1
(I1
tg1585
I00
S'\x14\xaeG\xe1z\x14\x1d@'
tbsS'instance_status'
p1588
g227
(g228
(I0
tS'b'
tRp1589
(I1
(I1
tg223
(S'i8'
I0
I1
tRp1590
(I3
S'<'
NNNI-1
I-1
I0
tbI00
S'\x03\x00\x00\x00\x00\x00\x00\x00'
tbsS'params'
p1591
g237
((lp1592
(lp1593
S'-conv1_depth'
p1594
aS'77'
p1595
aa(lp1596
S'-conv2_depth'
p1597
aS'505'
p1598
aa(lp1599
S'-fc_depth'
p1600
aS'402'
p1601
aa(lp1602
S'-filter_size'
p1603
aS'1'
aatRp1604
sS'result'
p1605
g222
(g224
S'\x14\xaeG\xe1z\x14\x1d@'
tRp1606
sS'duration'
p1607
g222
(g224
S'\xbdR\x96!\x8e\xa5N@'
tRp1608
sS'test_error'
p1609
Fnan
sa(dp1610
S'status'
p1611
I3
sS'std'
p1612
g222
(g224
S'\x00\x00\x00\x00\x00\x00\x00\x00'
tRp1613
sS'instance_durations'
p1614
g227
(g228
(I0
tS'b'
tRp1615
(I1
(I1
tg223
(S'f8'
I0
I1
tRp1616
(I3
S'<'
NNNI-1
I-1
I0
tbI00
S'\x1e\x16jM\xf3\xf6P@'
tbsS'instance_results'
p1617
g227
(g228
(I0
tS'b'
tRp1618
(I1
(I1
tg1616
I00
S'ffffff\x11@'
tbsS'test_error'
p1619
Fnan
sS'params'
p1620
g237
((lp1621
(lp1622
S'-conv1_depth'
p1623
aS'3'
aa(lp1624
S'-conv2_depth'
p1625
aS'495'
p1626
aa(lp1627
S'-fc_depth'
p1628
aS'480'
p1629
aa(lp1630
S'-filter_size'
p1631
aS'12'
p1632
aatRp1633
sS'result'
p1634
g222
(g224
S'ffffff\x11@'
tRp1635
sS'duration'
p1636
g222
(g224
S'\x1e\x16jM\xf3\xf6P@'
tRp1637
sS'instance_status'
p1638
g227
(g228
(I0
tS'b'
tRp1639
(I1
(I1
tg223
(S'i8'
I0
I1
tRp1640
(I3
S'<'
NNNI-1
I-1
I0
tbI00
S'\x03\x00\x00\x00\x00\x00\x00\x00'
tbsa(dp1641
S'status'
p1642
I3
sS'std'
p1643
g222
(g224
S'\x00\x00\x00\x00\x00\x00\x00\x00'
tRp1644
sS'instance_durations'
p1645
g227
(g228
(I0
tS'b'
tRp1646
(I1
(I1
tg223
(S'f8'
I0
I1
tRp1647
(I3
S'<'
NNNI-1
I-1
I0
tbI00
S'\xa7y\xc7):bQ@'
tbsS'instance_results'
p1648
g227
(g228
(I0
tS'b'
tRp1649
(I1
(I1
tg1647
I00
S'\xa4p=\n\xd7\xa3\xf8?'
tbsS'test_error'
p1650
Fnan
sS'params'
p1651
g237
((lp1652
(lp1653
S'-conv1_depth'
p1654
aS'335'
p1655
aa(lp1656
S'-conv2_depth'
p1657
aS'51'
p1658
aa(lp1659
S'-fc_depth'
p1660
aS'245'
p1661
aa(lp1662
S'-filter_size'
p1663
aS'2'
aatRp1664
sS'result'
p1665
g222
(g224
S'\xa4p=\n\xd7\xa3\xf8?'
tRp1666
sS'duration'
p1667
g222
(g224
S'\xa7y\xc7):bQ@'
tRp1668
sS'instance_status'
p1669
g227
(g228
(I0
tS'b'
tRp1670
(I1
(I1
tg223
(S'i8'
I0
I1
tRp1671
(I3
S'<'
NNNI-1
I-1
I0
tbI00
S'\x03\x00\x00\x00\x00\x00\x00\x00'
tbsa(dp1672
S'status'
p1673
I3
sS'std'
p1674
g222
(g224
S'\x00\x00\x00\x00\x00\x00\x00\x00'
tRp1675
sS'instance_durations'
p1676
g227
(g228
(I0
tS'b'
tRp1677
(I1
(I1
tg223
(S'f8'
I0
I1
tRp1678
(I3
S'<'
NNNI-1
I-1
I0
tbI00
S'\xd3\xbc\xe3\x14\x1dy?@'
tbsS'instance_results'
p1679
g227
(g228
(I0
tS'b'
tRp1680
(I1
(I1
tg1678
I00
S'\xaeG\xe1z\x14\xae\x01@'
tbsS'test_error'
p1681
Fnan
sS'params'
p1682
g237
((lp1683
(lp1684
S'-conv1_depth'
p1685
aS'10'
p1686
aa(lp1687
S'-conv2_depth'
p1688
aS'188'
p1689
aa(lp1690
S'-fc_depth'
p1691
aS'511'
p1692
aa(lp1693
S'-filter_size'
p1694
aS'2'
aatRp1695
sS'result'
p1696
g222
(g224
S'\xaeG\xe1z\x14\xae\x01@'
tRp1697
sS'duration'
p1698
g222
(g224
S'\xd3\xbc\xe3\x14\x1dy?@'
tRp1699
sS'instance_status'
p1700
g227
(g228
(I0
tS'b'
tRp1701
(I1
(I1
tg223
(S'i8'
I0
I1
tRp1702
(I3
S'<'
NNNI-1
I-1
I0
tbI00
S'\x03\x00\x00\x00\x00\x00\x00\x00'
tbsa(dp1703
S'status'
p1704
I3
sS'std'
p1705
g222
(g224
S'\x00\x00\x00\x00\x00\x00\x00\x00'
tRp1706
sS'instance_durations'
p1707
g227
(g228
(I0
tS'b'
tRp1708
(I1
(I1
tg223
(S'f8'
I0
I1
tRp1709
(I3
S'<'
NNNI-1
I-1
I0
tbI00
S'r\xf9\x0f\xe9\xb7\x8f@@'
tbsS'instance_results'
p1710
g227
(g228
(I0
tS'b'
tRp1711
(I1
(I1
tg1709
I00
S'\xaeG\xe1z\x14nV@'
tbsS'test_error'
p1712
Fnan
sS'params'
p1713
g237
((lp1714
(lp1715
S'-conv1_depth'
p1716
aS'13'
p1717
aa(lp1718
S'-conv2_depth'
p1719
aS'506'
p1720
aa(lp1721
S'-fc_depth'
p1722
aS'84'
p1723
aa(lp1724
S'-filter_size'
p1725
aS'1'
aatRp1726
sS'result'
p1727
g222
(g224
S'\xaeG\xe1z\x14nV@'
tRp1728
sS'duration'
p1729
g222
(g224
S'r\xf9\x0f\xe9\xb7\x8f@@'
tRp1730
sS'instance_status'
p1731
g227
(g228
(I0
tS'b'
tRp1732
(I1
(I1
tg223
(S'i8'
I0
I1
tRp1733
(I3
S'<'
NNNI-1
I-1
I0
tbI00
S'\x03\x00\x00\x00\x00\x00\x00\x00'
tbsa(dp1734
S'status'
p1735
I3
sS'std'
p1736
g222
(g224
S'\x00\x00\x00\x00\x00\x00\x00\x00'
tRp1737
sS'instance_durations'
p1738
g227
(g228
(I0
tS'b'
tRp1739
(I1
(I1
tg223
(S'f8'
I0
I1
tRp1740
(I3
S'<'
NNNI-1
I-1
I0
tbI00
S'\x0bF%u\x02\xda.@'
tbsS'instance_results'
p1741
g227
(g228
(I0
tS'b'
tRp1742
(I1
(I1
tg1740
I00
S'\x85\xebQ\xb8\x1e\x85\x05@'
tbsS'instance_status'
p1743
g227
(g228
(I0
tS'b'
tRp1744
(I1
(I1
tg223
(S'i8'
I0
I1
tRp1745
(I3
S'<'
NNNI-1
I-1
I0
tbI00
S'\x03\x00\x00\x00\x00\x00\x00\x00'
tbsS'params'
p1746
g237
((lp1747
(lp1748
S'-conv1_depth'
p1749
aS'2'
aa(lp1750
S'-conv2_depth'
p1751
aS'4'
aa(lp1752
S'-fc_depth'
p1753
aS'87'
p1754
aa(lp1755
S'-filter_size'
p1756
aS'12'
p1757
aatRp1758
sS'result'
p1759
g222
(g224
S'\x85\xebQ\xb8\x1e\x85\x05@'
tRp1760
sS'duration'
p1761
g222
(g224
S'\x0bF%u\x02\xda.@'
tRp1762
sS'test_error'
p1763
Fnan
sa(dp1764
S'status'
p1765
I3
sS'std'
p1766
g222
(g224
S'\x00\x00\x00\x00\x00\x00\x00\x00'
tRp1767
sS'instance_durations'
p1768
g227
(g228
(I0
tS'b'
tRp1769
(I1
(I1
tg223
(S'f8'
I0
I1
tRp1770
(I3
S'<'
NNNI-1
I-1
I0
tbI00
S';p\xce\x88\xd2~0@'
tbsS'instance_results'
p1771
g227
(g228
(I0
tS'b'
tRp1772
(I1
(I1
tg1770
I00
S'=\n\xd7\xa3p=\x1e@'
tbsS'instance_status'
p1773
g227
(g228
(I0
tS'b'
tRp1774
(I1
(I1
tg223
(S'i8'
I0
I1
tRp1775
(I3
S'<'
NNNI-1
I-1
I0
tbI00
S'\x03\x00\x00\x00\x00\x00\x00\x00'
tbsS'params'
p1776
g237
((lp1777
(lp1778
S'-conv1_depth'
p1779
aS'7'
aa(lp1780
S'-conv2_depth'
p1781
aS'69'
p1782
aa(lp1783
S'-fc_depth'
p1784
aS'448'
p1785
aa(lp1786
S'-filter_size'
p1787
aS'1'
aatRp1788
sS'result'
p1789
g222
(g224
S'=\n\xd7\xa3p=\x1e@'
tRp1790
sS'duration'
p1791
g222
(g224
S';p\xce\x88\xd2~0@'
tRp1792
sS'test_error'
p1793
Fnan
sa(dp1794
S'status'
p1795
I3
sS'std'
p1796
g222
(g224
S'\x00\x00\x00\x00\x00\x00\x00\x00'
tRp1797
sS'instance_durations'
p1798
g227
(g228
(I0
tS'b'
tRp1799
(I1
(I1
tg223
(S'f8'
I0
I1
tRp1800
(I3
S'<'
NNNI-1
I-1
I0
tbI00
S'\xd9=yX\xa85M@'
tbsS'instance_results'
p1801
g227
(g228
(I0
tS'b'
tRp1802
(I1
(I1
tg1800
I00
S'\xb8\x1e\x85\xebQ\xb8\x12@'
tbsS'test_error'
p1803
Fnan
sS'params'
p1804
g237
((lp1805
(lp1806
S'-conv1_depth'
p1807
aS'2'
aa(lp1808
S'-conv2_depth'
p1809
aS'402'
p1810
aa(lp1811
S'-fc_depth'
p1812
aS'505'
p1813
aa(lp1814
S'-filter_size'
p1815
aS'13'
p1816
aatRp1817
sS'result'
p1818
g222
(g224
S'\xb8\x1e\x85\xebQ\xb8\x12@'
tRp1819
sS'duration'
p1820
g222
(g224
S'\xd9=yX\xa85M@'
tRp1821
sS'instance_status'
p1822
g227
(g228
(I0
tS'b'
tRp1823
(I1
(I1
tg223
(S'i8'
I0
I1
tRp1824
(I3
S'<'
NNNI-1
I-1
I0
tbI00
S'\x03\x00\x00\x00\x00\x00\x00\x00'
tbsa(dp1825
S'status'
p1826
I3
sS'std'
p1827
g222
(g224
S'\x00\x00\x00\x00\x00\x00\x00\x00'
tRp1828
sS'instance_durations'
p1829
g227
(g228
(I0
tS'b'
tRp1830
(I1
(I1
tg223
(S'f8'
I0
I1
tRp1831
(I3
S'<'
NNNI-1
I-1
I0
tbI00
S'\xaa\x82QI\x9d\x003@'
tbsS'instance_results'
p1832
g227
(g228
(I0
tS'b'
tRp1833
(I1
(I1
tg1831
I00
S'ffffff\xfe?'
tbsS'test_error'
p1834
Fnan
sS'params'
p1835
g237
((lp1836
(lp1837
S'-conv1_depth'
p1838
aS'12'
p1839
aa(lp1840
S'-conv2_depth'
p1841
aS'64'
p1842
aa(lp1843
S'-fc_depth'
p1844
aS'504'
p1845
aa(lp1846
S'-filter_size'
p1847
aS'2'
aatRp1848
sS'result'
p1849
g222
(g224
S'ffffff\xfe?'
tRp1850
sS'duration'
p1851
g222
(g224
S'\xaa\x82QI\x9d\x003@'
tRp1852
sS'instance_status'
p1853
g227
(g228
(I0
tS'b'
tRp1854
(I1
(I1
tg223
(S'i8'
I0
I1
tRp1855
(I3
S'<'
NNNI-1
I-1
I0
tbI00
S'\x03\x00\x00\x00\x00\x00\x00\x00'
tbsa(dp1856
S'status'
p1857
I3
sS'std'
p1858
g222
(g224
S'\x00\x00\x00\x00\x00\x00\x00\x00'
tRp1859
sS'instance_durations'
p1860
g227
(g228
(I0
tS'b'
tRp1861
(I1
(I1
tg223
(S'f8'
I0
I1
tRp1862
(I3
S'<'
NNNI-1
I-1
I0
tbI00
S'\x83\xc0\xca\xa1E\x0e^@'
tbsS'instance_results'
p1863
g227
(g228
(I0
tS'b'
tRp1864
(I1
(I1
tg1862
I00
S'\xaeG\xe1z\x14nV@'
tbsS'test_error'
p1865
Fnan
sS'params'
p1866
g237
((lp1867
(lp1868
S'-conv1_depth'
p1869
aS'445'
p1870
aa(lp1871
S'-conv2_depth'
p1872
aS'9'
aa(lp1873
S'-fc_depth'
p1874
aS'271'
p1875
aa(lp1876
S'-filter_size'
p1877
aS'14'
p1878
aatRp1879
sS'result'
p1880
g222
(g224
S'\xaeG\xe1z\x14nV@'
tRp1881
sS'duration'
p1882
g222
(g224
S'\x83\xc0\xca\xa1E\x0e^@'
tRp1883
sS'instance_status'
p1884
g227
(g228
(I0
tS'b'
tRp1885
(I1
(I1
tg223
(S'i8'
I0
I1
tRp1886
(I3
S'<'
NNNI-1
I-1
I0
tbI00
S'\x03\x00\x00\x00\x00\x00\x00\x00'
tbsa(dp1887
S'status'
p1888
I3
sS'std'
p1889
g222
(g224
S'\x00\x00\x00\x00\x00\x00\x00\x00'
tRp1890
sS'instance_durations'
p1891
g227
(g228
(I0
tS'b'
tRp1892
(I1
(I1
tg223
(S'f8'
I0
I1
tRp1893
(I3
S'<'
NNNI-1
I-1
I0
tbI00
S'\xed\x9e<,\xd4\xa6W@'
tbsS'instance_results'
p1894
g227
(g228
(I0
tS'b'
tRp1895
(I1
(I1
tg1893
I00
S'\xecQ\xb8\x1e\x85\xeb\xfd?'
tbsS'test_error'
p1896
Fnan
sS'params'
p1897
g237
((lp1898
(lp1899
S'-conv1_depth'
p1900
aS'188'
p1901
aa(lp1902
S'-conv2_depth'
p1903
aS'478'
p1904
aa(lp1905
S'-fc_depth'
p1906
aS'511'
p1907
aa(lp1908
S'-filter_size'
p1909
aS'2'
aatRp1910
sS'result'
p1911
g222
(g224
S'\xecQ\xb8\x1e\x85\xeb\xfd?'
tRp1912
sS'duration'
p1913
g222
(g224
S'\xed\x9e<,\xd4\xa6W@'
tRp1914
sS'instance_status'
p1915
g227
(g228
(I0
tS'b'
tRp1916
(I1
(I1
tg223
(S'i8'
I0
I1
tRp1917
(I3
S'<'
NNNI-1
I-1
I0
tbI00
S'\x03\x00\x00\x00\x00\x00\x00\x00'
tbsa(dp1918
S'status'
p1919
I3
sS'std'
p1920
g222
(g224
S'\x00\x00\x00\x00\x00\x00\x00\x00'
tRp1921
sS'instance_durations'
p1922
g227
(g228
(I0
tS'b'
tRp1923
(I1
(I1
tg223
(S'f8'
I0
I1
tRp1924
(I3
S'<'
NNNI-1
I-1
I0
tbI00
S'_\x98L\x15\x8c\xaa0@'
tbsS'instance_results'
p1925
g227
(g228
(I0
tS'b'
tRp1926
(I1
(I1
tg1924
I00
S'\x14\xaeG\xe1z\x94(@'
tbsS'test_error'
p1927
Fnan
sS'params'
p1928
g237
((lp1929
(lp1930
S'-conv1_depth'
p1931
aS'4'
aa(lp1932
S'-conv2_depth'
p1933
aS'73'
p1934
aa(lp1935
S'-fc_depth'
p1936
aS'458'
p1937
aa(lp1938
S'-filter_size'
p1939
aS'1'
aatRp1940
sS'result'
p1941
g222
(g224
S'\x14\xaeG\xe1z\x94(@'
tRp1942
sS'duration'
p1943
g222
(g224
S'_\x98L\x15\x8c\xaa0@'
tRp1944
sS'instance_status'
p1945
g227
(g228
(I0
tS'b'
tRp1946
(I1
(I1
tg223
(S'i8'
I0
I1
tRp1947
(I3
S'<'
NNNI-1
I-1
I0
tbI00
S'\x03\x00\x00\x00\x00\x00\x00\x00'
tbsa(dp1948
S'status'
p1949
I3
sS'std'
p1950
g222
(g224
S'\x00\x00\x00\x00\x00\x00\x00\x00'
tRp1951
sS'instance_durations'
p1952
g227
(g228
(I0
tS'b'
tRp1953
(I1
(I1
tg223
(S'f8'
I0
I1
tRp1954
(I3
S'<'
NNNI-1
I-1
I0
tbI00
S':#J{\x83\xc7H@'
tbsS'instance_results'
p1955
g227
(g228
(I0
tS'b'
tRp1956
(I1
(I1
tg1954
I00
S')\\\x8f\xc2\xf5(\x1d@'
tbsS'test_error'
p1957
Fnan
sS'params'
p1958
g237
((lp1959
(lp1960
S'-conv1_depth'
p1961
aS'20'
p1962
aa(lp1963
S'-conv2_depth'
p1964
aS'390'
p1965
aa(lp1966
S'-fc_depth'
p1967
aS'463'
p1968
aa(lp1969
S'-filter_size'
p1970
aS'1'
aatRp1971
sS'result'
p1972
g222
(g224
S')\\\x8f\xc2\xf5(\x1d@'
tRp1973
sS'duration'
p1974
g222
(g224
S':#J{\x83\xc7H@'
tRp1975
sS'instance_status'
p1976
g227
(g228
(I0
tS'b'
tRp1977
(I1
(I1
tg223
(S'i8'
I0
I1
tRp1978
(I3
S'<'
NNNI-1
I-1
I0
tbI00
S'\x03\x00\x00\x00\x00\x00\x00\x00'
tbsa(dp1979
S'status'
p1980
I3
sS'std'
p1981
g222
(g224
S'\x00\x00\x00\x00\x00\x00\x00\x00'
tRp1982
sS'instance_durations'
p1983
g227
(g228
(I0
tS'b'
tRp1984
(I1
(I1
tg223
(S'f8'
I0
I1
tRp1985
(I3
S'<'
NNNI-1
I-1
I0
tbI00
S'\xc7\xba\xb8\x8d\x06\xb8I@'
tbsS'instance_results'
p1986
g227
(g228
(I0
tS'b'
tRp1987
(I1
(I1
tg1985
I00
S'333333\x1e@'
tbsS'test_error'
p1988
Fnan
sS'params'
p1989
g237
((lp1990
(lp1991
S'-conv1_depth'
p1992
aS'26'
p1993
aa(lp1994
S'-conv2_depth'
p1995
aS'375'
p1996
aa(lp1997
S'-fc_depth'
p1998
aS'506'
p1999
aa(lp2000
S'-filter_size'
p2001
aS'1'
aatRp2002
sS'result'
p2003
g222
(g224
S'333333\x1e@'
tRp2004
sS'duration'
p2005
g222
(g224
S'\xc7\xba\xb8\x8d\x06\xb8I@'
tRp2006
sS'instance_status'
p2007
g227
(g228
(I0
tS'b'
tRp2008
(I1
(I1
tg223
(S'i8'
I0
I1
tRp2009
(I3
S'<'
NNNI-1
I-1
I0
tbI00
S'\x03\x00\x00\x00\x00\x00\x00\x00'
tbsa(dp2010
S'status'
p2011
I3
sS'std'
p2012
g222
(g224
S'\x00\x00\x00\x00\x00\x00\x00\x00'
tRp2013
sS'instance_durations'
p2014
g227
(g228
(I0
tS'b'
tRp2015
(I1
(I1
tg223
(S'f8'
I0
I1
tRp2016
(I3
S'<'
NNNI-1
I-1
I0
tbI00
S'+\x87\x16\xd9\xcewZ@'
tbsS'instance_results'
p2017
g227
(g228
(I0
tS'b'
tRp2018
(I1
(I1
tg2016
I00
S'\xa4p=\n\xd7\xa3\xf8?'
tbsS'instance_status'
p2019
g227
(g228
(I0
tS'b'
tRp2020
(I1
(I1
tg223
(S'i8'
I0
I1
tRp2021
(I3
S'<'
NNNI-1
I-1
I0
tbI00
S'\x03\x00\x00\x00\x00\x00\x00\x00'
tbsS'params'
p2022
g237
((lp2023
(lp2024
S'-conv1_depth'
p2025
aS'200'
p2026
aa(lp2027
S'-conv2_depth'
p2028
aS'498'
p2029
aa(lp2030
S'-fc_depth'
p2031
aS'326'
p2032
aa(lp2033
S'-filter_size'
p2034
aS'3'
aatRp2035
sS'result'
p2036
g222
(g224
S'\xa4p=\n\xd7\xa3\xf8?'
tRp2037
sS'duration'
p2038
g222
(g224
S'+\x87\x16\xd9\xcewZ@'
tRp2039
sS'test_error'
p2040
Fnan
sa(dp2041
S'status'
p2042
I3
sS'std'
p2043
g222
(g224
S'\x00\x00\x00\x00\x00\x00\x00\x00'
tRp2044
sS'instance_durations'
p2045
g227
(g228
(I0
tS'b'
tRp2046
(I1
(I1
tg223
(S'f8'
I0
I1
tRp2047
(I3
S'<'
NNNI-1
I-1
I0
tbI00
S'\xd7\xa3p=\n\x87I@'
tbsS'instance_results'
p2048
g227
(g228
(I0
tS'b'
tRp2049
(I1
(I1
tg2047
I00
S'\xaeG\xe1z\x14nV@'
tbsS'test_error'
p2050
Fnan
sS'params'
p2051
g237
((lp2052
(lp2053
S'-conv1_depth'
p2054
aS'1'
aa(lp2055
S'-conv2_depth'
p2056
aS'503'
p2057
aa(lp2058
S'-fc_depth'
p2059
aS'348'
p2060
aa(lp2061
S'-filter_size'
p2062
aS'2'
aatRp2063
sS'result'
p2064
g222
(g224
S'\xaeG\xe1z\x14nV@'
tRp2065
sS'duration'
p2066
g222
(g224
S'\xd7\xa3p=\n\x87I@'
tRp2067
sS'instance_status'
p2068
g227
(g228
(I0
tS'b'
tRp2069
(I1
(I1
tg223
(S'i8'
I0
I1
tRp2070
(I3
S'<'
NNNI-1
I-1
I0
tbI00
S'\x03\x00\x00\x00\x00\x00\x00\x00'
tbsa(dp2071
S'status'
p2072
I3
sS'std'
p2073
g222
(g224
S'\x00\x00\x00\x00\x00\x00\x00\x00'
tRp2074
sS'instance_durations'
p2075
g227
(g228
(I0
tS'b'
tRp2076
(I1
(I1
tg223
(S'f8'
I0
I1
tRp2077
(I3
S'<'
NNNI-1
I-1
I0
tbI00
S'\xd5x\xe9&1*\x86@'
tbsS'instance_results'
p2078
g227
(g228
(I0
tS'b'
tRp2079
(I1
(I1
tg2077
I00
S'\xcd\xcc\xcc\xcc\xcc\x8cV@'
tbsS'instance_status'
p2080
g227
(g228
(I0
tS'b'
tRp2081
(I1
(I1
tg223
(S'i8'
I0
I1
tRp2082
(I3
S'<'
NNNI-1
I-1
I0
tbI00
S'\x03\x00\x00\x00\x00\x00\x00\x00'
tbsS'params'
p2083
g237
((lp2084
(lp2085
S'-conv1_depth'
p2086
aS'489'
p2087
aa(lp2088
S'-conv2_depth'
p2089
aS'445'
p2090
aa(lp2091
S'-fc_depth'
p2092
aS'510'
p2093
aa(lp2094
S'-filter_size'
p2095
aS'14'
p2096
aatRp2097
sS'result'
p2098
g222
(g224
S'\xcd\xcc\xcc\xcc\xcc\x8cV@'
tRp2099
sS'duration'
p2100
g222
(g224
S'\xd5x\xe9&1*\x86@'
tRp2101
sS'test_error'
p2102
Fnan
sa(dp2103
S'status'
p2104
I3
sS'std'
p2105
g222
(g224
S'\x00\x00\x00\x00\x00\x00\x00\x00'
tRp2106
sS'instance_durations'
p2107
g227
(g228
(I0
tS'b'
tRp2108
(I1
(I1
tg223
(S'f8'
I0
I1
tRp2109
(I3
S'<'
NNNI-1
I-1
I0
tbI00
S']m\xc5\xfe\xb2{;@'
tbsS'instance_results'
p2110
g227
(g228
(I0
tS'b'
tRp2111
(I1
(I1
tg2109
I00
S'\xaeG\xe1z\x14nV@'
tbsS'instance_status'
p2112
g227
(g228
(I0
tS'b'
tRp2113
(I1
(I1
tg223
(S'i8'
I0
I1
tRp2114
(I3
S'<'
NNNI-1
I-1
I0
tbI00
S'\x03\x00\x00\x00\x00\x00\x00\x00'
tbsS'params'
p2115
g237
((lp2116
(lp2117
S'-conv1_depth'
p2118
aS'81'
p2119
aa(lp2120
S'-conv2_depth'
p2121
aS'4'
aa(lp2122
S'-fc_depth'
p2123
aS'485'
p2124
aa(lp2125
S'-filter_size'
p2126
aS'6'
aatRp2127
sS'result'
p2128
g222
(g224
S'\xaeG\xe1z\x14nV@'
tRp2129
sS'duration'
p2130
g222
(g224
S']m\xc5\xfe\xb2{;@'
tRp2131
sS'test_error'
p2132
Fnan
sa(dp2133
S'status'
p2134
I3
sS'std'
p2135
g222
(g224
S'\x00\x00\x00\x00\x00\x00\x00\x00'
tRp2136
sS'instance_durations'
p2137
g227
(g228
(I0
tS'b'
tRp2138
(I1
(I1
tg223
(S'f8'
I0
I1
tRp2139
(I3
S'<'
NNNI-1
I-1
I0
tbI00
S'4\xa2\xb47\xf8\x82,@'
tbsS'instance_results'
p2140
g227
(g228
(I0
tS'b'
tRp2141
(I1
(I1
tg2139
I00
S'=\n\xd7\xa3p=\x1e@'
tbsS'test_error'
p2142
Fnan
sS'params'
p2143
g237
((lp2144
(lp2145
S'-conv1_depth'
p2146
aS'31'
p2147
aa(lp2148
S'-conv2_depth'
p2149
aS'9'
aa(lp2150
S'-fc_depth'
p2151
aS'222'
p2152
aa(lp2153
S'-filter_size'
p2154
aS'1'
aatRp2155
sS'result'
p2156
g222
(g224
S'=\n\xd7\xa3p=\x1e@'
tRp2157
sS'duration'
p2158
g222
(g224
S'4\xa2\xb47\xf8\x82,@'
tRp2159
sS'instance_status'
p2160
g227
(g228
(I0
tS'b'
tRp2161
(I1
(I1
tg223
(S'i8'
I0
I1
tRp2162
(I3
S'<'
NNNI-1
I-1
I0
tbI00
S'\x03\x00\x00\x00\x00\x00\x00\x00'
tbsa(dp2163
S'status'
p2164
I3
sS'std'
p2165
g222
(g224
S'\x00\x00\x00\x00\x00\x00\x00\x00'
tRp2166
sS'instance_durations'
p2167
g227
(g228
(I0
tS'b'
tRp2168
(I1
(I1
tg223
(S'f8'
I0
I1
tRp2169
(I3
S'<'
NNNI-1
I-1
I0
tbI00
S'\x1f\xf4lV}\xce<@'
tbsS'instance_results'
p2170
g227
(g228
(I0
tS'b'
tRp2171
(I1
(I1
tg2169
I00
S'R\xb8\x1e\x85\xebQ*@'
tbsS'test_error'
p2172
Fnan
sS'params'
p2173
g237
((lp2174
(lp2175
S'-conv1_depth'
p2176
aS'5'
aa(lp2177
S'-conv2_depth'
p2178
aS'193'
p2179
aa(lp2180
S'-fc_depth'
p2181
aS'439'
p2182
aa(lp2183
S'-filter_size'
p2184
aS'1'
aatRp2185
sS'result'
p2186
g222
(g224
S'R\xb8\x1e\x85\xebQ*@'
tRp2187
sS'duration'
p2188
g222
(g224
S'\x1f\xf4lV}\xce<@'
tRp2189
sS'instance_status'
p2190
g227
(g228
(I0
tS'b'
tRp2191
(I1
(I1
tg223
(S'i8'
I0
I1
tRp2192
(I3
S'<'
NNNI-1
I-1
I0
tbI00
S'\x03\x00\x00\x00\x00\x00\x00\x00'
tbsa(dp2193
S'status'
p2194
I3
sS'std'
p2195
g222
(g224
S'\x00\x00\x00\x00\x00\x00\x00\x00'
tRp2196
sS'instance_durations'
p2197
g227
(g228
(I0
tS'b'
tRp2198
(I1
(I1
tg223
(S'f8'
I0
I1
tRp2199
(I3
S'<'
NNNI-1
I-1
I0
tbI00
S'>yX\xa85\xa5R@'
tbsS'instance_results'
p2200
g227
(g228
(I0
tS'b'
tRp2201
(I1
(I1
tg2199
I00
S'\x00\x00\x00\x00\x00\x003@'
tbsS'test_error'
p2202
Fnan
sS'params'
p2203
g237
((lp2204
(lp2205
S'-conv1_depth'
p2206
aS'501'
p2207
aa(lp2208
S'-conv2_depth'
p2209
aS'63'
p2210
aa(lp2211
S'-fc_depth'
p2212
aS'11'
p2213
aa(lp2214
S'-filter_size'
p2215
aS'1'
aatRp2216
sS'result'
p2217
g222
(g224
S'\x00\x00\x00\x00\x00\x003@'
tRp2218
sS'duration'
p2219
g222
(g224
S'>yX\xa85\xa5R@'
tRp2220
sS'instance_status'
p2221
g227
(g228
(I0
tS'b'
tRp2222
(I1
(I1
tg223
(S'i8'
I0
I1
tRp2223
(I3
S'<'
NNNI-1
I-1
I0
tbI00
S'\x03\x00\x00\x00\x00\x00\x00\x00'
tbsa(dp2224
S'status'
p2225
I3
sS'std'
p2226
g222
(g224
S'\x00\x00\x00\x00\x00\x00\x00\x00'
tRp2227
sS'instance_durations'
p2228
g227
(g228
(I0
tS'b'
tRp2229
(I1
(I1
tg223
(S'f8'
I0
I1
tRp2230
(I3
S'<'
NNNI-1
I-1
I0
tbI00
S'\x8d\x97n\x12\x83\xa0V@'
tbsS'instance_results'
p2231
g227
(g228
(I0
tS'b'
tRp2232
(I1
(I1
tg2230
I00
S'q=\n\xd7\xa3p\xf1?'
tbsS'instance_status'
p2233
g227
(g228
(I0
tS'b'
tRp2234
(I1
(I1
tg223
(S'i8'
I0
I1
tRp2235
(I3
S'<'
NNNI-1
I-1
I0
tbI00
S'\x03\x00\x00\x00\x00\x00\x00\x00'
tbsS'params'
p2236
g237
((lp2237
(lp2238
S'-conv1_depth'
p2239
aS'300'
p2240
aa(lp2241
S'-conv2_depth'
p2242
aS'206'
p2243
aa(lp2244
S'-fc_depth'
p2245
aS'503'
p2246
aa(lp2247
S'-filter_size'
p2248
aS'3'
aatRp2249
sS'result'
p2250
g222
(g224
S'q=\n\xd7\xa3p\xf1?'
tRp2251
sS'duration'
p2252
g222
(g224
S'\x8d\x97n\x12\x83\xa0V@'
tRp2253
sS'test_error'
p2254
Fnan
sa(dp2255
S'status'
p2256
I3
sS'std'
p2257
g222
(g224
S'\x00\x00\x00\x00\x00\x00\x00\x00'
tRp2258
sS'instance_durations'
p2259
g227
(g228
(I0
tS'b'
tRp2260
(I1
(I1
tg223
(S'f8'
I0
I1
tRp2261
(I3
S'<'
NNNI-1
I-1
I0
tbI00
S'P\x8d\x97n\x12\x93E@'
tbsS'instance_results'
p2262
g227
(g228
(I0
tS'b'
tRp2263
(I1
(I1
tg2261
I00
S'\\\x8f\xc2\xf5(\\\x1e@'
tbsS'test_error'
p2264
Fnan
sS'params'
p2265
g237
((lp2266
(lp2267
S'-conv1_depth'
p2268
aS'250'
p2269
aa(lp2270
S'-conv2_depth'
p2271
aS'23'
p2272
aa(lp2273
S'-fc_depth'
p2274
aS'495'
p2275
aa(lp2276
S'-filter_size'
p2277
aS'1'
aatRp2278
sS'result'
p2279
g222
(g224
S'\\\x8f\xc2\xf5(\\\x1e@'
tRp2280
sS'duration'
p2281
g222
(g224
S'P\x8d\x97n\x12\x93E@'
tRp2282
sS'instance_status'
p2283
g227
(g228
(I0
tS'b'
tRp2284
(I1
(I1
tg223
(S'i8'
I0
I1
tRp2285
(I3
S'<'
NNNI-1
I-1
I0
tbI00
S'\x03\x00\x00\x00\x00\x00\x00\x00'
tbsa(dp2286
S'status'
p2287
I3
sS'std'
p2288
g222
(g224
S'\x00\x00\x00\x00\x00\x00\x00\x00'
tRp2289
sS'instance_durations'
p2290
g227
(g228
(I0
tS'b'
tRp2291
(I1
(I1
tg223
(S'f8'
I0
I1
tRp2292
(I3
S'<'
NNNI-1
I-1
I0
tbI00
S'@\x13a\xc3\xd3wS@'
tbsS'instance_results'
p2293
g227
(g228
(I0
tS'b'
tRp2294
(I1
(I1
tg2292
I00
S'\x85\xebQ\xb8\x1e\x85\x1c@'
tbsS'instance_status'
p2295
g227
(g228
(I0
tS'b'
tRp2296
(I1
(I1
tg223
(S'i8'
I0
I1
tRp2297
(I3
S'<'
NNNI-1
I-1
I0
tbI00
S'\x03\x00\x00\x00\x00\x00\x00\x00'
tbsS'params'
p2298
g237
((lp2299
(lp2300
S'-conv1_depth'
p2301
aS'495'
p2302
aa(lp2303
S'-conv2_depth'
p2304
aS'79'
p2305
aa(lp2306
S'-fc_depth'
p2307
aS'482'
p2308
aa(lp2309
S'-filter_size'
p2310
aS'1'
aatRp2311
sS'result'
p2312
g222
(g224
S'\x85\xebQ\xb8\x1e\x85\x1c@'
tRp2313
sS'duration'
p2314
g222
(g224
S'@\x13a\xc3\xd3wS@'
tRp2315
sS'test_error'
p2316
Fnan
sa(dp2317
S'status'
p2318
I3
sS'std'
p2319
g222
(g224
S'\x00\x00\x00\x00\x00\x00\x00\x00'
tRp2320
sS'instance_durations'
p2321
g227
(g228
(I0
tS'b'
tRp2322
(I1
(I1
tg223
(S'f8'
I0
I1
tRp2323
(I3
S'<'
NNNI-1
I-1
I0
tbI00
S'\x81\x04\xc5\x8f1\xb7Q@'
tbsS'instance_results'
p2324
g227
(g228
(I0
tS'b'
tRp2325
(I1
(I1
tg2323
I00
S'\xd7\xa3p=\n\xd7%@'
tbsS'test_error'
p2326
Fnan
sS'params'
p2327
g237
((lp2328
(lp2329
S'-conv1_depth'
p2330
aS'494'
p2331
aa(lp2332
S'-conv2_depth'
p2333
aS'7'
aa(lp2334
S'-fc_depth'
p2335
aS'41'
p2336
aa(lp2337
S'-filter_size'
p2338
aS'1'
aatRp2339
sS'result'
p2340
g222
(g224
S'\xd7\xa3p=\n\xd7%@'
tRp2341
sS'duration'
p2342
g222
(g224
S'\x81\x04\xc5\x8f1\xb7Q@'
tRp2343
sS'instance_status'
p2344
g227
(g228
(I0
tS'b'
tRp2345
(I1
(I1
tg223
(S'i8'
I0
I1
tRp2346
(I3
S'<'
NNNI-1
I-1
I0
tbI00
S'\x03\x00\x00\x00\x00\x00\x00\x00'
tbsa(dp2347
S'status'
p2348
I3
sS'std'
p2349
g222
(g224
S'\x00\x00\x00\x00\x00\x00\x00\x00'
tRp2350
sS'instance_durations'
p2351
g227
(g228
(I0
tS'b'
tRp2352
(I1
(I1
tg223
(S'f8'
I0
I1
tRp2353
(I3
S'<'
NNNI-1
I-1
I0
tbI00
S'\x1dZd;\xdf\x9fV@'
tbsS'instance_results'
p2354
g227
(g228
(I0
tS'b'
tRp2355
(I1
(I1
tg2353
I00
S'ffffff\x1b@'
tbsS'instance_status'
p2356
g227
(g228
(I0
tS'b'
tRp2357
(I1
(I1
tg223
(S'i8'
I0
I1
tRp2358
(I3
S'<'
NNNI-1
I-1
I0
tbI00
S'\x03\x00\x00\x00\x00\x00\x00\x00'
tbsS'params'
p2359
g237
((lp2360
(lp2361
S'-conv1_depth'
p2362
aS'216'
p2363
aa(lp2364
S'-conv2_depth'
p2365
aS'510'
p2366
aa(lp2367
S'-fc_depth'
p2368
aS'504'
p2369
aa(lp2370
S'-filter_size'
p2371
aS'1'
aatRp2372
sS'result'
p2373
g222
(g224
S'ffffff\x1b@'
tRp2374
sS'duration'
p2375
g222
(g224
S'\x1dZd;\xdf\x9fV@'
tRp2376
sS'test_error'
p2377
Fnan
sa(dp2378
S'status'
p2379
I3
sS'std'
p2380
g222
(g224
S'\x00\x00\x00\x00\x00\x00\x00\x00'
tRp2381
sS'instance_durations'
p2382
g227
(g228
(I0
tS'b'
tRp2383
(I1
(I1
tg223
(S'f8'
I0
I1
tRp2384
(I3
S'<'
NNNI-1
I-1
I0
tbI00
S'\xc3\xf5(\\\x8f\xaaZ@'
tbsS'instance_results'
p2385
g227
(g228
(I0
tS'b'
tRp2386
(I1
(I1
tg2384
I00
S'\xd7\xa3p=\n\xd7\x1e@'
tbsS'test_error'
p2387
Fnan
sS'params'
p2388
g237
((lp2389
(lp2390
S'-conv1_depth'
p2391
aS'453'
p2392
aa(lp2393
S'-conv2_depth'
p2394
aS'478'
p2395
aa(lp2396
S'-fc_depth'
p2397
aS'207'
p2398
aa(lp2399
S'-filter_size'
p2400
aS'1'
aatRp2401
sS'result'
p2402
g222
(g224
S'\xd7\xa3p=\n\xd7\x1e@'
tRp2403
sS'duration'
p2404
g222
(g224
S'\xc3\xf5(\\\x8f\xaaZ@'
tRp2405
sS'instance_status'
p2406
g227
(g228
(I0
tS'b'
tRp2407
(I1
(I1
tg223
(S'i8'
I0
I1
tRp2408
(I3
S'<'
NNNI-1
I-1
I0
tbI00
S'\x03\x00\x00\x00\x00\x00\x00\x00'
tbsa(dp2409
S'status'
p2410
I3
sS'std'
p2411
g222
(g224
S'\x00\x00\x00\x00\x00\x00\x00\x00'
tRp2412
sS'instance_durations'
p2413
g227
(g228
(I0
tS'b'
tRp2414
(I1
(I1
tg223
(S'f8'
I0
I1
tRp2415
(I3
S'<'
NNNI-1
I-1
I0
tbI00
S'\x93\x18\x04V\x0e\xe5V@'
tbsS'instance_results'
p2416
g227
(g228
(I0
tS'b'
tRp2417
(I1
(I1
tg2415
I00
S'\xb8\x1e\x85\xebQ\xb8\x1b@'
tbsS'test_error'
p2418
Fnan
sS'params'
p2419
g237
((lp2420
(lp2421
S'-conv1_depth'
p2422
aS'506'
p2423
aa(lp2424
S'-conv2_depth'
p2425
aS'175'
p2426
aa(lp2427
S'-fc_depth'
p2428
aS'474'
p2429
aa(lp2430
S'-filter_size'
p2431
aS'1'
aatRp2432
sS'result'
p2433
g222
(g224
S'\xb8\x1e\x85\xebQ\xb8\x1b@'
tRp2434
sS'duration'
p2435
g222
(g224
S'\x93\x18\x04V\x0e\xe5V@'
tRp2436
sS'instance_status'
p2437
g227
(g228
(I0
tS'b'
tRp2438
(I1
(I1
tg223
(S'i8'
I0
I1
tRp2439
(I3
S'<'
NNNI-1
I-1
I0
tbI00
S'\x03\x00\x00\x00\x00\x00\x00\x00'
tbsa(dp2440
S'status'
p2441
I3
sS'std'
p2442
g222
(g224
S'\x00\x00\x00\x00\x00\x00\x00\x00'
tRp2443
sS'instance_durations'
p2444
g227
(g228
(I0
tS'b'
tRp2445
(I1
(I1
tg223
(S'f8'
I0
I1
tRp2446
(I3
S'<'
NNNI-1
I-1
I0
tbI00
S'Gr\xf9\x0f\xe9WU@'
tbsS'instance_results'
p2447
g227
(g228
(I0
tS'b'
tRp2448
(I1
(I1
tg2446
I00
S'\\\x8f\xc2\xf5(\\\x1b@'
tbsS'instance_status'
p2449
g227
(g228
(I0
tS'b'
tRp2450
(I1
(I1
tg223
(S'i8'
I0
I1
tRp2451
(I3
S'<'
NNNI-1
I-1
I0
tbI00
S'\x03\x00\x00\x00\x00\x00\x00\x00'
tbsS'params'
p2452
g237
((lp2453
(lp2454
S'-conv1_depth'
p2455
aS'481'
p2456
aa(lp2457
S'-conv2_depth'
p2458
aS'151'
p2459
aa(lp2460
S'-fc_depth'
p2461
aS'508'
p2462
aa(lp2463
S'-filter_size'
p2464
aS'1'
aatRp2465
sS'result'
p2466
g222
(g224
S'\\\x8f\xc2\xf5(\\\x1b@'
tRp2467
sS'duration'
p2468
g222
(g224
S'Gr\xf9\x0f\xe9WU@'
tRp2469
sS'test_error'
p2470
Fnan
sa(dp2471
S'status'
p2472
I3
sS'std'
p2473
g222
(g224
S'\x00\x00\x00\x00\x00\x00\x00\x00'
tRp2474
sS'instance_durations'
p2475
g227
(g228
(I0
tS'b'
tRp2476
(I1
(I1
tg223
(S'f8'
I0
I1
tRp2477
(I3
S'<'
NNNI-1
I-1
I0
tbI00
S"0\xbb'\x0f\x0b\x957@"
tbsS'instance_results'
p2478
g227
(g228
(I0
tS'b'
tRp2479
(I1
(I1
tg2477
I00
S'\x14\xaeG\xe1z\x14\x1f@'
tbsS'instance_status'
p2480
g227
(g228
(I0
tS'b'
tRp2481
(I1
(I1
tg223
(S'i8'
I0
I1
tRp2482
(I3
S'<'
NNNI-1
I-1
I0
tbI00
S'\x03\x00\x00\x00\x00\x00\x00\x00'
tbsS'params'
p2483
g237
((lp2484
(lp2485
S'-conv1_depth'
p2486
aS'17'
p2487
aa(lp2488
S'-conv2_depth'
p2489
aS'209'
p2490
aa(lp2491
S'-fc_depth'
p2492
aS'200'
p2493
aa(lp2494
S'-filter_size'
p2495
aS'1'
aatRp2496
sS'result'
p2497
g222
(g224
S'\x14\xaeG\xe1z\x14\x1f@'
tRp2498
sS'duration'
p2499
g222
(g224
S"0\xbb'\x0f\x0b\x957@"
tRp2500
sS'test_error'
p2501
Fnan
sa(dp2502
S'status'
p2503
I3
sS'std'
p2504
g222
(g224
S'\x00\x00\x00\x00\x00\x00\x00\x00'
tRp2505
sS'instance_durations'
p2506
g227
(g228
(I0
tS'b'
tRp2507
(I1
(I1
tg223
(S'f8'
I0
I1
tRp2508
(I3
S'<'
NNNI-1
I-1
I0
tbI00
S'\xdf\xe0\x0b\x93\xa9r0@'
tbsS'instance_results'
p2509
g227
(g228
(I0
tS'b'
tRp2510
(I1
(I1
tg2508
I00
S'\xecQ\xb8\x1e\x85\xeb\x01@'
tbsS'instance_status'
p2511
g227
(g228
(I0
tS'b'
tRp2512
(I1
(I1
tg223
(S'i8'
I0
I1
tRp2513
(I3
S'<'
NNNI-1
I-1
I0
tbI00
S'\x03\x00\x00\x00\x00\x00\x00\x00'
tbsS'params'
p2514
g237
((lp2515
(lp2516
S'-conv1_depth'
p2517
aS'1'
aa(lp2518
S'-conv2_depth'
p2519
aS'56'
p2520
aa(lp2521
S'-fc_depth'
p2522
aS'495'
p2523
aa(lp2524
S'-filter_size'
p2525
aS'3'
aatRp2526
sS'result'
p2527
g222
(g224
S'\xecQ\xb8\x1e\x85\xeb\x01@'
tRp2528
sS'duration'
p2529
g222
(g224
S'\xdf\xe0\x0b\x93\xa9r0@'
tRp2530
sS'test_error'
p2531
Fnan
sa(dp2532
S'status'
p2533
I3
sS'std'
p2534
g222
(g224
S'\x00\x00\x00\x00\x00\x00\x00\x00'
tRp2535
sS'instance_durations'
p2536
g227
(g228
(I0
tS'b'
tRp2537
(I1
(I1
tg223
(S'f8'
I0
I1
tRp2538
(I3
S'<'
NNNI-1
I-1
I0
tbI00
S'\xe7\xfb\xa9\xf1\xd2\x83z@'
tbsS'instance_results'
p2539
g227
(g228
(I0
tS'b'
tRp2540
(I1
(I1
tg2538
I00
S'\xcd\xcc\xcc\xcc\xcc\x8cV@'
tbsS'instance_status'
p2541
g227
(g228
(I0
tS'b'
tRp2542
(I1
(I1
tg223
(S'i8'
I0
I1
tRp2543
(I3
S'<'
NNNI-1
I-1
I0
tbI00
S'\x03\x00\x00\x00\x00\x00\x00\x00'
tbsS'params'
p2544
g237
((lp2545
(lp2546
S'-conv1_depth'
p2547
aS'302'
p2548
aa(lp2549
S'-conv2_depth'
p2550
aS'505'
p2551
aa(lp2552
S'-fc_depth'
p2553
aS'512'
p2554
aa(lp2555
S'-filter_size'
p2556
aS'12'
p2557
aatRp2558
sS'result'
p2559
g222
(g224
S'\xcd\xcc\xcc\xcc\xcc\x8cV@'
tRp2560
sS'duration'
p2561
g222
(g224
S'\xe7\xfb\xa9\xf1\xd2\x83z@'
tRp2562
sS'test_error'
p2563
Fnan
sa(dp2564
S'status'
p2565
I3
sS'std'
p2566
g222
(g224
S'\x00\x00\x00\x00\x00\x00\x00\x00'
tRp2567
sS'instance_durations'
p2568
g227
(g228
(I0
tS'b'
tRp2569
(I1
(I1
tg223
(S'f8'
I0
I1
tRp2570
(I3
S'<'
NNNI-1
I-1
I0
tbI00
S'\xc1\xca\xa1E\xb6\x83[@'
tbsS'instance_results'
p2571
g227
(g228
(I0
tS'b'
tRp2572
(I1
(I1
tg2570
I00
S'\x1f\x85\xebQ\xb8\x1e\x1d@'
tbsS'test_error'
p2573
Fnan
sS'params'
p2574
g237
((lp2575
(lp2576
S'-conv1_depth'
p2577
aS'474'
p2578
aa(lp2579
S'-conv2_depth'
p2580
aS'414'
p2581
aa(lp2582
S'-fc_depth'
p2583
aS'475'
p2584
aa(lp2585
S'-filter_size'
p2586
aS'1'
aatRp2587
sS'result'
p2588
g222
(g224
S'\x1f\x85\xebQ\xb8\x1e\x1d@'
tRp2589
sS'duration'
p2590
g222
(g224
S'\xc1\xca\xa1E\xb6\x83[@'
tRp2591
sS'instance_status'
p2592
g227
(g228
(I0
tS'b'
tRp2593
(I1
(I1
tg223
(S'i8'
I0
I1
tRp2594
(I3
S'<'
NNNI-1
I-1
I0
tbI00
S'\x03\x00\x00\x00\x00\x00\x00\x00'
tbsa(dp2595
S'status'
p2596
I3
sS'std'
p2597
g222
(g224
S'\x00\x00\x00\x00\x00\x00\x00\x00'
tRp2598
sS'instance_durations'
p2599
g227
(g228
(I0
tS'b'
tRp2600
(I1
(I1
tg223
(S'f8'
I0
I1
tRp2601
(I3
S'<'
NNNI-1
I-1
I0
tbI00
S'\x05\xc5\x8f1w\x89R@'
tbsS'instance_results'
p2602
g227
(g228
(I0
tS'b'
tRp2603
(I1
(I1
tg2601
I00
S'{\x14\xaeG\xe1\xba2@'
tbsS'test_error'
p2604
Fnan
sS'params'
p2605
g237
((lp2606
(lp2607
S'-conv1_depth'
p2608
aS'501'
p2609
aa(lp2610
S'-conv2_depth'
p2611
aS'63'
p2612
aa(lp2613
S'-fc_depth'
p2614
aS'11'
p2615
aa(lp2616
S'-filter_size'
p2617
aS'1'
aatRp2618
sS'result'
p2619
g222
(g224
S'{\x14\xaeG\xe1\xba2@'
tRp2620
sS'duration'
p2621
g222
(g224
S'\x05\xc5\x8f1w\x89R@'
tRp2622
sS'instance_status'
p2623
g227
(g228
(I0
tS'b'
tRp2624
(I1
(I1
tg223
(S'i8'
I0
I1
tRp2625
(I3
S'<'
NNNI-1
I-1
I0
tbI00
S'\x03\x00\x00\x00\x00\x00\x00\x00'
tbsa(dp2626
S'status'
p2627
I3
sS'std'
p2628
g222
(g224
S'\x00\x00\x00\x00\x00\x00\x00\x00'
tRp2629
sS'instance_durations'
p2630
g227
(g228
(I0
tS'b'
tRp2631
(I1
(I1
tg223
(S'f8'
I0
I1
tRp2632
(I3
S'<'
NNNI-1
I-1
I0
tbI00
S'\x88c]\xdcF\xdbL@'
tbsS'instance_results'
p2633
g227
(g228
(I0
tS'b'
tRp2634
(I1
(I1
tg2632
I00
S"\xb8\x1e\x85\xebQ8'@"
tbsS'instance_status'
p2635
g227
(g228
(I0
tS'b'
tRp2636
(I1
(I1
tg223
(S'i8'
I0
I1
tRp2637
(I3
S'<'
NNNI-1
I-1
I0
tbI00
S'\x03\x00\x00\x00\x00\x00\x00\x00'
tbsS'params'
p2638
g237
((lp2639
(lp2640
S'-conv1_depth'
p2641
aS'363'
p2642
aa(lp2643
S'-conv2_depth'
p2644
aS'56'
p2645
aa(lp2646
S'-fc_depth'
p2647
aS'27'
p2648
aa(lp2649
S'-filter_size'
p2650
aS'1'
aatRp2651
sS'result'
p2652
g222
(g224
S"\xb8\x1e\x85\xebQ8'@"
tRp2653
sS'duration'
p2654
g222
(g224
S'\x88c]\xdcF\xdbL@'
tRp2655
sS'test_error'
p2656
Fnan
sa(dp2657
S'status'
p2658
I3
sS'std'
p2659
g222
(g224
S'\x00\x00\x00\x00\x00\x00\x00\x00'
tRp2660
sS'instance_durations'
p2661
g227
(g228
(I0
tS'b'
tRp2662
(I1
(I1
tg223
(S'f8'
I0
I1
tRp2663
(I3
S'<'
NNNI-1
I-1
I0
tbI00
S'\xf0\x85\xc9T\xc1\x98P@'
tbsS'instance_results'
p2664
g227
(g228
(I0
tS'b'
tRp2665
(I1
(I1
tg2663
I00
S'\x14\xaeG\xe1z\x14\x1e@'
tbsS'instance_status'
p2666
g227
(g228
(I0
tS'b'
tRp2667
(I1
(I1
tg223
(S'i8'
I0
I1
tRp2668
(I3
S'<'
NNNI-1
I-1
I0
tbI00
S'\x03\x00\x00\x00\x00\x00\x00\x00'
tbsS'params'
p2669
g237
((lp2670
(lp2671
S'-conv1_depth'
p2672
aS'454'
p2673
aa(lp2674
S'-conv2_depth'
p2675
aS'11'
p2676
aa(lp2677
S'-fc_depth'
p2678
aS'464'
p2679
aa(lp2680
S'-filter_size'
p2681
aS'1'
aatRp2682
sS'result'
p2683
g222
(g224
S'\x14\xaeG\xe1z\x14\x1e@'
tRp2684
sS'duration'
p2685
g222
(g224
S'\xf0\x85\xc9T\xc1\x98P@'
tRp2686
sS'test_error'
p2687
Fnan
sa(dp2688
S'status'
p2689
I3
sS'std'
p2690
g222
(g224
S'\x00\x00\x00\x00\x00\x00\x00\x00'
tRp2691
sS'instance_durations'
p2692
g227
(g228
(I0
tS'b'
tRp2693
(I1
(I1
tg223
(S'f8'
I0
I1
tRp2694
(I3
S'<'
NNNI-1
I-1
I0
tbI00
S'\xb6\xf3\xfd\xd4x\x15`@'
tbsS'instance_results'
p2695
g227
(g228
(I0
tS'b'
tRp2696
(I1
(I1
tg2694
I00
S'\xe1z\x14\xaeG\xe1\xf2?'
tbsS'instance_status'
p2697
g227
(g228
(I0
tS'b'
tRp2698
(I1
(I1
tg223
(S'i8'
I0
I1
tRp2699
(I3
S'<'
NNNI-1
I-1
I0
tbI00
S'\x03\x00\x00\x00\x00\x00\x00\x00'
tbsS'params'
p2700
g237
((lp2701
(lp2702
S'-conv1_depth'
p2703
aS'512'
p2704
aa(lp2705
S'-conv2_depth'
p2706
aS'205'
p2707
aa(lp2708
S'-fc_depth'
p2709
aS'512'
p2710
aa(lp2711
S'-filter_size'
p2712
aS'3'
aatRp2713
sS'result'
p2714
g222
(g224
S'\xe1z\x14\xaeG\xe1\xf2?'
tRp2715
sS'duration'
p2716
g222
(g224
S'\xb6\xf3\xfd\xd4x\x15`@'
tRp2717
sS'test_error'
p2718
Fnan
sa(dp2719
S'status'
p2720
I3
sS'std'
p2721
g222
(g224
S'\x00\x00\x00\x00\x00\x00\x00\x00'
tRp2722
sS'instance_durations'
p2723
g227
(g228
(I0
tS'b'
tRp2724
(I1
(I1
tg223
(S'f8'
I0
I1
tRp2725
(I3
S'<'
NNNI-1
I-1
I0
tbI00
S'\xd2o_\x07\xceQL@'
tbsS'instance_results'
p2726
g227
(g228
(I0
tS'b'
tRp2727
(I1
(I1
tg2725
I00
S'{\x14\xaeG\xe1z\x1c@'
tbsS'instance_status'
p2728
g227
(g228
(I0
tS'b'
tRp2729
(I1
(I1
tg223
(S'i8'
I0
I1
tRp2730
(I3
S'<'
NNNI-1
I-1
I0
tbI00
S'\x03\x00\x00\x00\x00\x00\x00\x00'
tbsS'params'
p2731
g237
((lp2732
(lp2733
S'-conv1_depth'
p2734
aS'290'
p2735
aa(lp2736
S'-conv2_depth'
p2737
aS'137'
p2738
aa(lp2739
S'-fc_depth'
p2740
aS'333'
p2741
aa(lp2742
S'-filter_size'
p2743
aS'1'
aatRp2744
sS'result'
p2745
g222
(g224
S'{\x14\xaeG\xe1z\x1c@'
tRp2746
sS'duration'
p2747
g222
(g224
S'\xd2o_\x07\xceQL@'
tRp2748
sS'test_error'
p2749
Fnan
sa(dp2750
S'status'
p2751
I3
sS'std'
p2752
g222
(g224
S'\x00\x00\x00\x00\x00\x00\x00\x00'
tRp2753
sS'instance_durations'
p2754
g227
(g228
(I0
tS'b'
tRp2755
(I1
(I1
tg223
(S'f8'
I0
I1
tRp2756
(I3
S'<'
NNNI-1
I-1
I0
tbI00
S'\xaa\xf1\xd2Mb\xb8N@'
tbsS'instance_results'
p2757
g227
(g228
(I0
tS'b'
tRp2758
(I1
(I1
tg2756
I00
S'\n\xd7\xa3p=\n\r@'
tbsS'test_error'
p2759
Fnan
sS'params'
p2760
g237
((lp2761
(lp2762
S'-conv1_depth'
p2763
aS'323'
p2764
aa(lp2765
S'-conv2_depth'
p2766
aS'1'
aa(lp2767
S'-fc_depth'
p2768
aS'512'
p2769
aa(lp2770
S'-filter_size'
p2771
aS'3'
aatRp2772
sS'result'
p2773
g222
(g224
S'\n\xd7\xa3p=\n\r@'
tRp2774
sS'duration'
p2775
g222
(g224
S'\xaa\xf1\xd2Mb\xb8N@'
tRp2776
sS'instance_status'
p2777
g227
(g228
(I0
tS'b'
tRp2778
(I1
(I1
tg223
(S'i8'
I0
I1
tRp2779
(I3
S'<'
NNNI-1
I-1
I0
tbI00
S'\x03\x00\x00\x00\x00\x00\x00\x00'
tbsa(dp2780
S'status'
p2781
I3
sS'std'
p2782
g222
(g224
S'\x00\x00\x00\x00\x00\x00\x00\x00'
tRp2783
sS'instance_durations'
p2784
g227
(g228
(I0
tS'b'
tRp2785
(I1
(I1
tg223
(S'f8'
I0
I1
tRp2786
(I3
S'<'
NNNI-1
I-1
I0
tbI00
S'E\xd8\xf0\xf4J-R@'
tbsS'instance_results'
p2787
g227
(g228
(I0
tS'b'
tRp2788
(I1
(I1
tg2786
I00
S'{\x14\xaeG\xe1\xfa$@'
tbsS'test_error'
p2789
Fnan
sS'params'
p2790
g237
((lp2791
(lp2792
S'-conv1_depth'
p2793
aS'512'
p2794
aa(lp2795
S'-conv2_depth'
p2796
aS'1'
aa(lp2797
S'-fc_depth'
p2798
aS'52'
p2799
aa(lp2800
S'-filter_size'
p2801
aS'1'
aatRp2802
sS'result'
p2803
g222
(g224
S'{\x14\xaeG\xe1\xfa$@'
tRp2804
sS'duration'
p2805
g222
(g224
S'E\xd8\xf0\xf4J-R@'
tRp2806
sS'instance_status'
p2807
g227
(g228
(I0
tS'b'
tRp2808
(I1
(I1
tg223
(S'i8'
I0
I1
tRp2809
(I3
S'<'
NNNI-1
I-1
I0
tbI00
S'\x03\x00\x00\x00\x00\x00\x00\x00'
tbsa(dp2810
S'status'
p2811
I3
sS'std'
p2812
g222
(g224
S'\x00\x00\x00\x00\x00\x00\x00\x00'
tRp2813
sS'instance_durations'
p2814
g227
(g228
(I0
tS'b'
tRp2815
(I1
(I1
tg223
(S'f8'
I0
I1
tRp2816
(I3
S'<'
NNNI-1
I-1
I0
tbI00
S'\xe5\xd0"\xdb\xf9v`@'
tbsS'instance_results'
p2817
g227
(g228
(I0
tS'b'
tRp2818
(I1
(I1
tg2816
I00
S'\x14\xaeG\xe1z\x14\xf2?'
tbsS'instance_status'
p2819
g227
(g228
(I0
tS'b'
tRp2820
(I1
(I1
tg223
(S'i8'
I0
I1
tRp2821
(I3
S'<'
NNNI-1
I-1
I0
tbI00
S'\x03\x00\x00\x00\x00\x00\x00\x00'
tbsS'params'
p2822
g237
((lp2823
(lp2824
S'-conv1_depth'
p2825
aS'505'
p2826
aa(lp2827
S'-conv2_depth'
p2828
aS'86'
p2829
aa(lp2830
S'-fc_depth'
p2831
aS'504'
p2832
aa(lp2833
S'-filter_size'
p2834
aS'4'
aatRp2835
sS'result'
p2836
g222
(g224
S'\x14\xaeG\xe1z\x14\xf2?'
tRp2837
sS'duration'
p2838
g222
(g224
S'\xe5\xd0"\xdb\xf9v`@'
tRp2839
sS'test_error'
p2840
Fnan
sa(dp2841
S'status'
p2842
I3
sS'std'
p2843
g222
(g224
S'\x00\x00\x00\x00\x00\x00\x00\x00'
tRp2844
sS'instance_durations'
p2845
g227
(g228
(I0
tS'b'
tRp2846
(I1
(I1
tg223
(S'f8'
I0
I1
tRp2847
(I3
S'<'
NNNI-1
I-1
I0
tbI00
S'7\x89A`\xe5\x80;@'
tbsS'instance_results'
p2848
g227
(g228
(I0
tS'b'
tRp2849
(I1
(I1
tg2847
I00
S'\x1f\x85\xebQ\xb8\x1e\x01@'
tbsS'test_error'
p2850
Fnan
sS'params'
p2851
g237
((lp2852
(lp2853
S'-conv1_depth'
p2854
aS'2'
aa(lp2855
S'-conv2_depth'
p2856
aS'195'
p2857
aa(lp2858
S'-fc_depth'
p2859
aS'341'
p2860
aa(lp2861
S'-filter_size'
p2862
aS'7'
aatRp2863
sS'result'
p2864
g222
(g224
S'\x1f\x85\xebQ\xb8\x1e\x01@'
tRp2865
sS'duration'
p2866
g222
(g224
S'7\x89A`\xe5\x80;@'
tRp2867
sS'instance_status'
p2868
g227
(g228
(I0
tS'b'
tRp2869
(I1
(I1
tg223
(S'i8'
I0
I1
tRp2870
(I3
S'<'
NNNI-1
I-1
I0
tbI00
S'\x03\x00\x00\x00\x00\x00\x00\x00'
tbsa(dp2871
S'status'
p2872
I3
sS'std'
p2873
g222
(g224
S'\x00\x00\x00\x00\x00\x00\x00\x00'
tRp2874
sS'instance_durations'
p2875
g227
(g228
(I0
tS'b'
tRp2876
(I1
(I1
tg223
(S'f8'
I0
I1
tRp2877
(I3
S'<'
NNNI-1
I-1
I0
tbI00
S'\xb3{\xf2\xb0P\xfb:@'
tbsS'instance_results'
p2878
g227
(g228
(I0
tS'b'
tRp2879
(I1
(I1
tg2877
I00
S'{\x14\xaeG\xe1z\x08@'
tbsS'test_error'
p2880
Fnan
sS'params'
p2881
g237
((lp2882
(lp2883
S'-conv1_depth'
p2884
aS'63'
p2885
aa(lp2886
S'-conv2_depth'
p2887
aS'3'
aa(lp2888
S'-fc_depth'
p2889
aS'20'
p2890
aa(lp2891
S'-filter_size'
p2892
aS'12'
p2893
aatRp2894
sS'result'
p2895
g222
(g224
S'{\x14\xaeG\xe1z\x08@'
tRp2896
sS'duration'
p2897
g222
(g224
S'\xb3{\xf2\xb0P\xfb:@'
tRp2898
sS'instance_status'
p2899
g227
(g228
(I0
tS'b'
tRp2900
(I1
(I1
tg223
(S'i8'
I0
I1
tRp2901
(I3
S'<'
NNNI-1
I-1
I0
tbI00
S'\x03\x00\x00\x00\x00\x00\x00\x00'
tbsa(dp2902
S'status'
p2903
I3
sS'std'
p2904
g222
(g224
S'\x00\x00\x00\x00\x00\x00\x00\x00'
tRp2905
sS'instance_durations'
p2906
g227
(g228
(I0
tS'b'
tRp2907
(I1
(I1
tg223
(S'f8'
I0
I1
tRp2908
(I3
S'<'
NNNI-1
I-1
I0
tbI00
S'\xf4lV}\xae\xe60@'
tbsS'instance_results'
p2909
g227
(g228
(I0
tS'b'
tRp2910
(I1
(I1
tg2908
I00
S'\x85\xebQ\xb8\x1e\x85\xff?'
tbsS'instance_status'
p2911
g227
(g228
(I0
tS'b'
tRp2912
(I1
(I1
tg223
(S'i8'
I0
I1
tRp2913
(I3
S'<'
NNNI-1
I-1
I0
tbI00
S'\x03\x00\x00\x00\x00\x00\x00\x00'
tbsS'params'
p2914
g237
((lp2915
(lp2916
S'-conv1_depth'
p2917
aS'5'
aa(lp2918
S'-conv2_depth'
p2919
aS'16'
p2920
aa(lp2921
S'-fc_depth'
p2922
aS'33'
p2923
aa(lp2924
S'-filter_size'
p2925
aS'13'
p2926
aatRp2927
sS'result'
p2928
g222
(g224
S'\x85\xebQ\xb8\x1e\x85\xff?'
tRp2929
sS'duration'
p2930
g222
(g224
S'\xf4lV}\xae\xe60@'
tRp2931
sS'test_error'
p2932
Fnan
sa(dp2933
S'status'
p2934
I3
sS'std'
p2935
g222
(g224
S'\x00\x00\x00\x00\x00\x00\x00\x00'
tRp2936
sS'instance_durations'
p2937
g227
(g228
(I0
tS'b'
tRp2938
(I1
(I1
tg223
(S'f8'
I0
I1
tRp2939
(I3
S'<'
NNNI-1
I-1
I0
tbI00
S'-!\x1f\xf4l&I@'
tbsS'instance_results'
p2940
g227
(g228
(I0
tS'b'
tRp2941
(I1
(I1
tg2939
I00
S'\xf6(\\\x8f\xc2\x85R@'
tbsS'instance_status'
p2942
g227
(g228
(I0
tS'b'
tRp2943
(I1
(I1
tg223
(S'i8'
I0
I1
tRp2944
(I3
S'<'
NNNI-1
I-1
I0
tbI00
S'\x03\x00\x00\x00\x00\x00\x00\x00'
tbsS'params'
p2945
g237
((lp2946
(lp2947
S'-conv1_depth'
p2948
aS'322'
p2949
aa(lp2950
S'-conv2_depth'
p2951
aS'1'
aa(lp2952
S'-fc_depth'
p2953
aS'1'
aa(lp2954
S'-filter_size'
p2955
aS'1'
aatRp2956
sS'result'
p2957
g222
(g224
S'\xf6(\\\x8f\xc2\x85R@'
tRp2958
sS'duration'
p2959
g222
(g224
S'-!\x1f\xf4l&I@'
tRp2960
sS'test_error'
p2961
Fnan
sa(dp2962
S'status'
p2963
I3
sS'std'
p2964
g222
(g224
S'\x00\x00\x00\x00\x00\x00\x00\x00'
tRp2965
sS'instance_durations'
p2966
g227
(g228
(I0
tS'b'
tRp2967
(I1
(I1
tg223
(S'f8'
I0
I1
tRp2968
(I3
S'<'
NNNI-1
I-1
I0
tbI00
S'\xab\xcf\xd5V\xecO3@'
tbsS'instance_results'
p2969
g227
(g228
(I0
tS'b'
tRp2970
(I1
(I1
tg2968
I00
S'\xaeG\xe1z\x14nV@'
tbsS'instance_status'
p2971
g227
(g228
(I0
tS'b'
tRp2972
(I1
(I1
tg223
(S'i8'
I0
I1
tRp2973
(I3
S'<'
NNNI-1
I-1
I0
tbI00
S'\x03\x00\x00\x00\x00\x00\x00\x00'
tbsS'params'
p2974
g237
((lp2975
(lp2976
S'-conv1_depth'
p2977
aS'15'
p2978
aa(lp2979
S'-conv2_depth'
p2980
aS'217'
p2981
aa(lp2982
S'-fc_depth'
p2983
aS'27'
p2984
aa(lp2985
S'-filter_size'
p2986
aS'1'
aatRp2987
sS'result'
p2988
g222
(g224
S'\xaeG\xe1z\x14nV@'
tRp2989
sS'duration'
p2990
g222
(g224
S'\xab\xcf\xd5V\xecO3@'
tRp2991
sS'test_error'
p2992
Fnan
sa(dp2993
S'status'
p2994
I3
sS'std'
p2995
g222
(g224
S'\x00\x00\x00\x00\x00\x00\x00\x00'
tRp2996
sS'instance_durations'
p2997
g227
(g228
(I0
tS'b'
tRp2998
(I1
(I1
tg223
(S'f8'
I0
I1
tRp2999
(I3
S'<'
NNNI-1
I-1
I0
tbI00
S'\xb3\x0cq\xac\x8b{3@'
tbsS'instance_results'
p3000
g227
(g228
(I0
tS'b'
tRp3001
(I1
(I1
tg2999
I00
S'R\xb8\x1e\x85\xebQ\x00@'
tbsS'instance_status'
p3002
g227
(g228
(I0
tS'b'
tRp3003
(I1
(I1
tg223
(S'i8'
I0
I1
tRp3004
(I3
S'<'
NNNI-1
I-1
I0
tbI00
S'\x03\x00\x00\x00\x00\x00\x00\x00'
tbsS'params'
p3005
g237
((lp3006
(lp3007
S'-conv1_depth'
p3008
aS'21'
p3009
aa(lp3010
S'-conv2_depth'
p3011
aS'4'
aa(lp3012
S'-fc_depth'
p3013
aS'147'
p3014
aa(lp3015
S'-filter_size'
p3016
aS'14'
p3017
aatRp3018
sS'result'
p3019
g222
(g224
S'R\xb8\x1e\x85\xebQ\x00@'
tRp3020
sS'duration'
p3021
g222
(g224
S'\xb3\x0cq\xac\x8b{3@'
tRp3022
sS'test_error'
p3023
Fnan
sa(dp3024
S'status'
p3025
I3
sS'std'
p3026
g222
(g224
S'\x00\x00\x00\x00\x00\x00\x00\x00'
tRp3027
sS'instance_durations'
p3028
g227
(g228
(I0
tS'b'
tRp3029
(I1
(I1
tg223
(S'f8'
I0
I1
tRp3030
(I3
S'<'
NNNI-1
I-1
I0
tbI00
S'*:\x92\xcb\x7fX1@'
tbsS'instance_results'
p3031
g227
(g228
(I0
tS'b'
tRp3032
(I1
(I1
tg3030
I00
S'333333\x1d@'
tbsS'test_error'
p3033
Fnan
sS'params'
p3034
g237
((lp3035
(lp3036
S'-conv1_depth'
p3037
aS'52'
p3038
aa(lp3039
S'-conv2_depth'
p3040
aS'15'
p3041
aa(lp3042
S'-fc_depth'
p3043
aS'334'
p3044
aa(lp3045
S'-filter_size'
p3046
aS'1'
aatRp3047
sS'result'
p3048
g222
(g224
S'333333\x1d@'
tRp3049
sS'duration'
p3050
g222
(g224
S'*:\x92\xcb\x7fX1@'
tRp3051
sS'instance_status'
p3052
g227
(g228
(I0
tS'b'
tRp3053
(I1
(I1
tg223
(S'i8'
I0
I1
tRp3054
(I3
S'<'
NNNI-1
I-1
I0
tbI00
S'\x03\x00\x00\x00\x00\x00\x00\x00'
tbsa(dp3055
S'status'
p3056
I3
sS'std'
p3057
g222
(g224
S'\x00\x00\x00\x00\x00\x00\x00\x00'
tRp3058
sS'instance_durations'
p3059
g227
(g228
(I0
tS'b'
tRp3060
(I1
(I1
tg223
(S'f8'
I0
I1
tRp3061
(I3
S'<'
NNNI-1
I-1
I0
tbI00
S'\xb4\xc8v\xbe\x9f\x95\x87@'
tbsS'instance_results'
p3062
g227
(g228
(I0
tS'b'
tRp3063
(I1
(I1
tg3061
I00
S'\xcd\xcc\xcc\xcc\xcc\x8cV@'
tbsS'test_error'
p3064
Fnan
sS'params'
p3065
g237
((lp3066
(lp3067
S'-conv1_depth'
p3068
aS'506'
p3069
aa(lp3070
S'-conv2_depth'
p3071
aS'500'
p3072
aa(lp3073
S'-fc_depth'
p3074
aS'482'
p3075
aa(lp3076
S'-filter_size'
p3077
aS'13'
p3078
aatRp3079
sS'result'
p3080
g222
(g224
S'\xcd\xcc\xcc\xcc\xcc\x8cV@'
tRp3081
sS'duration'
p3082
g222
(g224
S'\xb4\xc8v\xbe\x9f\x95\x87@'
tRp3083
sS'instance_status'
p3084
g227
(g228
(I0
tS'b'
tRp3085
(I1
(I1
tg223
(S'i8'
I0
I1
tRp3086
(I3
S'<'
NNNI-1
I-1
I0
tbI00
S'\x03\x00\x00\x00\x00\x00\x00\x00'
tbsa(dp3087
S'status'
p3088
I3
sS'std'
p3089
g222
(g224
S'\x00\x00\x00\x00\x00\x00\x00\x00'
tRp3090
sS'instance_durations'
p3091
g227
(g228
(I0
tS'b'
tRp3092
(I1
(I1
tg223
(S'f8'
I0
I1
tRp3093
(I3
S'<'
NNNI-1
I-1
I0
tbI00
S'fffff\x061@'
tbsS'instance_results'
p3094
g227
(g228
(I0
tS'b'
tRp3095
(I1
(I1
tg3093
I00
S'\xcd\xcc\xcc\xcc\xcc\xcc\x00@'
tbsS'test_error'
p3096
Fnan
sS'params'
p3097
g237
((lp3098
(lp3099
S'-conv1_depth'
p3100
aS'7'
aa(lp3101
S'-conv2_depth'
p3102
aS'5'
aa(lp3103
S'-fc_depth'
p3104
aS'328'
p3105
aa(lp3106
S'-filter_size'
p3107
aS'14'
p3108
aatRp3109
sS'result'
p3110
g222
(g224
S'\xcd\xcc\xcc\xcc\xcc\xcc\x00@'
tRp3111
sS'duration'
p3112
g222
(g224
S'fffff\x061@'
tRp3113
sS'instance_status'
p3114
g227
(g228
(I0
tS'b'
tRp3115
(I1
(I1
tg223
(S'i8'
I0
I1
tRp3116
(I3
S'<'
NNNI-1
I-1
I0
tbI00
S'\x03\x00\x00\x00\x00\x00\x00\x00'
tbsa(dp3117
S'status'
p3118
I3
sS'std'
p3119
g222
(g224
S'\x00\x00\x00\x00\x00\x00\x00\x00'
tRp3120
sS'instance_durations'
p3121
g227
(g228
(I0
tS'b'
tRp3122
(I1
(I1
tg223
(S'f8'
I0
I1
tRp3123
(I3
S'<'
NNNI-1
I-1
I0
tbI00
S'y\xe9&1\x08\x0c2@'
tbsS'instance_results'
p3124
g227
(g228
(I0
tS'b'
tRp3125
(I1
(I1
tg3123
I00
S'\x85\xebQ\xb8\x1e\x85\xff?'
tbsS'instance_status'
p3126
g227
(g228
(I0
tS'b'
tRp3127
(I1
(I1
tg223
(S'i8'
I0
I1
tRp3128
(I3
S'<'
NNNI-1
I-1
I0
tbI00
S'\x03\x00\x00\x00\x00\x00\x00\x00'
tbsS'params'
p3129
g237
((lp3130
(lp3131
S'-conv1_depth'
p3132
aS'11'
p3133
aa(lp3134
S'-conv2_depth'
p3135
aS'12'
p3136
aa(lp3137
S'-fc_depth'
p3138
aS'80'
p3139
aa(lp3140
S'-filter_size'
p3141
aS'14'
p3142
aatRp3143
sS'result'
p3144
g222
(g224
S'\x85\xebQ\xb8\x1e\x85\xff?'
tRp3145
sS'duration'
p3146
g222
(g224
S'y\xe9&1\x08\x0c2@'
tRp3147
sS'test_error'
p3148
Fnan
sa(dp3149
S'status'
p3150
I3
sS'std'
p3151
g222
(g224
S'\x00\x00\x00\x00\x00\x00\x00\x00'
tRp3152
sS'instance_durations'
p3153
g227
(g228
(I0
tS'b'
tRp3154
(I1
(I1
tg223
(S'f8'
I0
I1
tRp3155
(I3
S'<'
NNNI-1
I-1
I0
tbI00
S'\xce\x19Q\xda\x1b\xa4V@'
tbsS'instance_results'
p3156
g227
(g228
(I0
tS'b'
tRp3157
(I1
(I1
tg3155
I00
S'\x8f\xc2\xf5(\\\x8f\x1b@'
tbsS'instance_status'
p3158
g227
(g228
(I0
tS'b'
tRp3159
(I1
(I1
tg223
(S'i8'
I0
I1
tRp3160
(I3
S'<'
NNNI-1
I-1
I0
tbI00
S'\x03\x00\x00\x00\x00\x00\x00\x00'
tbsS'params'
p3161
g237
((lp3162
(lp3163
S'-conv1_depth'
p3164
aS'216'
p3165
aa(lp3166
S'-conv2_depth'
p3167
aS'510'
p3168
aa(lp3169
S'-fc_depth'
p3170
aS'504'
p3171
aa(lp3172
S'-filter_size'
p3173
aS'1'
aatRp3174
sS'result'
p3175
g222
(g224
S'\x8f\xc2\xf5(\\\x8f\x1b@'
tRp3176
sS'duration'
p3177
g222
(g224
S'\xce\x19Q\xda\x1b\xa4V@'
tRp3178
sS'test_error'
p3179
Fnan
sa(dp3180
S'status'
p3181
I3
sS'std'
p3182
g222
(g224
S'\x00\x00\x00\x00\x00\x00\x00\x00'
tRp3183
sS'instance_durations'
p3184
g227
(g228
(I0
tS'b'
tRp3185
(I1
(I1
tg223
(S'f8'
I0
I1
tRp3186
(I3
S'<'
NNNI-1
I-1
I0
tbI00
S'\nh"lxBM@'
tbsS'instance_results'
p3187
g227
(g228
(I0
tS'b'
tRp3188
(I1
(I1
tg3186
I00
S'\\\x8f\xc2\xf5(\\\x1e@'
tbsS'test_error'
p3189
Fnan
sS'params'
p3190
g237
((lp3191
(lp3192
S'-conv1_depth'
p3193
aS'237'
p3194
aa(lp3195
S'-conv2_depth'
p3196
aS'203'
p3197
aa(lp3198
S'-fc_depth'
p3199
aS'352'
p3200
aa(lp3201
S'-filter_size'
p3202
aS'1'
aatRp3203
sS'result'
p3204
g222
(g224
S'\\\x8f\xc2\xf5(\\\x1e@'
tRp3205
sS'duration'
p3206
g222
(g224
S'\nh"lxBM@'
tRp3207
sS'instance_status'
p3208
g227
(g228
(I0
tS'b'
tRp3209
(I1
(I1
tg223
(S'i8'
I0
I1
tRp3210
(I3
S'<'
NNNI-1
I-1
I0
tbI00
S'\x03\x00\x00\x00\x00\x00\x00\x00'
tbsa(dp3211
S'status'
p3212
I3
sS'std'
p3213
g222
(g224
S'\x00\x00\x00\x00\x00\x00\x00\x00'
tRp3214
sS'instance_durations'
p3215
g227
(g228
(I0
tS'b'
tRp3216
(I1
(I1
tg223
(S'f8'
I0
I1
tRp3217
(I3
S'<'
NNNI-1
I-1
I0
tbI00
S'\xd5x\xe9&1hk@'
tbsS'instance_results'
p3218
g227
(g228
(I0
tS'b'
tRp3219
(I1
(I1
tg3217
I00
S'\xaeG\xe1z\x14nV@'
tbsS'instance_status'
p3220
g227
(g228
(I0
tS'b'
tRp3221
(I1
(I1
tg223
(S'i8'
I0
I1
tRp3222
(I3
S'<'
NNNI-1
I-1
I0
tbI00
S'\x03\x00\x00\x00\x00\x00\x00\x00'
tbsS'params'
p3223
g237
((lp3224
(lp3225
S'-conv1_depth'
p3226
aS'495'
p3227
aa(lp3228
S'-conv2_depth'
p3229
aS'94'
p3230
aa(lp3231
S'-fc_depth'
p3232
aS'3'
aa(lp3233
S'-filter_size'
p3234
aS'14'
p3235
aatRp3236
sS'result'
p3237
g222
(g224
S'\xaeG\xe1z\x14nV@'
tRp3238
sS'duration'
p3239
g222
(g224
S'\xd5x\xe9&1hk@'
tRp3240
sS'test_error'
p3241
Fnan
sa(dp3242
S'status'
p3243
I3
sS'std'
p3244
g222
(g224
S'\x00\x00\x00\x00\x00\x00\x00\x00'
tRp3245
sS'instance_durations'
p3246
g227
(g228
(I0
tS'b'
tRp3247
(I1
(I1
tg223
(S'f8'
I0
I1
tRp3248
(I3
S'<'
NNNI-1
I-1
I0
tbI00
S'\x08\xac\x1cZd\xafg@'
tbsS'instance_results'
p3249
g227
(g228
(I0
tS'b'
tRp3250
(I1
(I1
tg3248
I00
S'ffffff\xf6?'
tbsS'instance_status'
p3251
g227
(g228
(I0
tS'b'
tRp3252
(I1
(I1
tg223
(S'i8'
I0
I1
tRp3253
(I3
S'<'
NNNI-1
I-1
I0
tbI00
S'\x03\x00\x00\x00\x00\x00\x00\x00'
tbsS'params'
p3254
g237
((lp3255
(lp3256
S'-conv1_depth'
p3257
aS'502'
p3258
aa(lp3259
S'-conv2_depth'
p3260
aS'396'
p3261
aa(lp3262
S'-fc_depth'
p3263
aS'512'
p3264
aa(lp3265
S'-filter_size'
p3266
aS'3'
aatRp3267
sS'result'
p3268
g222
(g224
S'ffffff\xf6?'
tRp3269
sS'duration'
p3270
g222
(g224
S'\x08\xac\x1cZd\xafg@'
tRp3271
sS'test_error'
p3272
Fnan
sa(dp3273
S'status'
p3274
I3
sS'std'
p3275
g222
(g224
S'\x00\x00\x00\x00\x00\x00\x00\x00'
tRp3276
sS'instance_durations'
p3277
g227
(g228
(I0
tS'b'
tRp3278
(I1
(I1
tg223
(S'f8'
I0
I1
tRp3279
(I3
S'<'
NNNI-1
I-1
I0
tbI00
S'\xd9_vO\x1e\x1eV@'
tbsS'instance_results'
p3280
g227
(g228
(I0
tS'b'
tRp3281
(I1
(I1
tg3279
I00
S'\x9a\x99\x99\x99\x99\x99\x0f@'
tbsS'test_error'
p3282
Fnan
sS'params'
p3283
g237
((lp3284
(lp3285
S'-conv1_depth'
p3286
aS'512'
p3287
aa(lp3288
S'-conv2_depth'
p3289
aS'1'
aa(lp3290
S'-fc_depth'
p3291
aS'512'
p3292
aa(lp3293
S'-filter_size'
p3294
aS'3'
aatRp3295
sS'result'
p3296
g222
(g224
S'\x9a\x99\x99\x99\x99\x99\x0f@'
tRp3297
sS'duration'
p3298
g222
(g224
S'\xd9_vO\x1e\x1eV@'
tRp3299
sS'instance_status'
p3300
g227
(g228
(I0
tS'b'
tRp3301
(I1
(I1
tg223
(S'i8'
I0
I1
tRp3302
(I3
S'<'
NNNI-1
I-1
I0
tbI00
S'\x03\x00\x00\x00\x00\x00\x00\x00'
tbsa(dp3303
S'status'
p3304
I3
sS'std'
p3305
g222
(g224
S'\x00\x00\x00\x00\x00\x00\x00\x00'
tRp3306
sS'instance_durations'
p3307
g227
(g228
(I0
tS'b'
tRp3308
(I1
(I1
tg223
(S'f8'
I0
I1
tRp3309
(I3
S'<'
NNNI-1
I-1
I0
tbI00
S'\x97\xff\x90~\xfbJV@'
tbsS'instance_results'
p3310
g227
(g228
(I0
tS'b'
tRp3311
(I1
(I1
tg3309
I00
S'\x8f\xc2\xf5(\\\x8f\x0e@'
tbsS'instance_status'
p3312
g227
(g228
(I0
tS'b'
tRp3313
(I1
(I1
tg223
(S'i8'
I0
I1
tRp3314
(I3
S'<'
NNNI-1
I-1
I0
tbI00
S'\x03\x00\x00\x00\x00\x00\x00\x00'
tbsS'params'
p3315
g237
((lp3316
(lp3317
S'-conv1_depth'
p3318
aS'510'
p3319
aa(lp3320
S'-conv2_depth'
p3321
aS'1'
aa(lp3322
S'-fc_depth'
p3323
aS'347'
p3324
aa(lp3325
S'-filter_size'
p3326
aS'3'
aatRp3327
sS'result'
p3328
g222
(g224
S'\x8f\xc2\xf5(\\\x8f\x0e@'
tRp3329
sS'duration'
p3330
g222
(g224
S'\x97\xff\x90~\xfbJV@'
tRp3331
sS'test_error'
p3332
Fnan
sa(dp3333
S'status'
p3334
I3
sS'std'
p3335
g222
(g224
S'\x00\x00\x00\x00\x00\x00\x00\x00'
tRp3336
sS'instance_durations'
p3337
g227
(g228
(I0
tS'b'
tRp3338
(I1
(I1
tg223
(S'f8'
I0
I1
tRp3339
(I3
S'<'
NNNI-1
I-1
I0
tbI00
S'\x7fj\xbct\x93\xe82@'
tbsS'instance_results'
p3340
g227
(g228
(I0
tS'b'
tRp3341
(I1
(I1
tg3339
I00
S'\xaeG\xe1z\x14nV@'
tbsS'instance_status'
p3342
g227
(g228
(I0
tS'b'
tRp3343
(I1
(I1
tg223
(S'i8'
I0
I1
tRp3344
(I3
S'<'
NNNI-1
I-1
I0
tbI00
S'\x03\x00\x00\x00\x00\x00\x00\x00'
tbsS'params'
p3345
g237
((lp3346
(lp3347
S'-conv1_depth'
p3348
aS'23'
p3349
aa(lp3350
S'-conv2_depth'
p3351
aS'9'
aa(lp3352
S'-fc_depth'
p3353
aS'502'
p3354
aa(lp3355
S'-filter_size'
p3356
aS'11'
p3357
aatRp3358
sS'result'
p3359
g222
(g224
S'\xaeG\xe1z\x14nV@'
tRp3360
sS'duration'
p3361
g222
(g224
S'\x7fj\xbct\x93\xe82@'
tRp3362
sS'test_error'
p3363
Fnan
sa(dp3364
S'status'
p3365
I3
sS'std'
p3366
g222
(g224
S'\x00\x00\x00\x00\x00\x00\x00\x00'
tRp3367
sS'instance_durations'
p3368
g227
(g228
(I0
tS'b'
tRp3369
(I1
(I1
tg223
(S'f8'
I0
I1
tRp3370
(I3
S'<'
NNNI-1
I-1
I0
tbI00
S'\x17\xd9\xce\xf7S\xf3<@'
tbsS'instance_results'
p3371
g227
(g228
(I0
tS'b'
tRp3372
(I1
(I1
tg3370
I00
S'R\xb8\x1e\x85\xebQ\x1b@'
tbsS'test_error'
p3373
Fnan
sS'params'
p3374
g237
((lp3375
(lp3376
S'-conv1_depth'
p3377
aS'21'
p3378
aa(lp3379
S'-conv2_depth'
p3380
aS'169'
p3381
aa(lp3382
S'-fc_depth'
p3383
aS'498'
p3384
aa(lp3385
S'-filter_size'
p3386
aS'1'
aatRp3387
sS'result'
p3388
g222
(g224
S'R\xb8\x1e\x85\xebQ\x1b@'
tRp3389
sS'duration'
p3390
g222
(g224
S'\x17\xd9\xce\xf7S\xf3<@'
tRp3391
sS'instance_status'
p3392
g227
(g228
(I0
tS'b'
tRp3393
(I1
(I1
tg223
(S'i8'
I0
I1
tRp3394
(I3
S'<'
NNNI-1
I-1
I0
tbI00
S'\x03\x00\x00\x00\x00\x00\x00\x00'
tbsa(dp3395
S'status'
p3396
I3
sS'std'
p3397
g222
(g224
S'\x00\x00\x00\x00\x00\x00\x00\x00'
tRp3398
sS'instance_durations'
p3399
g227
(g228
(I0
tS'b'
tRp3400
(I1
(I1
tg223
(S'f8'
I0
I1
tRp3401
(I3
S'<'
NNNI-1
I-1
I0
tbI00
S'{\x83/L\xa6\xa2H@'
tbsS'instance_results'
p3402
g227
(g228
(I0
tS'b'
tRp3403
(I1
(I1
tg3401
I00
S'\xf6(\\\x8f\xc2\xf5\x1c@'
tbsS'test_error'
p3404
Fnan
sS'params'
p3405
g237
((lp3406
(lp3407
S'-conv1_depth'
p3408
aS'311'
p3409
aa(lp3410
S'-conv2_depth'
p3411
aS'3'
aa(lp3412
S'-fc_depth'
p3413
aS'397'
p3414
aa(lp3415
S'-filter_size'
p3416
aS'1'
aatRp3417
sS'result'
p3418
g222
(g224
S'\xf6(\\\x8f\xc2\xf5\x1c@'
tRp3419
sS'duration'
p3420
g222
(g224
S'{\x83/L\xa6\xa2H@'
tRp3421
sS'instance_status'
p3422
g227
(g228
(I0
tS'b'
tRp3423
(I1
(I1
tg223
(S'i8'
I0
I1
tRp3424
(I3
S'<'
NNNI-1
I-1
I0
tbI00
S'\x03\x00\x00\x00\x00\x00\x00\x00'
tbsa(dp3425
S'status'
p3426
I3
sS'std'
p3427
g222
(g224
S'\x00\x00\x00\x00\x00\x00\x00\x00'
tRp3428
sS'instance_durations'
p3429
g227
(g228
(I0
tS'b'
tRp3430
(I1
(I1
tg223
(S'f8'
I0
I1
tRp3431
(I3
S'<'
NNNI-1
I-1
I0
tbI00
S'\xa7y\xc7):vT@'
tbsS'instance_results'
p3432
g227
(g228
(I0
tS'b'
tRp3433
(I1
(I1
tg3431
I00
S'\x00\x00\x00\x00\x00\x00\x1c@'
tbsS'instance_status'
p3434
g227
(g228
(I0
tS'b'
tRp3435
(I1
(I1
tg223
(S'i8'
I0
I1
tRp3436
(I3
S'<'
NNNI-1
I-1
I0
tbI00
S'\x03\x00\x00\x00\x00\x00\x00\x00'
tbsS'params'
p3437
g237
((lp3438
(lp3439
S'-conv1_depth'
p3440
aS'499'
p3441
aa(lp3442
S'-conv2_depth'
p3443
aS'123'
p3444
aa(lp3445
S'-fc_depth'
p3446
aS'438'
p3447
aa(lp3448
S'-filter_size'
p3449
aS'1'
aatRp3450
sS'result'
p3451
g222
(g224
S'\x00\x00\x00\x00\x00\x00\x1c@'
tRp3452
sS'duration'
p3453
g222
(g224
S'\xa7y\xc7):vT@'
tRp3454
sS'test_error'
p3455
Fnan
sa(dp3456
S'status'
p3457
I3
sS'std'
p3458
g222
(g224
S'\x00\x00\x00\x00\x00\x00\x00\x00'
tRp3459
sS'instance_durations'
p3460
g227
(g228
(I0
tS'b'
tRp3461
(I1
(I1
tg223
(S'f8'
I0
I1
tRp3462
(I3
S'<'
NNNI-1
I-1
I0
tbI00
S'\x8d\x97n\x12\x83\x14e@'
tbsS'instance_results'
p3463
g227
(g228
(I0
tS'b'
tRp3464
(I1
(I1
tg3462
I00
S'\xd7\xa3p=\n\xd7\xf7?'
tbsS'instance_status'
p3465
g227
(g228
(I0
tS'b'
tRp3466
(I1
(I1
tg223
(S'i8'
I0
I1
tRp3467
(I3
S'<'
NNNI-1
I-1
I0
tbI00
S'\x03\x00\x00\x00\x00\x00\x00\x00'
tbsS'params'
p3468
g237
((lp3469
(lp3470
S'-conv1_depth'
p3471
aS'365'
p3472
aa(lp3473
S'-conv2_depth'
p3474
aS'162'
p3475
aa(lp3476
S'-fc_depth'
p3477
aS'325'
p3478
aa(lp3479
S'-filter_size'
p3480
aS'6'
aatRp3481
sS'result'
p3482
g222
(g224
S'\xd7\xa3p=\n\xd7\xf7?'
tRp3483
sS'duration'
p3484
g222
(g224
S'\x8d\x97n\x12\x83\x14e@'
tRp3485
sS'test_error'
p3486
Fnan
sa(dp3487
S'status'
p3488
I3
sS'std'
p3489
g222
(g224
S'\x00\x00\x00\x00\x00\x00\x00\x00'
tRp3490
sS'instance_durations'
p3491
g227
(g228
(I0
tS'b'
tRp3492
(I1
(I1
tg223
(S'f8'
I0
I1
tRp3493
(I3
S'<'
NNNI-1
I-1
I0
tbI00
S'\x14\xaeG\xe1z\x14g@'
tbsS'instance_results'
p3494
g227
(g228
(I0
tS'b'
tRp3495
(I1
(I1
tg3493
I00
S'q=\n\xd7\xa3p\xf1?'
tbsS'test_error'
p3496
Fnan
sS'params'
p3497
g237
((lp3498
(lp3499
S'-conv1_depth'
p3500
aS'512'
p3501
aa(lp3502
S'-conv2_depth'
p3503
aS'220'
p3504
aa(lp3505
S'-fc_depth'
p3506
aS'278'
p3507
aa(lp3508
S'-filter_size'
p3509
aS'4'
aatRp3510
sS'result'
p3511
g222
(g224
S'q=\n\xd7\xa3p\xf1?'
tRp3512
sS'duration'
p3513
g222
(g224
S'\x14\xaeG\xe1z\x14g@'
tRp3514
sS'instance_status'
p3515
g227
(g228
(I0
tS'b'
tRp3516
(I1
(I1
tg223
(S'i8'
I0
I1
tRp3517
(I3
S'<'
NNNI-1
I-1
I0
tbI00
S'\x03\x00\x00\x00\x00\x00\x00\x00'
tbsa(dp3518
S'status'
p3519
I3
sS'std'
p3520
g222
(g224
S'\x00\x00\x00\x00\x00\x00\x00\x00'
tRp3521
sS'instance_durations'
p3522
g227
(g228
(I0
tS'b'
tRp3523
(I1
(I1
tg223
(S'f8'
I0
I1
tRp3524
(I3
S'<'
NNNI-1
I-1
I0
tbI00
S'\xf4lV}\xae"V@'
tbsS'instance_results'
p3525
g227
(g228
(I0
tS'b'
tRp3526
(I1
(I1
tg3524
I00
S'\x9a\x99\x99\x99\x99\x99\r@'
tbsS'test_error'
p3527
Fnan
sS'params'
p3528
g237
((lp3529
(lp3530
S'-conv1_depth'
p3531
aS'512'
p3532
aa(lp3533
S'-conv2_depth'
p3534
aS'1'
aa(lp3535
S'-fc_depth'
p3536
aS'512'
p3537
aa(lp3538
S'-filter_size'
p3539
aS'3'
aatRp3540
sS'result'
p3541
g222
(g224
S'\x9a\x99\x99\x99\x99\x99\r@'
tRp3542
sS'duration'
p3543
g222
(g224
S'\xf4lV}\xae"V@'
tRp3544
sS'instance_status'
p3545
g227
(g228
(I0
tS'b'
tRp3546
(I1
(I1
tg223
(S'i8'
I0
I1
tRp3547
(I3
S'<'
NNNI-1
I-1
I0
tbI00
S'\x03\x00\x00\x00\x00\x00\x00\x00'
tbsa(dp3548
S'status'
p3549
I3
sS'std'
p3550
g222
(g224
S'\x00\x00\x00\x00\x00\x00\x00\x00'
tRp3551
sS'instance_durations'
p3552
g227
(g228
(I0
tS'b'
tRp3553
(I1
(I1
tg223
(S'f8'
I0
I1
tRp3554
(I3
S'<'
NNNI-1
I-1
I0
tbI00
S'\x92\xcb\x7fH\xbf%I@'
tbsS'instance_results'
p3555
g227
(g228
(I0
tS'b'
tRp3556
(I1
(I1
tg3554
I00
S'\xa4p=\n\xd7\xa3\x1e@'
tbsS'test_error'
p3557
Fnan
sS'params'
p3558
g237
((lp3559
(lp3560
S'-conv1_depth'
p3561
aS'318'
p3562
aa(lp3563
S'-conv2_depth'
p3564
aS'1'
aa(lp3565
S'-fc_depth'
p3566
aS'276'
p3567
aa(lp3568
S'-filter_size'
p3569
aS'1'
aatRp3570
sS'result'
p3571
g222
(g224
S'\xa4p=\n\xd7\xa3\x1e@'
tRp3572
sS'duration'
p3573
g222
(g224
S'\x92\xcb\x7fH\xbf%I@'
tRp3574
sS'instance_status'
p3575
g227
(g228
(I0
tS'b'
tRp3576
(I1
(I1
tg223
(S'i8'
I0
I1
tRp3577
(I3
S'<'
NNNI-1
I-1
I0
tbI00
S'\x03\x00\x00\x00\x00\x00\x00\x00'
tbsa(dp3578
S'status'
p3579
I3
sS'std'
p3580
g222
(g224
S'\x00\x00\x00\x00\x00\x00\x00\x00'
tRp3581
sS'instance_durations'
p3582
g227
(g228
(I0
tS'b'
tRp3583
(I1
(I1
tg223
(S'f8'
I0
I1
tRp3584
(I3
S'<'
NNNI-1
I-1
I0
tbI00
S'\xb2.n\xa3\x01\x14V@'
tbsS'instance_results'
p3585
g227
(g228
(I0
tS'b'
tRp3586
(I1
(I1
tg3584
I00
S'\xc3\xf5(\\\x8f\xc2\xf9?'
tbsS'test_error'
p3587
Fnan
sS'params'
p3588
g237
((lp3589
(lp3590
S'-conv1_depth'
p3591
aS'307'
p3592
aa(lp3593
S'-conv2_depth'
p3594
aS'240'
p3595
aa(lp3596
S'-fc_depth'
p3597
aS'512'
p3598
aa(lp3599
S'-filter_size'
p3600
aS'2'
aatRp3601
sS'result'
p3602
g222
(g224
S'\xc3\xf5(\\\x8f\xc2\xf9?'
tRp3603
sS'duration'
p3604
g222
(g224
S'\xb2.n\xa3\x01\x14V@'
tRp3605
sS'instance_status'
p3606
g227
(g228
(I0
tS'b'
tRp3607
(I1
(I1
tg223
(S'i8'
I0
I1
tRp3608
(I3
S'<'
NNNI-1
I-1
I0
tbI00
S'\x03\x00\x00\x00\x00\x00\x00\x00'
tbsa(dp3609
S'status'
p3610
I3
sS'std'
p3611
g222
(g224
S'\x00\x00\x00\x00\x00\x00\x00\x00'
tRp3612
sS'instance_durations'
p3613
g227
(g228
(I0
tS'b'
tRp3614
(I1
(I1
tg223
(S'f8'
I0
I1
tRp3615
(I3
S'<'
NNNI-1
I-1
I0
tbI00
S'\xbe0\x99*\x18eT@'
tbsS'instance_results'
p3616
g227
(g228
(I0
tS'b'
tRp3617
(I1
(I1
tg3615
I00
S'\x85\xebQ\xb8\x1e\x85\xf3?'
tbsS'test_error'
p3618
Fnan
sS'params'
p3619
g237
((lp3620
(lp3621
S'-conv1_depth'
p3622
aS'295'
p3623
aa(lp3624
S'-conv2_depth'
p3625
aS'156'
p3626
aa(lp3627
S'-fc_depth'
p3628
aS'512'
p3629
aa(lp3630
S'-filter_size'
p3631
aS'3'
aatRp3632
sS'result'
p3633
g222
(g224
S'\x85\xebQ\xb8\x1e\x85\xf3?'
tRp3634
sS'duration'
p3635
g222
(g224
S'\xbe0\x99*\x18eT@'
tRp3636
sS'instance_status'
p3637
g227
(g228
(I0
tS'b'
tRp3638
(I1
(I1
tg223
(S'i8'
I0
I1
tRp3639
(I3
S'<'
NNNI-1
I-1
I0
tbI00
S'\x03\x00\x00\x00\x00\x00\x00\x00'
tbsa(dp3640
S'status'
p3641
I3
sS'std'
p3642
g222
(g224
S'\x00\x00\x00\x00\x00\x00\x00\x00'
tRp3643
sS'instance_durations'
p3644
g227
(g228
(I0
tS'b'
tRp3645
(I1
(I1
tg223
(S'f8'
I0
I1
tRp3646
(I3
S'<'
NNNI-1
I-1
I0
tbI00
S'\x91\xed|?56\\@'
tbsS'instance_results'
p3647
g227
(g228
(I0
tS'b'
tRp3648
(I1
(I1
tg3646
I00
S'\xcd\xcc\xcc\xcc\xcc\xcc\xf4?'
tbsS'instance_status'
p3649
g227
(g228
(I0
tS'b'
tRp3650
(I1
(I1
tg223
(S'i8'
I0
I1
tRp3651
(I3
S'<'
NNNI-1
I-1
I0
tbI00
S'\x03\x00\x00\x00\x00\x00\x00\x00'
tbsS'params'
p3652
g237
((lp3653
(lp3654
S'-conv1_depth'
p3655
aS'361'
p3656
aa(lp3657
S'-conv2_depth'
p3658
aS'247'
p3659
aa(lp3660
S'-fc_depth'
p3661
aS'512'
p3662
aa(lp3663
S'-filter_size'
p3664
aS'3'
aatRp3665
sS'result'
p3666
g222
(g224
S'\xcd\xcc\xcc\xcc\xcc\xcc\xf4?'
tRp3667
sS'duration'
p3668
g222
(g224
S'\x91\xed|?56\\@'
tRp3669
sS'test_error'
p3670
Fnan
sa(dp3671
S'status'
p3672
I3
sS'std'
p3673
g222
(g224
S'\x00\x00\x00\x00\x00\x00\x00\x00'
tRp3674
sS'instance_durations'
p3675
g227
(g228
(I0
tS'b'
tRp3676
(I1
(I1
tg223
(S'f8'
I0
I1
tRp3677
(I3
S'<'
NNNI-1
I-1
I0
tbI00
S'\x19\xe2X\x17\xb7\xadX@'
tbsS'instance_results'
p3678
g227
(g228
(I0
tS'b'
tRp3679
(I1
(I1
tg3677
I00
S'\x00\x00\x00\x00\x00\x00\xf8?'
tbsS'test_error'
p3680
Fnan
sS'params'
p3681
g237
((lp3682
(lp3683
S'-conv1_depth'
p3684
aS'322'
p3685
aa(lp3686
S'-conv2_depth'
p3687
aS'267'
p3688
aa(lp3689
S'-fc_depth'
p3690
aS'512'
p3691
aa(lp3692
S'-filter_size'
p3693
aS'2'
aatRp3694
sS'result'
p3695
g222
(g224
S'\x00\x00\x00\x00\x00\x00\xf8?'
tRp3696
sS'duration'
p3697
g222
(g224
S'\x19\xe2X\x17\xb7\xadX@'
tRp3698
sS'instance_status'
p3699
g227
(g228
(I0
tS'b'
tRp3700
(I1
(I1
tg223
(S'i8'
I0
I1
tRp3701
(I3
S'<'
NNNI-1
I-1
I0
tbI00
S'\x03\x00\x00\x00\x00\x00\x00\x00'
tbsa(dp3702
S'status'
p3703
I3
sS'std'
p3704
g222
(g224
S'\x00\x00\x00\x00\x00\x00\x00\x00'
tRp3705
sS'instance_durations'
p3706
g227
(g228
(I0
tS'b'
tRp3707
(I1
(I1
tg223
(S'f8'
I0
I1
tRp3708
(I3
S'<'
NNNI-1
I-1
I0
tbI00
S'\xe3\xa5\x9b\xc4 P)@'
tbsS'instance_results'
p3709
g227
(g228
(I0
tS'b'
tRp3710
(I1
(I1
tg3708
I00
S')\\\x8f\xc2\xf5( @'
tbsS'instance_status'
p3711
g227
(g228
(I0
tS'b'
tRp3712
(I1
(I1
tg223
(S'i8'
I0
I1
tRp3713
(I3
S'<'
NNNI-1
I-1
I0
tbI00
S'\x03\x00\x00\x00\x00\x00\x00\x00'
tbsS'params'
p3714
g237
((lp3715
(lp3716
S'-conv1_depth'
p3717
aS'1'
aa(lp3718
S'-conv2_depth'
p3719
aS'1'
aa(lp3720
S'-fc_depth'
p3721
aS'236'
p3722
aa(lp3723
S'-filter_size'
p3724
aS'4'
aatRp3725
sS'result'
p3726
g222
(g224
S')\\\x8f\xc2\xf5( @'
tRp3727
sS'duration'
p3728
g222
(g224
S'\xe3\xa5\x9b\xc4 P)@'
tRp3729
sS'test_error'
p3730
Fnan
sa(dp3731
S'status'
p3732
I3
sS'std'
p3733
g222
(g224
S'\x00\x00\x00\x00\x00\x00\x00\x00'
tRp3734
sS'instance_durations'
p3735
g227
(g228
(I0
tS'b'
tRp3736
(I1
(I1
tg223
(S'f8'
I0
I1
tRp3737
(I3
S'<'
NNNI-1
I-1
I0
tbI00
S'io\xf0\x85\xc9\xbcW@'
tbsS'instance_results'
p3738
g227
(g228
(I0
tS'b'
tRp3739
(I1
(I1
tg3737
I00
S'333333\xfb?'
tbsS'instance_status'
p3740
g227
(g228
(I0
tS'b'
tRp3741
(I1
(I1
tg223
(S'i8'
I0
I1
tRp3742
(I3
S'<'
NNNI-1
I-1
I0
tbI00
S'\x03\x00\x00\x00\x00\x00\x00\x00'
tbsS'params'
p3743
g237
((lp3744
(lp3745
S'-conv1_depth'
p3746
aS'316'
p3747
aa(lp3748
S'-conv2_depth'
p3749
aS'265'
p3750
aa(lp3751
S'-fc_depth'
p3752
aS'512'
p3753
aa(lp3754
S'-filter_size'
p3755
aS'2'
aatRp3756
sS'result'
p3757
g222
(g224
S'333333\xfb?'
tRp3758
sS'duration'
p3759
g222
(g224
S'io\xf0\x85\xc9\xbcW@'
tRp3760
sS'test_error'
p3761
Fnan
sa(dp3762
S'status'
p3763
I3
sS'std'
p3764
g222
(g224
S'\x00\x00\x00\x00\x00\x00\x00\x00'
tRp3765
sS'instance_durations'
p3766
g227
(g228
(I0
tS'b'
tRp3767
(I1
(I1
tg223
(S'f8'
I0
I1
tRp3768
(I3
S'<'
NNNI-1
I-1
I0
tbI00
S'\x03\t\x8a\x1fcjS@'
tbsS'instance_results'
p3769
g227
(g228
(I0
tS'b'
tRp3770
(I1
(I1
tg3768
I00
S'\x85\xebQ\xb8\x1e\x85\x1f@'
tbsS'test_error'
p3771
Fnan
sS'params'
p3772
g237
((lp3773
(lp3774
S'-conv1_depth'
p3775
aS'366'
p3776
aa(lp3777
S'-conv2_depth'
p3778
aS'217'
p3779
aa(lp3780
S'-fc_depth'
p3781
aS'374'
p3782
aa(lp3783
S'-filter_size'
p3784
aS'1'
aatRp3785
sS'result'
p3786
g222
(g224
S'\x85\xebQ\xb8\x1e\x85\x1f@'
tRp3787
sS'duration'
p3788
g222
(g224
S'\x03\t\x8a\x1fcjS@'
tRp3789
sS'instance_status'
p3790
g227
(g228
(I0
tS'b'
tRp3791
(I1
(I1
tg223
(S'i8'
I0
I1
tRp3792
(I3
S'<'
NNNI-1
I-1
I0
tbI00
S'\x03\x00\x00\x00\x00\x00\x00\x00'
tbsa(dp3793
S'status'
p3794
I3
sS'std'
p3795
g222
(g224
S'\x00\x00\x00\x00\x00\x00\x00\x00'
tRp3796
sS'instance_durations'
p3797
g227
(g228
(I0
tS'b'
tRp3798
(I1
(I1
tg223
(S'f8'
I0
I1
tRp3799
(I3
S'<'
NNNI-1
I-1
I0
tbI00
S'\xc7K7\x89A0[@'
tbsS'instance_results'
p3800
g227
(g228
(I0
tS'b'
tRp3801
(I1
(I1
tg3799
I00
S'\xb8\x1e\x85\xebQ\xb8\xf6?'
tbsS'instance_status'
p3802
g227
(g228
(I0
tS'b'
tRp3803
(I1
(I1
tg223
(S'i8'
I0
I1
tRp3804
(I3
S'<'
NNNI-1
I-1
I0
tbI00
S'\x03\x00\x00\x00\x00\x00\x00\x00'
tbsS'params'
p3805
g237
((lp3806
(lp3807
S'-conv1_depth'
p3808
aS'352'
p3809
aa(lp3810
S'-conv2_depth'
p3811
aS'284'
p3812
aa(lp3813
S'-fc_depth'
p3814
aS'394'
p3815
aa(lp3816
S'-filter_size'
p3817
aS'3'
aatRp3818
sS'result'
p3819
g222
(g224
S'\xb8\x1e\x85\xebQ\xb8\xf6?'
tRp3820
sS'duration'
p3821
g222
(g224
S'\xc7K7\x89A0[@'
tRp3822
sS'test_error'
p3823
Fnan
sa(dp3824
S'status'
p3825
I3
sS'std'
p3826
g222
(g224
S'\x00\x00\x00\x00\x00\x00\x00\x00'
tRp3827
sS'instance_durations'
p3828
g227
(g228
(I0
tS'b'
tRp3829
(I1
(I1
tg223
(S'f8'
I0
I1
tRp3830
(I3
S'<'
NNNI-1
I-1
I0
tbI00
S'\\\x8f\xc2\xf5(l^@'
tbsS'instance_results'
p3831
g227
(g228
(I0
tS'b'
tRp3832
(I1
(I1
tg3830
I00
S'q=\n\xd7\xa3p\xf9?'
tbsS'test_error'
p3833
Fnan
sS'params'
p3834
g237
((lp3835
(lp3836
S'-conv1_depth'
p3837
aS'382'
p3838
aa(lp3839
S'-conv2_depth'
p3840
aS'388'
p3841
aa(lp3842
S'-fc_depth'
p3843
aS'389'
p3844
aa(lp3845
S'-filter_size'
p3846
aS'2'
aatRp3847
sS'result'
p3848
g222
(g224
S'q=\n\xd7\xa3p\xf9?'
tRp3849
sS'duration'
p3850
g222
(g224
S'\\\x8f\xc2\xf5(l^@'
tRp3851
sS'instance_status'
p3852
g227
(g228
(I0
tS'b'
tRp3853
(I1
(I1
tg223
(S'i8'
I0
I1
tRp3854
(I3
S'<'
NNNI-1
I-1
I0
tbI00
S'\x03\x00\x00\x00\x00\x00\x00\x00'
tbsa(dp3855
S'status'
p3856
I3
sS'std'
p3857
g222
(g224
S'\x00\x00\x00\x00\x00\x00\x00\x00'
tRp3858
sS'instance_durations'
p3859
g227
(g228
(I0
tS'b'
tRp3860
(I1
(I1
tg223
(S'f8'
I0
I1
tRp3861
(I3
S'<'
NNNI-1
I-1
I0
tbI00
S'F\xb6\xf3\xfd\xd4\x88a@'
tbsS'instance_results'
p3862
g227
(g228
(I0
tS'b'
tRp3863
(I1
(I1
tg3861
I00
S'\\\x8f\xc2\xf5(\\\xf3?'
tbsS'test_error'
p3864
Fnan
sS'params'
p3865
g237
((lp3866
(lp3867
S'-conv1_depth'
p3868
aS'461'
p3869
aa(lp3870
S'-conv2_depth'
p3871
aS'288'
p3872
aa(lp3873
S'-fc_depth'
p3874
aS'348'
p3875
aa(lp3876
S'-filter_size'
p3877
aS'3'
aatRp3878
sS'result'
p3879
g222
(g224
S'\\\x8f\xc2\xf5(\\\xf3?'
tRp3880
sS'duration'
p3881
g222
(g224
S'F\xb6\xf3\xfd\xd4\x88a@'
tRp3882
sS'instance_status'
p3883
g227
(g228
(I0
tS'b'
tRp3884
(I1
(I1
tg223
(S'i8'
I0
I1
tRp3885
(I3
S'<'
NNNI-1
I-1
I0
tbI00
S'\x03\x00\x00\x00\x00\x00\x00\x00'
tbsa(dp3886
S'status'
p3887
I3
sS'std'
p3888
g222
(g224
S'\x00\x00\x00\x00\x00\x00\x00\x00'
tRp3889
sS'instance_durations'
p3890
g227
(g228
(I0
tS'b'
tRp3891
(I1
(I1
tg223
(S'f8'
I0
I1
tRp3892
(I3
S'<'
NNNI-1
I-1
I0
tbI00
S'\x9a\x99\x99\x99\x99i\\@'
tbsS'instance_results'
p3893
g227
(g228
(I0
tS'b'
tRp3894
(I1
(I1
tg3892
I00
S')\\\x8f\xc2\xf5(\xfc?'
tbsS'instance_status'
p3895
g227
(g228
(I0
tS'b'
tRp3896
(I1
(I1
tg223
(S'i8'
I0
I1
tRp3897
(I3
S'<'
NNNI-1
I-1
I0
tbI00
S'\x03\x00\x00\x00\x00\x00\x00\x00'
tbsS'params'
p3898
g237
((lp3899
(lp3900
S'-conv1_depth'
p3901
aS'409'
p3902
aa(lp3903
S'-conv2_depth'
p3904
aS'281'
p3905
aa(lp3906
S'-fc_depth'
p3907
aS'362'
p3908
aa(lp3909
S'-filter_size'
p3910
aS'2'
aatRp3911
sS'result'
p3912
g222
(g224
S')\\\x8f\xc2\xf5(\xfc?'
tRp3913
sS'duration'
p3914
g222
(g224
S'\x9a\x99\x99\x99\x99i\\@'
tRp3915
sS'test_error'
p3916
Fnan
sa(dp3917
S'status'
p3918
I3
sS'std'
p3919
g222
(g224
S'\x00\x00\x00\x00\x00\x00\x00\x00'
tRp3920
sS'instance_durations'
p3921
g227
(g228
(I0
tS'b'
tRp3922
(I1
(I1
tg223
(S'f8'
I0
I1
tRp3923
(I3
S'<'
NNNI-1
I-1
I0
tbI00
S'h\x91\xed|?MZ@'
tbsS'instance_results'
p3924
g227
(g228
(I0
tS'b'
tRp3925
(I1
(I1
tg3923
I00
S'q=\n\xd7\xa3p\xfd?'
tbsS'test_error'
p3926
Fnan
sS'params'
p3927
g237
((lp3928
(lp3929
S'-conv1_depth'
p3930
aS'417'
p3931
aa(lp3932
S'-conv2_depth'
p3933
aS'212'
p3934
aa(lp3935
S'-fc_depth'
p3936
aS'336'
p3937
aa(lp3938
S'-filter_size'
p3939
aS'2'
aatRp3940
sS'result'
p3941
g222
(g224
S'q=\n\xd7\xa3p\xfd?'
tRp3942
sS'duration'
p3943
g222
(g224
S'h\x91\xed|?MZ@'
tRp3944
sS'instance_status'
p3945
g227
(g228
(I0
tS'b'
tRp3946
(I1
(I1
tg223
(S'i8'
I0
I1
tRp3947
(I3
S'<'
NNNI-1
I-1
I0
tbI00
S'\x03\x00\x00\x00\x00\x00\x00\x00'
tbsa(dp3948
S'status'
p3949
I3
sS'std'
p3950
g222
(g224
S'\x00\x00\x00\x00\x00\x00\x00\x00'
tRp3951
sS'instance_durations'
p3952
g227
(g228
(I0
tS'b'
tRp3953
(I1
(I1
tg223
(S'f8'
I0
I1
tRp3954
(I3
S'<'
NNNI-1
I-1
I0
tbI00
S'\xdd$\x06\x81\x95#^@'
tbsS'instance_results'
p3955
g227
(g228
(I0
tS'b'
tRp3956
(I1
(I1
tg3954
I00
S'\xcd\xcc\xcc\xcc\xcc\xcc\xf8?'
tbsS'instance_status'
p3957
g227
(g228
(I0
tS'b'
tRp3958
(I1
(I1
tg223
(S'i8'
I0
I1
tRp3959
(I3
S'<'
NNNI-1
I-1
I0
tbI00
S'\x03\x00\x00\x00\x00\x00\x00\x00'
tbsS'params'
p3960
g237
((lp3961
(lp3962
S'-conv1_depth'
p3963
aS'435'
p3964
aa(lp3965
S'-conv2_depth'
p3966
aS'283'
p3967
aa(lp3968
S'-fc_depth'
p3969
aS'372'
p3970
aa(lp3971
S'-filter_size'
p3972
aS'2'
aatRp3973
sS'result'
p3974
g222
(g224
S'\xcd\xcc\xcc\xcc\xcc\xcc\xf8?'
tRp3975
sS'duration'
p3976
g222
(g224
S'\xdd$\x06\x81\x95#^@'
tRp3977
sS'test_error'
p3978
Fnan
sa(dp3979
S'status'
p3980
I3
sS'std'
p3981
g222
(g224
S'\x00\x00\x00\x00\x00\x00\x00\x00'
tRp3982
sS'instance_durations'
p3983
g227
(g228
(I0
tS'b'
tRp3984
(I1
(I1
tg223
(S'f8'
I0
I1
tRp3985
(I3
S'<'
NNNI-1
I-1
I0
tbI00
S'\xab>W[\xb1\x1f-@'
tbsS'instance_results'
p3986
g227
(g228
(I0
tS'b'
tRp3987
(I1
(I1
tg3985
I00
S'\n\xd7\xa3p=\n\x17@'
tbsS'instance_status'
p3988
g227
(g228
(I0
tS'b'
tRp3989
(I1
(I1
tg223
(S'i8'
I0
I1
tRp3990
(I3
S'<'
NNNI-1
I-1
I0
tbI00
S'\x03\x00\x00\x00\x00\x00\x00\x00'
tbsS'params'
p3991
g237
((lp3992
(lp3993
S'-conv1_depth'
p3994
aS'1'
aa(lp3995
S'-conv2_depth'
p3996
aS'1'
aa(lp3997
S'-fc_depth'
p3998
aS'160'
p3999
aa(lp4000
S'-filter_size'
p4001
aS'9'
aatRp4002
sS'result'
p4003
g222
(g224
S'\n\xd7\xa3p=\n\x17@'
tRp4004
sS'duration'
p4005
g222
(g224
S'\xab>W[\xb1\x1f-@'
tRp4006
sS'test_error'
p4007
Fnan
sa(dp4008
S'status'
p4009
I3
sS'std'
p4010
g222
(g224
S'\x00\x00\x00\x00\x00\x00\x00\x00'
tRp4011
sS'instance_durations'
p4012
g227
(g228
(I0
tS'b'
tRp4013
(I1
(I1
tg223
(S'f8'
I0
I1
tRp4014
(I3
S'<'
NNNI-1
I-1
I0
tbI00
S'\x04V\x0e-\xb2\xfdW@'
tbsS'instance_results'
p4015
g227
(g228
(I0
tS'b'
tRp4016
(I1
(I1
tg4014
I00
S'\x8f\xc2\xf5(\\\x8f\xf6?'
tbsS'test_error'
p4017
Fnan
sS'params'
p4018
g237
((lp4019
(lp4020
S'-conv1_depth'
p4021
aS'210'
p4022
aa(lp4023
S'-conv2_depth'
p4024
aS'355'
p4025
aa(lp4026
S'-fc_depth'
p4027
aS'508'
p4028
aa(lp4029
S'-filter_size'
p4030
aS'3'
aatRp4031
sS'result'
p4032
g222
(g224
S'\x8f\xc2\xf5(\\\x8f\xf6?'
tRp4033
sS'duration'
p4034
g222
(g224
S'\x04V\x0e-\xb2\xfdW@'
tRp4035
sS'instance_status'
p4036
g227
(g228
(I0
tS'b'
tRp4037
(I1
(I1
tg223
(S'i8'
I0
I1
tRp4038
(I3
S'<'
NNNI-1
I-1
I0
tbI00
S'\x03\x00\x00\x00\x00\x00\x00\x00'
tbsa(dp4039
S'status'
p4040
I3
sS'std'
p4041
g222
(g224
S'\x00\x00\x00\x00\x00\x00\x00\x00'
tRp4042
sS'instance_durations'
p4043
g227
(g228
(I0
tS'b'
tRp4044
(I1
(I1
tg223
(S'f8'
I0
I1
tRp4045
(I3
S'<'
NNNI-1
I-1
I0
tbI00
S'\xe5\xd0"\xdb\xf9\xc6Y@'
tbsS'instance_results'
p4046
g227
(g228
(I0
tS'b'
tRp4047
(I1
(I1
tg4045
I00
S'\xc3\xf5(\\\x8f\xc2\xf9?'
tbsS'test_error'
p4048
Fnan
sS'params'
p4049
g237
((lp4050
(lp4051
S'-conv1_depth'
p4052
aS'355'
p4053
aa(lp4054
S'-conv2_depth'
p4055
aS'287'
p4056
aa(lp4057
S'-fc_depth'
p4058
aS'403'
p4059
aa(lp4060
S'-filter_size'
p4061
aS'2'
aatRp4062
sS'result'
p4063
g222
(g224
S'\xc3\xf5(\\\x8f\xc2\xf9?'
tRp4064
sS'duration'
p4065
g222
(g224
S'\xe5\xd0"\xdb\xf9\xc6Y@'
tRp4066
sS'instance_status'
p4067
g227
(g228
(I0
tS'b'
tRp4068
(I1
(I1
tg223
(S'i8'
I0
I1
tRp4069
(I3
S'<'
NNNI-1
I-1
I0
tbI00
S'\x03\x00\x00\x00\x00\x00\x00\x00'
tbsa(dp4070
S'status'
p4071
I3
sS'std'
p4072
g222
(g224
S'\x00\x00\x00\x00\x00\x00\x00\x00'
tRp4073
sS'instance_durations'
p4074
g227
(g228
(I0
tS'b'
tRp4075
(I1
(I1
tg223
(S'f8'
I0
I1
tRp4076
(I3
S'<'
NNNI-1
I-1
I0
tbI00
S'\xcb\xa1E\xb6\xf3\xfd]@'
tbsS'instance_results'
p4077
g227
(g228
(I0
tS'b'
tRp4078
(I1
(I1
tg4076
I00
S'ffffff\xf6?'
tbsS'test_error'
p4079
Fnan
sS'params'
p4080
g237
((lp4081
(lp4082
S'-conv1_depth'
p4083
aS'336'
p4084
aa(lp4085
S'-conv2_depth'
p4086
aS'326'
p4087
aa(lp4088
S'-fc_depth'
p4089
aS'447'
p4090
aa(lp4091
S'-filter_size'
p4092
aS'3'
aatRp4093
sS'result'
p4094
g222
(g224
S'ffffff\xf6?'
tRp4095
sS'duration'
p4096
g222
(g224
S'\xcb\xa1E\xb6\xf3\xfd]@'
tRp4097
sS'instance_status'
p4098
g227
(g228
(I0
tS'b'
tRp4099
(I1
(I1
tg223
(S'i8'
I0
I1
tRp4100
(I3
S'<'
NNNI-1
I-1
I0
tbI00
S'\x03\x00\x00\x00\x00\x00\x00\x00'
tbsa(dp4101
S'status'
p4102
I3
sS'std'
p4103
g222
(g224
S'\x00\x00\x00\x00\x00\x00\x00\x00'
tRp4104
sS'instance_durations'
p4105
g227
(g228
(I0
tS'b'
tRp4106
(I1
(I1
tg223
(S'f8'
I0
I1
tRp4107
(I3
S'<'
NNNI-1
I-1
I0
tbI00
S'\xbct\x93\x18\x046[@'
tbsS'instance_results'
p4108
g227
(g228
(I0
tS'b'
tRp4109
(I1
(I1
tg4107
I00
S'\x9a\x99\x99\x99\x99\x99\xf5?'
tbsS'test_error'
p4110
Fnan
sS'params'
p4111
g237
((lp4112
(lp4113
S'-conv1_depth'
p4114
aS'400'
p4115
aa(lp4116
S'-conv2_depth'
p4117
aS'200'
p4118
aa(lp4119
S'-fc_depth'
p4120
aS'302'
p4121
aa(lp4122
S'-filter_size'
p4123
aS'3'
aatRp4124
sS'result'
p4125
g222
(g224
S'\x9a\x99\x99\x99\x99\x99\xf5?'
tRp4126
sS'duration'
p4127
g222
(g224
S'\xbct\x93\x18\x046[@'
tRp4128
sS'instance_status'
p4129
g227
(g228
(I0
tS'b'
tRp4130
(I1
(I1
tg223
(S'i8'
I0
I1
tRp4131
(I3
S'<'
NNNI-1
I-1
I0
tbI00
S'\x03\x00\x00\x00\x00\x00\x00\x00'
tbsa(dp4132
S'status'
p4133
I3
sS'std'
p4134
g222
(g224
S'\x00\x00\x00\x00\x00\x00\x00\x00'
tRp4135
sS'instance_durations'
p4136
g227
(g228
(I0
tS'b'
tRp4137
(I1
(I1
tg223
(S'f8'
I0
I1
tRp4138
(I3
S'<'
NNNI-1
I-1
I0
tbI00
S'\xb8\x1e\x85\xebQX_@'
tbsS'instance_results'
p4139
g227
(g228
(I0
tS'b'
tRp4140
(I1
(I1
tg4138
I00
S'=\n\xd7\xa3p=\xf6?'
tbsS'instance_status'
p4141
g227
(g228
(I0
tS'b'
tRp4142
(I1
(I1
tg223
(S'i8'
I0
I1
tRp4143
(I3
S'<'
NNNI-1
I-1
I0
tbI00
S'\x03\x00\x00\x00\x00\x00\x00\x00'
tbsS'params'
p4144
g237
((lp4145
(lp4146
S'-conv1_depth'
p4147
aS'325'
p4148
aa(lp4149
S'-conv2_depth'
p4150
aS'368'
p4151
aa(lp4152
S'-fc_depth'
p4153
aS'495'
p4154
aa(lp4155
S'-filter_size'
p4156
aS'3'
aatRp4157
sS'result'
p4158
g222
(g224
S'=\n\xd7\xa3p=\xf6?'
tRp4159
sS'duration'
p4160
g222
(g224
S'\xb8\x1e\x85\xebQX_@'
tRp4161
sS'test_error'
p4162
Fnan
sa(dp4163
S'status'
p4164
I3
sS'std'
p4165
g222
(g224
S'\x00\x00\x00\x00\x00\x00\x00\x00'
tRp4166
sS'instance_durations'
p4167
g227
(g228
(I0
tS'b'
tRp4168
(I1
(I1
tg223
(S'f8'
I0
I1
tRp4169
(I3
S'<'
NNNI-1
I-1
I0
tbI00
S'\xdch\x00o\x81\x94U@'
tbsS'instance_results'
p4170
g227
(g228
(I0
tS'b'
tRp4171
(I1
(I1
tg4169
I00
S'\n\xd7\xa3p=\n\x1c@'
tbsS'instance_status'
p4172
g227
(g228
(I0
tS'b'
tRp4173
(I1
(I1
tg223
(S'i8'
I0
I1
tRp4174
(I3
S'<'
NNNI-1
I-1
I0
tbI00
S'\x03\x00\x00\x00\x00\x00\x00\x00'
tbsS'params'
p4175
g237
((lp4176
(lp4177
S'-conv1_depth'
p4178
aS'433'
p4179
aa(lp4180
S'-conv2_depth'
p4181
aS'264'
p4182
aa(lp4183
S'-fc_depth'
p4184
aS'360'
p4185
aa(lp4186
S'-filter_size'
p4187
aS'1'
aatRp4188
sS'result'
p4189
g222
(g224
S'\n\xd7\xa3p=\n\x1c@'
tRp4190
sS'duration'
p4191
g222
(g224
S'\xdch\x00o\x81\x94U@'
tRp4192
sS'test_error'
p4193
Fnan
sa(dp4194
S'status'
p4195
I3
sS'std'
p4196
g222
(g224
S'\x00\x00\x00\x00\x00\x00\x00\x00'
tRp4197
sS'instance_durations'
p4198
g227
(g228
(I0
tS'b'
tRp4199
(I1
(I1
tg223
(S'f8'
I0
I1
tRp4200
(I3
S'<'
NNNI-1
I-1
I0
tbI00
S'\xecQ\xb8\x1e\x85\x13Z@'
tbsS'instance_results'
p4201
g227
(g228
(I0
tS'b'
tRp4202
(I1
(I1
tg4200
I00
S'{\x14\xaeG\xe1z\xf8?'
tbsS'test_error'
p4203
Fnan
sS'params'
p4204
g237
((lp4205
(lp4206
S'-conv1_depth'
p4207
aS'409'
p4208
aa(lp4209
S'-conv2_depth'
p4210
aS'208'
p4211
aa(lp4212
S'-fc_depth'
p4213
aS'321'
p4214
aa(lp4215
S'-filter_size'
p4216
aS'2'
aatRp4217
sS'result'
p4218
g222
(g224
S'{\x14\xaeG\xe1z\xf8?'
tRp4219
sS'duration'
p4220
g222
(g224
S'\xecQ\xb8\x1e\x85\x13Z@'
tRp4221
sS'instance_status'
p4222
g227
(g228
(I0
tS'b'
tRp4223
(I1
(I1
tg223
(S'i8'
I0
I1
tRp4224
(I3
S'<'
NNNI-1
I-1
I0
tbI00
S'\x03\x00\x00\x00\x00\x00\x00\x00'
tbsa(dp4225
S'status'
p4226
I3
sS'std'
p4227
g222
(g224
S'\x00\x00\x00\x00\x00\x00\x00\x00'
tRp4228
sS'instance_durations'
p4229
g227
(g228
(I0
tS'b'
tRp4230
(I1
(I1
tg223
(S'f8'
I0
I1
tRp4231
(I3
S'<'
NNNI-1
I-1
I0
tbI00
S'T\xe3\xa5\x9b\xc4\x18Y@'
tbsS'instance_results'
p4232
g227
(g228
(I0
tS'b'
tRp4233
(I1
(I1
tg4231
I00
S'\n\xd7\xa3p=\n\xfb?'
tbsS'test_error'
p4234
Fnan
sS'params'
p4235
g237
((lp4236
(lp4237
S'-conv1_depth'
p4238
aS'311'
p4239
aa(lp4240
S'-conv2_depth'
p4241
aS'321'
p4242
aa(lp4243
S'-fc_depth'
p4244
aS'478'
p4245
aa(lp4246
S'-filter_size'
p4247
aS'2'
aatRp4248
sS'result'
p4249
g222
(g224
S'\n\xd7\xa3p=\n\xfb?'
tRp4250
sS'duration'
p4251
g222
(g224
S'T\xe3\xa5\x9b\xc4\x18Y@'
tRp4252
sS'instance_status'
p4253
g227
(g228
(I0
tS'b'
tRp4254
(I1
(I1
tg223
(S'i8'
I0
I1
tRp4255
(I3
S'<'
NNNI-1
I-1
I0
tbI00
S'\x03\x00\x00\x00\x00\x00\x00\x00'
tbsa(dp4256
S'status'
p4257
I3
sS'std'
p4258
g222
(g224
S'\x00\x00\x00\x00\x00\x00\x00\x00'
tRp4259
sS'instance_durations'
p4260
g227
(g228
(I0
tS'b'
tRp4261
(I1
(I1
tg223
(S'f8'
I0
I1
tRp4262
(I3
S'<'
NNNI-1
I-1
I0
tbI00
S'jM\xf3\x8eS\x88T@'
tbsS'instance_results'
p4263
g227
(g228
(I0
tS'b'
tRp4264
(I1
(I1
tg4262
I00
S'\x00\x00\x00\x00\x00\x00\xf4?'
tbsS'instance_status'
p4265
g227
(g228
(I0
tS'b'
tRp4266
(I1
(I1
tg223
(S'i8'
I0
I1
tRp4267
(I3
S'<'
NNNI-1
I-1
I0
tbI00
S'\x03\x00\x00\x00\x00\x00\x00\x00'
tbsS'params'
p4268
g237
((lp4269
(lp4270
S'-conv1_depth'
p4271
aS'293'
p4272
aa(lp4273
S'-conv2_depth'
p4274
aS'175'
p4275
aa(lp4276
S'-fc_depth'
p4277
aS'341'
p4278
aa(lp4279
S'-filter_size'
p4280
aS'3'
aatRp4281
sS'result'
p4282
g222
(g224
S'\x00\x00\x00\x00\x00\x00\xf4?'
tRp4283
sS'duration'
p4284
g222
(g224
S'jM\xf3\x8eS\x88T@'
tRp4285
sS'test_error'
p4286
Fnan
sa(dp4287
S'status'
p4288
I3
sS'std'
p4289
g222
(g224
S'\x00\x00\x00\x00\x00\x00\x00\x00'
tRp4290
sS'instance_durations'
p4291
g227
(g228
(I0
tS'b'
tRp4292
(I1
(I1
tg223
(S'f8'
I0
I1
tRp4293
(I3
S'<'
NNNI-1
I-1
I0
tbI00
S'7\x89A`\xe5\xb0\\@'
tbsS'instance_results'
p4294
g227
(g228
(I0
tS'b'
tRp4295
(I1
(I1
tg4293
I00
S'R\xb8\x1e\x85\xebQ\xf4?'
tbsS'instance_status'
p4296
g227
(g228
(I0
tS'b'
tRp4297
(I1
(I1
tg223
(S'i8'
I0
I1
tRp4298
(I3
S'<'
NNNI-1
I-1
I0
tbI00
S'\x03\x00\x00\x00\x00\x00\x00\x00'
tbsS'params'
p4299
g237
((lp4300
(lp4301
S'-conv1_depth'
p4302
aS'207'
p4303
aa(lp4304
S'-conv2_depth'
p4305
aS'281'
p4306
aa(lp4307
S'-fc_depth'
p4308
aS'436'
p4309
aa(lp4310
S'-filter_size'
p4311
aS'4'
aatRp4312
sS'result'
p4313
g222
(g224
S'R\xb8\x1e\x85\xebQ\xf4?'
tRp4314
sS'duration'
p4315
g222
(g224
S'7\x89A`\xe5\xb0\\@'
tRp4316
sS'test_error'
p4317
Fnan
sa(dp4318
S'status'
p4319
I3
sS'std'
p4320
g222
(g224
S'\x00\x00\x00\x00\x00\x00\x00\x00'
tRp4321
sS'instance_durations'
p4322
g227
(g228
(I0
tS'b'
tRp4323
(I1
(I1
tg223
(S'f8'
I0
I1
tRp4324
(I3
S'<'
NNNI-1
I-1
I0
tbI00
S'\xfb\xcb\xee\xc9\xc3\xceP@'
tbsS'instance_results'
p4325
g227
(g228
(I0
tS'b'
tRp4326
(I1
(I1
tg4324
I00
S'\x1f\x85\xebQ\xb8\x1e\x1d@'
tbsS'test_error'
p4327
Fnan
sS'params'
p4328
g237
((lp4329
(lp4330
S'-conv1_depth'
p4331
aS'268'
p4332
aa(lp4333
S'-conv2_depth'
p4334
aS'261'
p4335
aa(lp4336
S'-fc_depth'
p4337
aS'476'
p4338
aa(lp4339
S'-filter_size'
p4340
aS'1'
aatRp4341
sS'result'
p4342
g222
(g224
S'\x1f\x85\xebQ\xb8\x1e\x1d@'
tRp4343
sS'duration'
p4344
g222
(g224
S'\xfb\xcb\xee\xc9\xc3\xceP@'
tRp4345
sS'instance_status'
p4346
g227
(g228
(I0
tS'b'
tRp4347
(I1
(I1
tg223
(S'i8'
I0
I1
tRp4348
(I3
S'<'
NNNI-1
I-1
I0
tbI00
S'\x03\x00\x00\x00\x00\x00\x00\x00'
tbsa(dp4349
S'status'
p4350
I3
sS'std'
p4351
g222
(g224
S'\x00\x00\x00\x00\x00\x00\x00\x00'
tRp4352
sS'instance_durations'
p4353
g227
(g228
(I0
tS'b'
tRp4354
(I1
(I1
tg223
(S'f8'
I0
I1
tRp4355
(I3
S'<'
NNNI-1
I-1
I0
tbI00
S'?5^\xbaI\x8c`@'
tbsS'instance_results'
p4356
g227
(g228
(I0
tS'b'
tRp4357
(I1
(I1
tg4355
I00
S'\xecQ\xb8\x1e\x85\xeb\xf5?'
tbsS'test_error'
p4358
Fnan
sS'params'
p4359
g237
((lp4360
(lp4361
S'-conv1_depth'
p4362
aS'373'
p4363
aa(lp4364
S'-conv2_depth'
p4365
aS'343'
p4366
aa(lp4367
S'-fc_depth'
p4368
aS'458'
p4369
aa(lp4370
S'-filter_size'
p4371
aS'3'
aatRp4372
sS'result'
p4373
g222
(g224
S'\xecQ\xb8\x1e\x85\xeb\xf5?'
tRp4374
sS'duration'
p4375
g222
(g224
S'?5^\xbaI\x8c`@'
tRp4376
sS'instance_status'
p4377
g227
(g228
(I0
tS'b'
tRp4378
(I1
(I1
tg223
(S'i8'
I0
I1
tRp4379
(I3
S'<'
NNNI-1
I-1
I0
tbI00
S'\x03\x00\x00\x00\x00\x00\x00\x00'
tbsa(dp4380
S'status'
p4381
I3
sS'std'
p4382
g222
(g224
S'\x00\x00\x00\x00\x00\x00\x00\x00'
tRp4383
sS'instance_durations'
p4384
g227
(g228
(I0
tS'b'
tRp4385
(I1
(I1
tg223
(S'f8'
I0
I1
tRp4386
(I3
S'<'
NNNI-1
I-1
I0
tbI00
S'\x02+\x87\x16\xd9\x9ea@'
tbsS'instance_results'
p4387
g227
(g228
(I0
tS'b'
tRp4388
(I1
(I1
tg4386
I00
S'ffffff\xf6?'
tbsS'test_error'
p4389
Fnan
sS'params'
p4390
g237
((lp4391
(lp4392
S'-conv1_depth'
p4393
aS'342'
p4394
aa(lp4395
S'-conv2_depth'
p4396
aS'410'
p4397
aa(lp4398
S'-fc_depth'
p4399
aS'512'
p4400
aa(lp4401
S'-filter_size'
p4402
aS'3'
aatRp4403
sS'result'
p4404
g222
(g224
S'ffffff\xf6?'
tRp4405
sS'duration'
p4406
g222
(g224
S'\x02+\x87\x16\xd9\x9ea@'
tRp4407
sS'instance_status'
p4408
g227
(g228
(I0
tS'b'
tRp4409
(I1
(I1
tg223
(S'i8'
I0
I1
tRp4410
(I3
S'<'
NNNI-1
I-1
I0
tbI00
S'\x03\x00\x00\x00\x00\x00\x00\x00'
tbsa(dp4411
S'status'
p4412
I3
sS'std'
p4413
g222
(g224
S'\x00\x00\x00\x00\x00\x00\x00\x00'
tRp4414
sS'instance_durations'
p4415
g227
(g228
(I0
tS'b'
tRp4416
(I1
(I1
tg223
(S'f8'
I0
I1
tRp4417
(I3
S'<'
NNNI-1
I-1
I0
tbI00
S'+\x87\x16\xd9\xce\xa7b@'
tbsS'instance_results'
p4418
g227
(g228
(I0
tS'b'
tRp4419
(I1
(I1
tg4417
I00
S')\\\x8f\xc2\xf5(\xf4?'
tbsS'instance_status'
p4420
g227
(g228
(I0
tS'b'
tRp4421
(I1
(I1
tg223
(S'i8'
I0
I1
tRp4422
(I3
S'<'
NNNI-1
I-1
I0
tbI00
S'\x03\x00\x00\x00\x00\x00\x00\x00'
tbsS'params'
p4423
g237
((lp4424
(lp4425
S'-conv1_depth'
p4426
aS'454'
p4427
aa(lp4428
S'-conv2_depth'
p4429
aS'307'
p4430
aa(lp4431
S'-fc_depth'
p4432
aS'385'
p4433
aa(lp4434
S'-filter_size'
p4435
aS'3'
aatRp4436
sS'result'
p4437
g222
(g224
S')\\\x8f\xc2\xf5(\xf4?'
tRp4438
sS'duration'
p4439
g222
(g224
S'+\x87\x16\xd9\xce\xa7b@'
tRp4440
sS'test_error'
p4441
Fnan
sa(dp4442
S'status'
p4443
I3
sS'std'
p4444
g222
(g224
S'\x00\x00\x00\x00\x00\x00\x00\x00'
tRp4445
sS'instance_durations'
p4446
g227
(g228
(I0
tS'b'
tRp4447
(I1
(I1
tg223
(S'f8'
I0
I1
tRp4448
(I3
S'<'
NNNI-1
I-1
I0
tbI00
S'\xd1\x91\\\xfeC\xe6U@'
tbsS'instance_results'
p4449
g227
(g228
(I0
tS'b'
tRp4450
(I1
(I1
tg4448
I00
S'\xa4p=\n\xd7\xa3\xf4?'
tbsS'instance_status'
p4451
g227
(g228
(I0
tS'b'
tRp4452
(I1
(I1
tg223
(S'i8'
I0
I1
tRp4453
(I3
S'<'
NNNI-1
I-1
I0
tbI00
S'\x03\x00\x00\x00\x00\x00\x00\x00'
tbsS'params'
p4454
g237
((lp4455
(lp4456
S'-conv1_depth'
p4457
aS'110'
p4458
aa(lp4459
S'-conv2_depth'
p4460
aS'360'
p4461
aa(lp4462
S'-fc_depth'
p4463
aS'512'
p4464
aa(lp4465
S'-filter_size'
p4466
aS'4'
aatRp4467
sS'result'
p4468
g222
(g224
S'\xa4p=\n\xd7\xa3\xf4?'
tRp4469
sS'duration'
p4470
g222
(g224
S'\xd1\x91\\\xfeC\xe6U@'
tRp4471
sS'test_error'
p4472
Fnan
sa(dp4473
S'status'
p4474
I3
sS'std'
p4475
g222
(g224
S'\x00\x00\x00\x00\x00\x00\x00\x00'
tRp4476
sS'instance_durations'
p4477
g227
(g228
(I0
tS'b'
tRp4478
(I1
(I1
tg223
(S'f8'
I0
I1
tRp4479
(I3
S'<'
NNNI-1
I-1
I0
tbI00
S'9\xb4\xc8v\xbe\xbf_@'
tbsS'instance_results'
p4480
g227
(g228
(I0
tS'b'
tRp4481
(I1
(I1
tg4479
I00
S'\x85\xebQ\xb8\x1e\x85\xff?'
tbsS'test_error'
p4482
Fnan
sS'params'
p4483
g237
((lp4484
(lp4485
S'-conv1_depth'
p4486
aS'331'
p4487
aa(lp4488
S'-conv2_depth'
p4489
aS'512'
p4490
aa(lp4491
S'-fc_depth'
p4492
aS'432'
p4493
aa(lp4494
S'-filter_size'
p4495
aS'2'
aatRp4496
sS'result'
p4497
g222
(g224
S'\x85\xebQ\xb8\x1e\x85\xff?'
tRp4498
sS'duration'
p4499
g222
(g224
S'9\xb4\xc8v\xbe\xbf_@'
tRp4500
sS'instance_status'
p4501
g227
(g228
(I0
tS'b'
tRp4502
(I1
(I1
tg223
(S'i8'
I0
I1
tRp4503
(I3
S'<'
NNNI-1
I-1
I0
tbI00
S'\x03\x00\x00\x00\x00\x00\x00\x00'
tbsa(dp4504
S'status'
p4505
I3
sS'std'
p4506
g222
(g224
S'\x00\x00\x00\x00\x00\x00\x00\x00'
tRp4507
sS'instance_durations'
p4508
g227
(g228
(I0
tS'b'
tRp4509
(I1
(I1
tg223
(S'f8'
I0
I1
tRp4510
(I3
S'<'
NNNI-1
I-1
I0
tbI00
S'\xf0\xa7\xc6K79h@'
tbsS'instance_results'
p4511
g227
(g228
(I0
tS'b'
tRp4512
(I1
(I1
tg4510
I00
S'\x8f\xc2\xf5(\\\x8f\x02@'
tbsS'test_error'
p4513
Fnan
sS'params'
p4514
g237
((lp4515
(lp4516
S'-conv1_depth'
p4517
aS'318'
p4518
aa(lp4519
S'-conv2_depth'
p4520
aS'405'
p4521
aa(lp4522
S'-fc_depth'
p4523
aS'309'
p4524
aa(lp4525
S'-filter_size'
p4526
aS'4'
aatRp4527
sS'result'
p4528
g222
(g224
S'\x8f\xc2\xf5(\\\x8f\x02@'
tRp4529
sS'duration'
p4530
g222
(g224
S'\xf0\xa7\xc6K79h@'
tRp4531
sS'instance_status'
p4532
g227
(g228
(I0
tS'b'
tRp4533
(I1
(I1
tg223
(S'i8'
I0
I1
tRp4534
(I3
S'<'
NNNI-1
I-1
I0
tbI00
S'\x03\x00\x00\x00\x00\x00\x00\x00'
tbsa(dp4535
S'status'
p4536
I3
sS'std'
p4537
g222
(g224
S'\x00\x00\x00\x00\x00\x00\x00\x00'
tRp4538
sS'instance_durations'
p4539
g227
(g228
(I0
tS'b'
tRp4540
(I1
(I1
tg223
(S'f8'
I0
I1
tRp4541
(I3
S'<'
NNNI-1
I-1
I0
tbI00
S'\xb6\xf3\xfd\xd4x\xe1R@'
tbsS'instance_results'
p4542
g227
(g228
(I0
tS'b'
tRp4543
(I1
(I1
tg4541
I00
S'\xecQ\xb8\x1e\x85\xeb\xf5?'
tbsS'instance_status'
p4544
g227
(g228
(I0
tS'b'
tRp4545
(I1
(I1
tg223
(S'i8'
I0
I1
tRp4546
(I3
S'<'
NNNI-1
I-1
I0
tbI00
S'\x03\x00\x00\x00\x00\x00\x00\x00'
tbsS'params'
p4547
g237
((lp4548
(lp4549
S'-conv1_depth'
p4550
aS'43'
p4551
aa(lp4552
S'-conv2_depth'
p4553
aS'377'
p4554
aa(lp4555
S'-fc_depth'
p4556
aS'512'
p4557
aa(lp4558
S'-filter_size'
p4559
aS'6'
aatRp4560
sS'result'
p4561
g222
(g224
S'\xecQ\xb8\x1e\x85\xeb\xf5?'
tRp4562
sS'duration'
p4563
g222
(g224
S'\xb6\xf3\xfd\xd4x\xe1R@'
tRp4564
sS'test_error'
p4565
Fnan
sa(dp4566
S'status'
p4567
I3
sS'std'
p4568
g222
(g224
S'\x00\x00\x00\x00\x00\x00\x00\x00'
tRp4569
sS'instance_durations'
p4570
g227
(g228
(I0
tS'b'
tRp4571
(I1
(I1
tg223
(S'f8'
I0
I1
tRp4572
(I3
S'<'
NNNI-1
I-1
I0
tbI00
S'\xc6\xdc\xb5\x84|\x8cR@'
tbsS'instance_results'
p4573
g227
(g228
(I0
tS'b'
tRp4574
(I1
(I1
tg4572
I00
S'\xb8\x1e\x85\xebQ\xb8\x1d@'
tbsS'test_error'
p4575
Fnan
sS'params'
p4576
g237
((lp4577
(lp4578
S'-conv1_depth'
p4579
aS'343'
p4580
aa(lp4581
S'-conv2_depth'
p4582
aS'201'
p4583
aa(lp4584
S'-fc_depth'
p4585
aS'512'
p4586
aa(lp4587
S'-filter_size'
p4588
aS'1'
aatRp4589
sS'result'
p4590
g222
(g224
S'\xb8\x1e\x85\xebQ\xb8\x1d@'
tRp4591
sS'duration'
p4592
g222
(g224
S'\xc6\xdc\xb5\x84|\x8cR@'
tRp4593
sS'instance_status'
p4594
g227
(g228
(I0
tS'b'
tRp4595
(I1
(I1
tg223
(S'i8'
I0
I1
tRp4596
(I3
S'<'
NNNI-1
I-1
I0
tbI00
S'\x03\x00\x00\x00\x00\x00\x00\x00'
tbsa(dp4597
S'status'
p4598
I3
sS'std'
p4599
g222
(g224
S'\x00\x00\x00\x00\x00\x00\x00\x00'
tRp4600
sS'instance_durations'
p4601
g227
(g228
(I0
tS'b'
tRp4602
(I1
(I1
tg223
(S'f8'
I0
I1
tRp4603
(I3
S'<'
NNNI-1
I-1
I0
tbI00
S'33333\xa3e@'
tbsS'instance_results'
p4604
g227
(g228
(I0
tS'b'
tRp4605
(I1
(I1
tg4603
I00
S'\xaeG\xe1z\x14nV@'
tbsS'instance_status'
p4606
g227
(g228
(I0
tS'b'
tRp4607
(I1
(I1
tg223
(S'i8'
I0
I1
tRp4608
(I3
S'<'
NNNI-1
I-1
I0
tbI00
S'\x03\x00\x00\x00\x00\x00\x00\x00'
tbsS'params'
p4609
g237
((lp4610
(lp4611
S'-conv1_depth'
p4612
aS'512'
p4613
aa(lp4614
S'-conv2_depth'
p4615
aS'133'
p4616
aa(lp4617
S'-fc_depth'
p4618
aS'512'
p4619
aa(lp4620
S'-filter_size'
p4621
aS'5'
aatRp4622
sS'result'
p4623
g222
(g224
S'\xaeG\xe1z\x14nV@'
tRp4624
sS'duration'
p4625
g222
(g224
S'33333\xa3e@'
tRp4626
sS'test_error'
p4627
Fnan
sa(dp4628
S'status'
p4629
I3
sS'std'
p4630
g222
(g224
S'\x00\x00\x00\x00\x00\x00\x00\x00'
tRp4631
sS'instance_durations'
p4632
g227
(g228
(I0
tS'b'
tRp4633
(I1
(I1
tg223
(S'f8'
I0
I1
tRp4634
(I3
S'<'
NNNI-1
I-1
I0
tbI00
S'\x00\x00\x00\x00\x00\x80d@'
tbsS'instance_results'
p4635
g227
(g228
(I0
tS'b'
tRp4636
(I1
(I1
tg4634
I00
S'\x1f\x85\xebQ\xb8\x1e\xf5?'
tbsS'instance_status'
p4637
g227
(g228
(I0
tS'b'
tRp4638
(I1
(I1
tg223
(S'i8'
I0
I1
tRp4639
(I3
S'<'
NNNI-1
I-1
I0
tbI00
S'\x03\x00\x00\x00\x00\x00\x00\x00'
tbsS'params'
p4640
g237
((lp4641
(lp4642
S'-conv1_depth'
p4643
aS'165'
p4644
aa(lp4645
S'-conv2_depth'
p4646
aS'512'
p4647
aa(lp4648
S'-fc_depth'
p4649
aS'512'
p4650
aa(lp4651
S'-filter_size'
p4652
aS'5'
aatRp4653
sS'result'
p4654
g222
(g224
S'\x1f\x85\xebQ\xb8\x1e\xf5?'
tRp4655
sS'duration'
p4656
g222
(g224
S'\x00\x00\x00\x00\x00\x80d@'
tRp4657
sS'test_error'
p4658
Fnan
sa(dp4659
S'status'
p4660
I3
sS'std'
p4661
g222
(g224
S'\x00\x00\x00\x00\x00\x00\x00\x00'
tRp4662
sS'instance_durations'
p4663
g227
(g228
(I0
tS'b'
tRp4664
(I1
(I1
tg223
(S'f8'
I0
I1
tRp4665
(I3
S'<'
NNNI-1
I-1
I0
tbI00
S')\\\x8f\xc2\xf5\x9ce@'
tbsS'instance_results'
p4666
g227
(g228
(I0
tS'b'
tRp4667
(I1
(I1
tg4665
I00
S'\x9a\x99\x99\x99\x99\x99\xf5?'
tbsS'test_error'
p4668
Fnan
sS'params'
p4669
g237
((lp4670
(lp4671
S'-conv1_depth'
p4672
aS'421'
p4673
aa(lp4674
S'-conv2_depth'
p4675
aS'171'
p4676
aa(lp4677
S'-fc_depth'
p4678
aS'328'
p4679
aa(lp4680
S'-filter_size'
p4681
aS'5'
aatRp4682
sS'result'
p4683
g222
(g224
S'\x9a\x99\x99\x99\x99\x99\xf5?'
tRp4684
sS'duration'
p4685
g222
(g224
S')\\\x8f\xc2\xf5\x9ce@'
tRp4686
sS'instance_status'
p4687
g227
(g228
(I0
tS'b'
tRp4688
(I1
(I1
tg223
(S'i8'
I0
I1
tRp4689
(I3
S'<'
NNNI-1
I-1
I0
tbI00
S'\x03\x00\x00\x00\x00\x00\x00\x00'
tbsa(dp4690
S'status'
p4691
I3
sS'std'
p4692
g222
(g224
S'\x00\x00\x00\x00\x00\x00\x00\x00'
tRp4693
sS'instance_durations'
p4694
g227
(g228
(I0
tS'b'
tRp4695
(I1
(I1
tg223
(S'f8'
I0
I1
tRp4696
(I3
S'<'
NNNI-1
I-1
I0
tbI00
S'\x16\xfb\xcb\xee\xc930@'
tbsS'instance_results'
p4697
g227
(g228
(I0
tS'b'
tRp4698
(I1
(I1
tg4696
I00
S'\xcd\xcc\xcc\xcc\xccL @'
tbsS'test_error'
p4699
Fnan
sS'params'
p4700
g237
((lp4701
(lp4702
S'-conv1_depth'
p4703
aS'49'
p4704
aa(lp4705
S'-conv2_depth'
p4706
aS'1'
aa(lp4707
S'-fc_depth'
p4708
aS'174'
p4709
aa(lp4710
S'-filter_size'
p4711
aS'1'
aatRp4712
sS'result'
p4713
g222
(g224
S'\xcd\xcc\xcc\xcc\xccL @'
tRp4714
sS'duration'
p4715
g222
(g224
S'\x16\xfb\xcb\xee\xc930@'
tRp4716
sS'instance_status'
p4717
g227
(g228
(I0
tS'b'
tRp4718
(I1
(I1
tg223
(S'i8'
I0
I1
tRp4719
(I3
S'<'
NNNI-1
I-1
I0
tbI00
S'\x03\x00\x00\x00\x00\x00\x00\x00'
tbsa(dp4720
S'status'
p4721
I3
sS'std'
p4722
g222
(g224
S'\x00\x00\x00\x00\x00\x00\x00\x00'
tRp4723
sS'instance_durations'
p4724
g227
(g228
(I0
tS'b'
tRp4725
(I1
(I1
tg223
(S'f8'
I0
I1
tRp4726
(I3
S'<'
NNNI-1
I-1
I0
tbI00
S'b\x10X9\xb4hg@'
tbsS'instance_results'
p4727
g227
(g228
(I0
tS'b'
tRp4728
(I1
(I1
tg4726
I00
S'\x1f\x85\xebQ\xb8\x1e\xf9?'
tbsS'instance_status'
p4729
g227
(g228
(I0
tS'b'
tRp4730
(I1
(I1
tg223
(S'i8'
I0
I1
tRp4731
(I3
S'<'
NNNI-1
I-1
I0
tbI00
S'\x03\x00\x00\x00\x00\x00\x00\x00'
tbsS'params'
p4732
g237
((lp4733
(lp4734
S'-conv1_depth'
p4735
aS'367'
p4736
aa(lp4737
S'-conv2_depth'
p4738
aS'253'
p4739
aa(lp4740
S'-fc_depth'
p4741
aS'355'
p4742
aa(lp4743
S'-filter_size'
p4744
aS'5'
aatRp4745
sS'result'
p4746
g222
(g224
S'\x1f\x85\xebQ\xb8\x1e\xf9?'
tRp4747
sS'duration'
p4748
g222
(g224
S'b\x10X9\xb4hg@'
tRp4749
sS'test_error'
p4750
Fnan
sa(dp4751
S'status'
p4752
I3
sS'std'
p4753
g222
(g224
S'\x00\x00\x00\x00\x00\x00\x00\x00'
tRp4754
sS'instance_durations'
p4755
g227
(g228
(I0
tS'b'
tRp4756
(I1
(I1
tg223
(S'f8'
I0
I1
tRp4757
(I3
S'<'
NNNI-1
I-1
I0
tbI00
S'\xc5\xfe\xb2{\xf2(P@'
tbsS'instance_results'
p4758
g227
(g228
(I0
tS'b'
tRp4759
(I1
(I1
tg4757
I00
S'\x1f\x85\xebQ\xb8\x1e\x0f@'
tbsS'test_error'
p4760
Fnan
sS'params'
p4761
g237
((lp4762
(lp4763
S'-conv1_depth'
p4764
aS'1'
aa(lp4765
S'-conv2_depth'
p4766
aS'512'
p4767
aa(lp4768
S'-fc_depth'
p4769
aS'512'
p4770
aa(lp4771
S'-filter_size'
p4772
aS'5'
aatRp4773
sS'result'
p4774
g222
(g224
S'\x1f\x85\xebQ\xb8\x1e\x0f@'
tRp4775
sS'duration'
p4776
g222
(g224
S'\xc5\xfe\xb2{\xf2(P@'
tRp4777
sS'instance_status'
p4778
g227
(g228
(I0
tS'b'
tRp4779
(I1
(I1
tg223
(S'i8'
I0
I1
tRp4780
(I3
S'<'
NNNI-1
I-1
I0
tbI00
S'\x03\x00\x00\x00\x00\x00\x00\x00'
tbsa(dp4781
S'status'
p4782
I3
sS'std'
p4783
g222
(g224
S'\x00\x00\x00\x00\x00\x00\x00\x00'
tRp4784
sS'instance_durations'
p4785
g227
(g228
(I0
tS'b'
tRp4786
(I1
(I1
tg223
(S'f8'
I0
I1
tRp4787
(I3
S'<'
NNNI-1
I-1
I0
tbI00
S'\x1b\x9e^)\xcb\xd0.@'
tbsS'instance_results'
p4788
g227
(g228
(I0
tS'b'
tRp4789
(I1
(I1
tg4787
I00
S'ffffff\x14@'
tbsS'instance_status'
p4790
g227
(g228
(I0
tS'b'
tRp4791
(I1
(I1
tg223
(S'i8'
I0
I1
tRp4792
(I3
S'<'
NNNI-1
I-1
I0
tbI00
S'\x03\x00\x00\x00\x00\x00\x00\x00'
tbsS'params'
p4793
g237
((lp4794
(lp4795
S'-conv1_depth'
p4796
aS'1'
aa(lp4797
S'-conv2_depth'
p4798
aS'1'
aa(lp4799
S'-fc_depth'
p4800
aS'159'
p4801
aa(lp4802
S'-filter_size'
p4803
aS'14'
p4804
aatRp4805
sS'result'
p4806
g222
(g224
S'ffffff\x14@'
tRp4807
sS'duration'
p4808
g222
(g224
S'\x1b\x9e^)\xcb\xd0.@'
tRp4809
sS'test_error'
p4810
Fnan
sa(dp4811
S'status'
p4812
I3
sS'std'
p4813
g222
(g224
S'\x00\x00\x00\x00\x00\x00\x00\x00'
tRp4814
sS'instance_durations'
p4815
g227
(g228
(I0
tS'b'
tRp4816
(I1
(I1
tg223
(S'f8'
I0
I1
tRp4817
(I3
S'<'
NNNI-1
I-1
I0
tbI00
S'\x9aw\x9c\xa2#%P@'
tbsS'instance_results'
p4818
g227
(g228
(I0
tS'b'
tRp4819
(I1
(I1
tg4817
I00
S'\xf6(\\\x8f\xc2\xf5\xfc?'
tbsS'test_error'
p4820
Fnan
sS'params'
p4821
g237
((lp4822
(lp4823
S'-conv1_depth'
p4824
aS'119'
p4825
aa(lp4826
S'-conv2_depth'
p4827
aS'386'
p4828
aa(lp4829
S'-fc_depth'
p4830
aS'148'
p4831
aa(lp4832
S'-filter_size'
p4833
aS'3'
aatRp4834
sS'result'
p4835
g222
(g224
S'\xf6(\\\x8f\xc2\xf5\xfc?'
tRp4836
sS'duration'
p4837
g222
(g224
S'\x9aw\x9c\xa2#%P@'
tRp4838
sS'instance_status'
p4839
g227
(g228
(I0
tS'b'
tRp4840
(I1
(I1
tg223
(S'i8'
I0
I1
tRp4841
(I3
S'<'
NNNI-1
I-1
I0
tbI00
S'\x03\x00\x00\x00\x00\x00\x00\x00'
tbsa(dp4842
S'status'
p4843
I3
sS'std'
p4844
g222
(g224
S'\x00\x00\x00\x00\x00\x00\x00\x00'
tRp4845
sS'instance_durations'
p4846
g227
(g228
(I0
tS'b'
tRp4847
(I1
(I1
tg223
(S'f8'
I0
I1
tRp4848
(I3
S'<'
NNNI-1
I-1
I0
tbI00
S'\xa0\x1a/\xdd$\xa2a@'
tbsS'instance_results'
p4849
g227
(g228
(I0
tS'b'
tRp4850
(I1
(I1
tg4848
I00
S'\xa4p=\n\xd7\xa3\xf4?'
tbsS'instance_status'
p4851
g227
(g228
(I0
tS'b'
tRp4852
(I1
(I1
tg223
(S'i8'
I0
I1
tRp4853
(I3
S'<'
NNNI-1
I-1
I0
tbI00
S'\x03\x00\x00\x00\x00\x00\x00\x00'
tbsS'params'
p4854
g237
((lp4855
(lp4856
S'-conv1_depth'
p4857
aS'415'
p4858
aa(lp4859
S'-conv2_depth'
p4860
aS'156'
p4861
aa(lp4862
S'-fc_depth'
p4863
aS'377'
p4864
aa(lp4865
S'-filter_size'
p4866
aS'4'
aatRp4867
sS'result'
p4868
g222
(g224
S'\xa4p=\n\xd7\xa3\xf4?'
tRp4869
sS'duration'
p4870
g222
(g224
S'\xa0\x1a/\xdd$\xa2a@'
tRp4871
sS'test_error'
p4872
Fnan
sa(dp4873
S'status'
p4874
I3
sS'std'
p4875
g222
(g224
S'\x00\x00\x00\x00\x00\x00\x00\x00'
tRp4876
sS'instance_durations'
p4877
g227
(g228
(I0
tS'b'
tRp4878
(I1
(I1
tg223
(S'f8'
I0
I1
tRp4879
(I3
S'<'
NNNI-1
I-1
I0
tbI00
S'\xac\x1cZd;sa@'
tbsS'instance_results'
p4880
g227
(g228
(I0
tS'b'
tRp4881
(I1
(I1
tg4879
I00
S'\xa4p=\n\xd7\xa3\xf4?'
tbsS'instance_status'
p4882
g227
(g228
(I0
tS'b'
tRp4883
(I1
(I1
tg223
(S'i8'
I0
I1
tRp4884
(I3
S'<'
NNNI-1
I-1
I0
tbI00
S'\x03\x00\x00\x00\x00\x00\x00\x00'
tbsS'params'
p4885
g237
((lp4886
(lp4887
S'-conv1_depth'
p4888
aS'430'
p4889
aa(lp4890
S'-conv2_depth'
p4891
aS'119'
p4892
aa(lp4893
S'-fc_depth'
p4894
aS'362'
p4895
aa(lp4896
S'-filter_size'
p4897
aS'5'
aatRp4898
sS'result'
p4899
g222
(g224
S'\xa4p=\n\xd7\xa3\xf4?'
tRp4900
sS'duration'
p4901
g222
(g224
S'\xac\x1cZd;sa@'
tRp4902
sS'test_error'
p4903
Fnan
sa(dp4904
S'status'
p4905
I3
sS'std'
p4906
g222
(g224
S'\x00\x00\x00\x00\x00\x00\x00\x00'
tRp4907
sS'instance_durations'
p4908
g227
(g228
(I0
tS'b'
tRp4909
(I1
(I1
tg223
(S'f8'
I0
I1
tRp4910
(I3
S'<'
NNNI-1
I-1
I0
tbI00
S'\xb0\x03\xe7\x8c(MR@'
tbsS'instance_results'
p4911
g227
(g228
(I0
tS'b'
tRp4912
(I1
(I1
tg4910
I00
S'\xecQ\xb8\x1e\x85\xeb\x1f@'
tbsS'test_error'
p4913
Fnan
sS'params'
p4914
g237
((lp4915
(lp4916
S'-conv1_depth'
p4917
aS'512'
p4918
aa(lp4919
S'-conv2_depth'
p4920
aS'30'
p4921
aa(lp4922
S'-fc_depth'
p4923
aS'113'
p4924
aa(lp4925
S'-filter_size'
p4926
aS'1'
aatRp4927
sS'result'
p4928
g222
(g224
S'\xecQ\xb8\x1e\x85\xeb\x1f@'
tRp4929
sS'duration'
p4930
g222
(g224
S'\xb0\x03\xe7\x8c(MR@'
tRp4931
sS'instance_status'
p4932
g227
(g228
(I0
tS'b'
tRp4933
(I1
(I1
tg223
(S'i8'
I0
I1
tRp4934
(I3
S'<'
NNNI-1
I-1
I0
tbI00
S'\x03\x00\x00\x00\x00\x00\x00\x00'
tbsa(dp4935
S'status'
p4936
I3
sS'std'
p4937
g222
(g224
S'\x00\x00\x00\x00\x00\x00\x00\x00'
tRp4938
sS'instance_durations'
p4939
g227
(g228
(I0
tS'b'
tRp4940
(I1
(I1
tg223
(S'f8'
I0
I1
tRp4941
(I3
S'<'
NNNI-1
I-1
I0
tbI00
S'sh\x91\xed|\xbbs@'
tbsS'instance_results'
p4942
g227
(g228
(I0
tS'b'
tRp4943
(I1
(I1
tg4941
I00
S'\xe1z\x14\xaeG\xe1\x06@'
tbsS'instance_status'
p4944
g227
(g228
(I0
tS'b'
tRp4945
(I1
(I1
tg223
(S'i8'
I0
I1
tRp4946
(I3
S'<'
NNNI-1
I-1
I0
tbI00
S'\x03\x00\x00\x00\x00\x00\x00\x00'
tbsS'params'
p4947
g237
((lp4948
(lp4949
S'-conv1_depth'
p4950
aS'358'
p4951
aa(lp4952
S'-conv2_depth'
p4953
aS'489'
p4954
aa(lp4955
S'-fc_depth'
p4956
aS'512'
p4957
aa(lp4958
S'-filter_size'
p4959
aS'5'
aatRp4960
sS'result'
p4961
g222
(g224
S'\xe1z\x14\xaeG\xe1\x06@'
tRp4962
sS'duration'
p4963
g222
(g224
S'sh\x91\xed|\xbbs@'
tRp4964
sS'test_error'
p4965
Fnan
sa(dp4966
S'status'
p4967
I3
sS'std'
p4968
g222
(g224
S'\x00\x00\x00\x00\x00\x00\x00\x00'
tRp4969
sS'instance_durations'
p4970
g227
(g228
(I0
tS'b'
tRp4971
(I1
(I1
tg223
(S'f8'
I0
I1
tRp4972
(I3
S'<'
NNNI-1
I-1
I0
tbI00
S'\xfe\xd4x\xe9&\xd3r@'
tbsS'instance_results'
p4973
g227
(g228
(I0
tS'b'
tRp4974
(I1
(I1
tg4972
I00
S'\xaeG\xe1z\x14nV@'
tbsS'test_error'
p4975
Fnan
sS'params'
p4976
g237
((lp4977
(lp4978
S'-conv1_depth'
p4979
aS'340'
p4980
aa(lp4981
S'-conv2_depth'
p4982
aS'505'
p4983
aa(lp4984
S'-fc_depth'
p4985
aS'294'
p4986
aa(lp4987
S'-filter_size'
p4988
aS'5'
aatRp4989
sS'result'
p4990
g222
(g224
S'\xaeG\xe1z\x14nV@'
tRp4991
sS'duration'
p4992
g222
(g224
S'\xfe\xd4x\xe9&\xd3r@'
tRp4993
sS'instance_status'
p4994
g227
(g228
(I0
tS'b'
tRp4995
(I1
(I1
tg223
(S'i8'
I0
I1
tRp4996
(I3
S'<'
NNNI-1
I-1
I0
tbI00
S'\x03\x00\x00\x00\x00\x00\x00\x00'
tbsa(dp4997
S'status'
p4998
I3
sS'std'
p4999
g222
(g224
S'\x00\x00\x00\x00\x00\x00\x00\x00'
tRp5000
sS'instance_durations'
p5001
g227
(g228
(I0
tS'b'
tRp5002
(I1
(I1
tg223
(S'f8'
I0
I1
tRp5003
(I3
S'<'
NNNI-1
I-1
I0
tbI00
S'|a2U0"T@'
tbsS'instance_results'
p5004
g227
(g228
(I0
tS'b'
tRp5005
(I1
(I1
tg5003
I00
S'=\n\xd7\xa3p=\x04@'
tbsS'test_error'
p5006
Fnan
sS'params'
p5007
g237
((lp5008
(lp5009
S'-conv1_depth'
p5010
aS'416'
p5011
aa(lp5012
S'-conv2_depth'
p5013
aS'1'
aa(lp5014
S'-fc_depth'
p5015
aS'403'
p5016
aa(lp5017
S'-filter_size'
p5018
aS'5'
aatRp5019
sS'result'
p5020
g222
(g224
S'=\n\xd7\xa3p=\x04@'
tRp5021
sS'duration'
p5022
g222
(g224
S'|a2U0"T@'
tRp5023
sS'instance_status'
p5024
g227
(g228
(I0
tS'b'
tRp5025
(I1
(I1
tg223
(S'i8'
I0
I1
tRp5026
(I3
S'<'
NNNI-1
I-1
I0
tbI00
S'\x03\x00\x00\x00\x00\x00\x00\x00'
tbsa(dp5027
S'status'
p5028
I3
sS'std'
p5029
g222
(g224
S'\x00\x00\x00\x00\x00\x00\x00\x00'
tRp5030
sS'instance_durations'
p5031
g227
(g228
(I0
tS'b'
tRp5032
(I1
(I1
tg223
(S'f8'
I0
I1
tRp5033
(I3
S'<'
NNNI-1
I-1
I0
tbI00
S'\xe0\xbe\x0e\x9c3rS@'
tbsS'instance_results'
p5034
g227
(g228
(I0
tS'b'
tRp5035
(I1
(I1
tg5033
I00
S'\xa4p=\n\xd7\xa3\x06@'
tbsS'instance_status'
p5036
g227
(g228
(I0
tS'b'
tRp5037
(I1
(I1
tg223
(S'i8'
I0
I1
tRp5038
(I3
S'<'
NNNI-1
I-1
I0
tbI00
S'\x03\x00\x00\x00\x00\x00\x00\x00'
tbsS'params'
p5039
g237
((lp5040
(lp5041
S'-conv1_depth'
p5042
aS'388'
p5043
aa(lp5044
S'-conv2_depth'
p5045
aS'1'
aa(lp5046
S'-fc_depth'
p5047
aS'299'
p5048
aa(lp5049
S'-filter_size'
p5050
aS'5'
aatRp5051
sS'result'
p5052
g222
(g224
S'\xa4p=\n\xd7\xa3\x06@'
tRp5053
sS'duration'
p5054
g222
(g224
S'\xe0\xbe\x0e\x9c3rS@'
tRp5055
sS'test_error'
p5056
Fnan
sa(dp5057
S'status'
p5058
I3
sS'std'
p5059
g222
(g224
S'\x00\x00\x00\x00\x00\x00\x00\x00'
tRp5060
sS'instance_durations'
p5061
g227
(g228
(I0
tS'b'
tRp5062
(I1
(I1
tg223
(S'f8'
I0
I1
tRp5063
(I3
S'<'
NNNI-1
I-1
I0
tbI00
S'\x8c\xdbh\x00o\x19X@'
tbsS'instance_results'
p5064
g227
(g228
(I0
tS'b'
tRp5065
(I1
(I1
tg5063
I00
S'\xaeG\xe1z\x14nV@'
tbsS'test_error'
p5066
Fnan
sS'params'
p5067
g237
((lp5068
(lp5069
S'-conv1_depth'
p5070
aS'512'
p5071
aa(lp5072
S'-conv2_depth'
p5073
aS'4'
aa(lp5074
S'-fc_depth'
p5075
aS'510'
p5076
aa(lp5077
S'-filter_size'
p5078
aS'5'
aatRp5079
sS'result'
p5080
g222
(g224
S'\xaeG\xe1z\x14nV@'
tRp5081
sS'duration'
p5082
g222
(g224
S'\x8c\xdbh\x00o\x19X@'
tRp5083
sS'instance_status'
p5084
g227
(g228
(I0
tS'b'
tRp5085
(I1
(I1
tg223
(S'i8'
I0
I1
tRp5086
(I3
S'<'
NNNI-1
I-1
I0
tbI00
S'\x03\x00\x00\x00\x00\x00\x00\x00'
tbsa(dp5087
S'status'
p5088
I3
sS'std'
p5089
g222
(g224
S'\x00\x00\x00\x00\x00\x00\x00\x00'
tRp5090
sS'instance_durations'
p5091
g227
(g228
(I0
tS'b'
tRp5092
(I1
(I1
tg223
(S'f8'
I0
I1
tRp5093
(I3
S'<'
NNNI-1
I-1
I0
tbI00
S'\x14\xaeG\xe1z\x8cj@'
tbsS'instance_results'
p5094
g227
(g228
(I0
tS'b'
tRp5095
(I1
(I1
tg5093
I00
S'\x1f\x85\xebQ\xb8\x1e\x03@'
tbsS'test_error'
p5096
Fnan
sS'params'
p5097
g237
((lp5098
(lp5099
S'-conv1_depth'
p5100
aS'405'
p5101
aa(lp5102
S'-conv2_depth'
p5103
aS'256'
p5104
aa(lp5105
S'-fc_depth'
p5106
aS'504'
p5107
aa(lp5108
S'-filter_size'
p5109
aS'6'
aatRp5110
sS'result'
p5111
g222
(g224
S'\x1f\x85\xebQ\xb8\x1e\x03@'
tRp5112
sS'duration'
p5113
g222
(g224
S'\x14\xaeG\xe1z\x8cj@'
tRp5114
sS'instance_status'
p5115
g227
(g228
(I0
tS'b'
tRp5116
(I1
(I1
tg223
(S'i8'
I0
I1
tRp5117
(I3
S'<'
NNNI-1
I-1
I0
tbI00
S'\x03\x00\x00\x00\x00\x00\x00\x00'
tbsa(dp5118
S'status'
p5119
I3
sS'std'
p5120
g222
(g224
S'\x00\x00\x00\x00\x00\x00\x00\x00'
tRp5121
sS'instance_durations'
p5122
g227
(g228
(I0
tS'b'
tRp5123
(I1
(I1
tg223
(S'f8'
I0
I1
tRp5124
(I3
S'<'
NNNI-1
I-1
I0
tbI00
S'\xf8S\xe3\xa5\x9bDr@'
tbsS'instance_results'
p5125
g227
(g228
(I0
tS'b'
tRp5126
(I1
(I1
tg5124
I00
S'\x8f\xc2\xf5(\\\x8f\x00@'
tbsS'test_error'
p5127
Fnan
sS'params'
p5128
g237
((lp5129
(lp5130
S'-conv1_depth'
p5131
aS'512'
p5132
aa(lp5133
S'-conv2_depth'
p5134
aS'315'
p5135
aa(lp5136
S'-fc_depth'
p5137
aS'512'
p5138
aa(lp5139
S'-filter_size'
p5140
aS'5'
aatRp5141
sS'result'
p5142
g222
(g224
S'\x8f\xc2\xf5(\\\x8f\x00@'
tRp5143
sS'duration'
p5144
g222
(g224
S'\xf8S\xe3\xa5\x9bDr@'
tRp5145
sS'instance_status'
p5146
g227
(g228
(I0
tS'b'
tRp5147
(I1
(I1
tg223
(S'i8'
I0
I1
tRp5148
(I3
S'<'
NNNI-1
I-1
I0
tbI00
S'\x03\x00\x00\x00\x00\x00\x00\x00'
tbsa(dp5149
S'status'
p5150
I3
sS'std'
p5151
g222
(g224
S'\x00\x00\x00\x00\x00\x00\x00\x00'
tRp5152
sS'instance_durations'
p5153
g227
(g228
(I0
tS'b'
tRp5154
(I1
(I1
tg223
(S'f8'
I0
I1
tRp5155
(I3
S'<'
NNNI-1
I-1
I0
tbI00
S'\x19\xe2X\x17\xb7\xb1A@'
tbsS'instance_results'
p5156
g227
(g228
(I0
tS'b'
tRp5157
(I1
(I1
tg5155
I00
S'\xaeG\xe1z\x14nV@'
tbsS'instance_status'
p5158
g227
(g228
(I0
tS'b'
tRp5159
(I1
(I1
tg223
(S'i8'
I0
I1
tRp5160
(I3
S'<'
NNNI-1
I-1
I0
tbI00
S'\x03\x00\x00\x00\x00\x00\x00\x00'
tbsS'params'
p5161
g237
((lp5162
(lp5163
S'-conv1_depth'
p5164
aS'1'
aa(lp5165
S'-conv2_depth'
p5166
aS'512'
p5167
aa(lp5168
S'-fc_depth'
p5169
aS'97'
p5170
aa(lp5171
S'-filter_size'
p5172
aS'3'
aatRp5173
sS'result'
p5174
g222
(g224
S'\xaeG\xe1z\x14nV@'
tRp5175
sS'duration'
p5176
g222
(g224
S'\x19\xe2X\x17\xb7\xb1A@'
tRp5177
sS'test_error'
p5178
Fnan
sa(dp5179
S'status'
p5180
I3
sS'std'
p5181
g222
(g224
S'\x00\x00\x00\x00\x00\x00\x00\x00'
tRp5182
sS'instance_durations'
p5183
g227
(g228
(I0
tS'b'
tRp5184
(I1
(I1
tg223
(S'f8'
I0
I1
tRp5185
(I3
S'<'
NNNI-1
I-1
I0
tbI00
S'fffff\xd6R@'
tbsS'instance_results'
p5186
g227
(g228
(I0
tS'b'
tRp5187
(I1
(I1
tg5185
I00
S')\\\x8f\xc2\xf5(\xf8?'
tbsS'test_error'
p5188
Fnan
sS'params'
p5189
g237
((lp5190
(lp5191
S'-conv1_depth'
p5192
aS'187'
p5193
aa(lp5194
S'-conv2_depth'
p5195
aS'313'
p5196
aa(lp5197
S'-fc_depth'
p5198
aS'170'
p5199
aa(lp5200
S'-filter_size'
p5201
aS'3'
aatRp5202
sS'result'
p5203
g222
(g224
S')\\\x8f\xc2\xf5(\xf8?'
tRp5204
sS'duration'
p5205
g222
(g224
S'fffff\xd6R@'
tRp5206
sS'instance_status'
p5207
g227
(g228
(I0
tS'b'
tRp5208
(I1
(I1
tg223
(S'i8'
I0
I1
tRp5209
(I3
S'<'
NNNI-1
I-1
I0
tbI00
S'\x03\x00\x00\x00\x00\x00\x00\x00'
tbsa(dp5210
S'status'
p5211
I3
sS'std'
p5212
g222
(g224
S'\x00\x00\x00\x00\x00\x00\x00\x00'
tRp5213
sS'instance_durations'
p5214
g227
(g228
(I0
tS'b'
tRp5215
(I1
(I1
tg223
(S'f8'
I0
I1
tRp5216
(I3
S'<'
NNNI-1
I-1
I0
tbI00
S'\xe7\xfb\xa9\xf1\xd2\xad^@'
tbsS'instance_results'
p5217
g227
(g228
(I0
tS'b'
tRp5218
(I1
(I1
tg5216
I00
S'333333\xf3?'
tbsS'test_error'
p5219
Fnan
sS'params'
p5220
g237
((lp5221
(lp5222
S'-conv1_depth'
p5223
aS'360'
p5224
aa(lp5225
S'-conv2_depth'
p5226
aS'329'
p5227
aa(lp5228
S'-fc_depth'
p5229
aS'320'
p5230
aa(lp5231
S'-filter_size'
p5232
aS'3'
aatRp5233
sS'result'
p5234
g222
(g224
S'333333\xf3?'
tRp5235
sS'duration'
p5236
g222
(g224
S'\xe7\xfb\xa9\xf1\xd2\xad^@'
tRp5237
sS'instance_status'
p5238
g227
(g228
(I0
tS'b'
tRp5239
(I1
(I1
tg223
(S'i8'
I0
I1
tRp5240
(I3
S'<'
NNNI-1
I-1
I0
tbI00
S'\x03\x00\x00\x00\x00\x00\x00\x00'
tbsa(dp5241
S'status'
p5242
I3
sS'std'
p5243
g222
(g224
S'\x00\x00\x00\x00\x00\x00\x00\x00'
tRp5244
sS'instance_durations'
p5245
g227
(g228
(I0
tS'b'
tRp5246
(I1
(I1
tg223
(S'f8'
I0
I1
tRp5247
(I3
S'<'
NNNI-1
I-1
I0
tbI00
S'\xd4\x9a\xe6\x1d\xa7 P@'
tbsS'instance_results'
p5248
g227
(g228
(I0
tS'b'
tRp5249
(I1
(I1
tg5247
I00
S'\xecQ\xb8\x1e\x85\xeb\xf5?'
tbsS'instance_status'
p5250
g227
(g228
(I0
tS'b'
tRp5251
(I1
(I1
tg223
(S'i8'
I0
I1
tRp5252
(I3
S'<'
NNNI-1
I-1
I0
tbI00
S'\x03\x00\x00\x00\x00\x00\x00\x00'
tbsS'params'
p5253
g237
((lp5254
(lp5255
S'-conv1_depth'
p5256
aS'24'
p5257
aa(lp5258
S'-conv2_depth'
p5259
aS'448'
p5260
aa(lp5261
S'-fc_depth'
p5262
aS'502'
p5263
aa(lp5264
S'-filter_size'
p5265
aS'4'
aatRp5266
sS'result'
p5267
g222
(g224
S'\xecQ\xb8\x1e\x85\xeb\xf5?'
tRp5268
sS'duration'
p5269
g222
(g224
S'\xd4\x9a\xe6\x1d\xa7 P@'
tRp5270
sS'test_error'
p5271
Fnan
sa(dp5272
S'status'
p5273
I3
sS'std'
p5274
g222
(g224
S'\x00\x00\x00\x00\x00\x00\x00\x00'
tRp5275
sS'instance_durations'
p5276
g227
(g228
(I0
tS'b'
tRp5277
(I1
(I1
tg223
(S'f8'
I0
I1
tRp5278
(I3
S'<'
NNNI-1
I-1
I0
tbI00
S'\x1a\xc0[ A\x01@@'
tbsS'instance_results'
p5279
g227
(g228
(I0
tS'b'
tRp5280
(I1
(I1
tg5278
I00
S'\xaeG\xe1z\x14nV@'
tbsS'instance_status'
p5281
g227
(g228
(I0
tS'b'
tRp5282
(I1
(I1
tg223
(S'i8'
I0
I1
tRp5283
(I3
S'<'
NNNI-1
I-1
I0
tbI00
S'\x03\x00\x00\x00\x00\x00\x00\x00'
tbsS'params'
p5284
g237
((lp5285
(lp5286
S'-conv1_depth'
p5287
aS'1'
aa(lp5288
S'-conv2_depth'
p5289
aS'202'
p5290
aa(lp5291
S'-fc_depth'
p5292
aS'489'
p5293
aa(lp5294
S'-filter_size'
p5295
aS'2'
aatRp5296
sS'result'
p5297
g222
(g224
S'\xaeG\xe1z\x14nV@'
tRp5298
sS'duration'
p5299
g222
(g224
S'\x1a\xc0[ A\x01@@'
tRp5300
sS'test_error'
p5301
Fnan
sa(dp5302
S'status'
p5303
I3
sS'std'
p5304
g222
(g224
S'\x00\x00\x00\x00\x00\x00\x00\x00'
tRp5305
sS'instance_durations'
p5306
g227
(g228
(I0
tS'b'
tRp5307
(I1
(I1
tg223
(S'f8'
I0
I1
tRp5308
(I3
S'<'
NNNI-1
I-1
I0
tbI00
S'\xf6(\\\x8f\xc2\x89j@'
tbsS'instance_results'
p5309
g227
(g228
(I0
tS'b'
tRp5310
(I1
(I1
tg5308
I00
S'\xaeG\xe1z\x14nV@'
tbsS'instance_status'
p5311
g227
(g228
(I0
tS'b'
tRp5312
(I1
(I1
tg223
(S'i8'
I0
I1
tRp5313
(I3
S'<'
NNNI-1
I-1
I0
tbI00
S'\x03\x00\x00\x00\x00\x00\x00\x00'
tbsS'params'
p5314
g237
((lp5315
(lp5316
S'-conv1_depth'
p5317
aS'434'
p5318
aa(lp5319
S'-conv2_depth'
p5320
aS'201'
p5321
aa(lp5322
S'-fc_depth'
p5323
aS'511'
p5324
aa(lp5325
S'-filter_size'
p5326
aS'6'
aatRp5327
sS'result'
p5328
g222
(g224
S'\xaeG\xe1z\x14nV@'
tRp5329
sS'duration'
p5330
g222
(g224
S'\xf6(\\\x8f\xc2\x89j@'
tRp5331
sS'test_error'
p5332
Fnan
sa(dp5333
S'status'
p5334
I3
sS'std'
p5335
g222
(g224
S'\x00\x00\x00\x00\x00\x00\x00\x00'
tRp5336
sS'instance_durations'
p5337
g227
(g228
(I0
tS'b'
tRp5338
(I1
(I1
tg223
(S'f8'
I0
I1
tRp5339
(I3
S'<'
NNNI-1
I-1
I0
tbI00
S'\x7fj\xbct\x93\xc8h@'
tbsS'instance_results'
p5340
g227
(g228
(I0
tS'b'
tRp5341
(I1
(I1
tg5339
I00
S'\x9a\x99\x99\x99\x99\x99\xf5?'
tbsS'instance_status'
p5342
g227
(g228
(I0
tS'b'
tRp5343
(I1
(I1
tg223
(S'i8'
I0
I1
tRp5344
(I3
S'<'
NNNI-1
I-1
I0
tbI00
S'\x03\x00\x00\x00\x00\x00\x00\x00'
tbsS'params'
p5345
g237
((lp5346
(lp5347
S'-conv1_depth'
p5348
aS'387'
p5349
aa(lp5350
S'-conv2_depth'
p5351
aS'240'
p5352
aa(lp5353
S'-fc_depth'
p5354
aS'508'
p5355
aa(lp5356
S'-filter_size'
p5357
aS'5'
aatRp5358
sS'result'
p5359
g222
(g224
S'\x9a\x99\x99\x99\x99\x99\xf5?'
tRp5360
sS'duration'
p5361
g222
(g224
S'\x7fj\xbct\x93\xc8h@'
tRp5362
sS'test_error'
p5363
Fnan
sa(dp5364
S'status'
p5365
I3
sS'std'
p5366
g222
(g224
S'\x00\x00\x00\x00\x00\x00\x00\x00'
tRp5367
sS'instance_durations'
p5368
g227
(g228
(I0
tS'b'
tRp5369
(I1
(I1
tg223
(S'f8'
I0
I1
tRp5370
(I3
S'<'
NNNI-1
I-1
I0
tbI00
S'\xb57\xf8\xc2d2@@'
tbsS'instance_results'
p5371
g227
(g228
(I0
tS'b'
tRp5372
(I1
(I1
tg5370
I00
S'\x85\xebQ\xb8\x1e\x85\xff?'
tbsS'test_error'
p5373
Fnan
sS'params'
p5374
g237
((lp5375
(lp5376
S'-conv1_depth'
p5377
aS'53'
p5378
aa(lp5379
S'-conv2_depth'
p5380
aS'136'
p5381
aa(lp5382
S'-fc_depth'
p5383
aS'512'
p5384
aa(lp5385
S'-filter_size'
p5386
aS'2'
aatRp5387
sS'result'
p5388
g222
(g224
S'\x85\xebQ\xb8\x1e\x85\xff?'
tRp5389
sS'duration'
p5390
g222
(g224
S'\xb57\xf8\xc2d2@@'
tRp5391
sS'instance_status'
p5392
g227
(g228
(I0
tS'b'
tRp5393
(I1
(I1
tg223
(S'i8'
I0
I1
tRp5394
(I3
S'<'
NNNI-1
I-1
I0
tbI00
S'\x03\x00\x00\x00\x00\x00\x00\x00'
tbsa(dp5395
S'status'
p5396
I3
sS'std'
p5397
g222
(g224
S'\x00\x00\x00\x00\x00\x00\x00\x00'
tRp5398
sS'instance_durations'
p5399
g227
(g228
(I0
tS'b'
tRp5400
(I1
(I1
tg223
(S'f8'
I0
I1
tRp5401
(I3
S'<'
NNNI-1
I-1
I0
tbI00
S'y\xe9&1\x08Ta@'
tbsS'instance_results'
p5402
g227
(g228
(I0
tS'b'
tRp5403
(I1
(I1
tg5401
I00
S'q=\n\xd7\xa3p\xf9?'
tbsS'instance_status'
p5404
g227
(g228
(I0
tS'b'
tRp5405
(I1
(I1
tg223
(S'i8'
I0
I1
tRp5406
(I3
S'<'
NNNI-1
I-1
I0
tbI00
S'\x03\x00\x00\x00\x00\x00\x00\x00'
tbsS'params'
p5407
g237
((lp5408
(lp5409
S'-conv1_depth'
p5410
aS'434'
p5411
aa(lp5412
S'-conv2_depth'
p5413
aS'408'
p5414
aa(lp5415
S'-fc_depth'
p5416
aS'462'
p5417
aa(lp5418
S'-filter_size'
p5419
aS'2'
aatRp5420
sS'result'
p5421
g222
(g224
S'q=\n\xd7\xa3p\xf9?'
tRp5422
sS'duration'
p5423
g222
(g224
S'y\xe9&1\x08Ta@'
tRp5424
sS'test_error'
p5425
Fnan
sa(dp5426
S'status'
p5427
I3
sS'std'
p5428
g222
(g224
S'\x00\x00\x00\x00\x00\x00\x00\x00'
tRp5429
sS'instance_durations'
p5430
g227
(g228
(I0
tS'b'
tRp5431
(I1
(I1
tg223
(S'f8'
I0
I1
tRp5432
(I3
S'<'
NNNI-1
I-1
I0
tbI00
S'\xe1z\x14\xaeGqo@'
tbsS'instance_results'
p5433
g227
(g228
(I0
tS'b'
tRp5434
(I1
(I1
tg5432
I00
S'\\\x8f\xc2\xf5(\\\xff?'
tbsS'test_error'
p5435
Fnan
sS'params'
p5436
g237
((lp5437
(lp5438
S'-conv1_depth'
p5439
aS'453'
p5440
aa(lp5441
S'-conv2_depth'
p5442
aS'259'
p5443
aa(lp5444
S'-fc_depth'
p5445
aS'503'
p5446
aa(lp5447
S'-filter_size'
p5448
aS'5'
aatRp5449
sS'result'
p5450
g222
(g224
S'\\\x8f\xc2\xf5(\\\xff?'
tRp5451
sS'duration'
p5452
g222
(g224
S'\xe1z\x14\xaeGqo@'
tRp5453
sS'instance_status'
p5454
g227
(g228
(I0
tS'b'
tRp5455
(I1
(I1
tg223
(S'i8'
I0
I1
tRp5456
(I3
S'<'
NNNI-1
I-1
I0
tbI00
S'\x03\x00\x00\x00\x00\x00\x00\x00'
tbsa(dp5457
S'status'
p5458
I3
sS'std'
p5459
g222
(g224
S'\x00\x00\x00\x00\x00\x00\x00\x00'
tRp5460
sS'instance_durations'
p5461
g227
(g228
(I0
tS'b'
tRp5462
(I1
(I1
tg223
(S'f8'
I0
I1
tRp5463
(I3
S'<'
NNNI-1
I-1
I0
tbI00
S'\xa5N@\x13a\x83N@'
tbsS'instance_results'
p5464
g227
(g228
(I0
tS'b'
tRp5465
(I1
(I1
tg5463
I00
S'\xcd\xcc\xcc\xcc\xcc\xcc\xf8?'
tbsS'instance_status'
p5466
g227
(g228
(I0
tS'b'
tRp5467
(I1
(I1
tg223
(S'i8'
I0
I1
tRp5468
(I3
S'<'
NNNI-1
I-1
I0
tbI00
S'\x03\x00\x00\x00\x00\x00\x00\x00'
tbsS'params'
p5469
g237
((lp5470
(lp5471
S'-conv1_depth'
p5472
aS'100'
p5473
aa(lp5474
S'-conv2_depth'
p5475
aS'409'
p5476
aa(lp5477
S'-fc_depth'
p5478
aS'122'
p5479
aa(lp5480
S'-filter_size'
p5481
aS'3'
aatRp5482
sS'result'
p5483
g222
(g224
S'\xcd\xcc\xcc\xcc\xcc\xcc\xf8?'
tRp5484
sS'duration'
p5485
g222
(g224
S'\xa5N@\x13a\x83N@'
tRp5486
sS'test_error'
p5487
Fnan
sa(dp5488
S'status'
p5489
I3
sS'std'
p5490
g222
(g224
S'\x00\x00\x00\x00\x00\x00\x00\x00'
tRp5491
sS'instance_durations'
p5492
g227
(g228
(I0
tS'b'
tRp5493
(I1
(I1
tg223
(S'f8'
I0
I1
tRp5494
(I3
S'<'
NNNI-1
I-1
I0
tbI00
S'\x89A`\xe5\xd0\x12`@'
tbsS'instance_results'
p5495
g227
(g228
(I0
tS'b'
tRp5496
(I1
(I1
tg5494
I00
S'\xcd\xcc\xcc\xcc\xcc\xcc\xf4?'
tbsS'instance_status'
p5497
g227
(g228
(I0
tS'b'
tRp5498
(I1
(I1
tg223
(S'i8'
I0
I1
tRp5499
(I3
S'<'
NNNI-1
I-1
I0
tbI00
S'\x03\x00\x00\x00\x00\x00\x00\x00'
tbsS'params'
p5500
g237
((lp5501
(lp5502
S'-conv1_depth'
p5503
aS'366'
p5504
aa(lp5505
S'-conv2_depth'
p5506
aS'130'
p5507
aa(lp5508
S'-fc_depth'
p5509
aS'362'
p5510
aa(lp5511
S'-filter_size'
p5512
aS'5'
aatRp5513
sS'result'
p5514
g222
(g224
S'\xcd\xcc\xcc\xcc\xcc\xcc\xf4?'
tRp5515
sS'duration'
p5516
g222
(g224
S'\x89A`\xe5\xd0\x12`@'
tRp5517
sS'test_error'
p5518
Fnan
sa(dp5519
S'status'
p5520
I3
sS'std'
p5521
g222
(g224
S'\x00\x00\x00\x00\x00\x00\x00\x00'
tRp5522
sS'instance_durations'
p5523
g227
(g228
(I0
tS'b'
tRp5524
(I1
(I1
tg223
(S'f8'
I0
I1
tRp5525
(I3
S'<'
NNNI-1
I-1
I0
tbI00
S'\xdb\xf9~j\xbc\xd8`@'
tbsS'instance_results'
p5526
g227
(g228
(I0
tS'b'
tRp5527
(I1
(I1
tg5525
I00
S'\x8f\xc2\xf5(\\\x8f\xfa?'
tbsS'test_error'
p5528
Fnan
sS'params'
p5529
g237
((lp5530
(lp5531
S'-conv1_depth'
p5532
aS'468'
p5533
aa(lp5534
S'-conv2_depth'
p5535
aS'327'
p5536
aa(lp5537
S'-fc_depth'
p5538
aS'512'
p5539
aa(lp5540
S'-filter_size'
p5541
aS'2'
aatRp5542
sS'result'
p5543
g222
(g224
S'\x8f\xc2\xf5(\\\x8f\xfa?'
tRp5544
sS'duration'
p5545
g222
(g224
S'\xdb\xf9~j\xbc\xd8`@'
tRp5546
sS'instance_status'
p5547
g227
(g228
(I0
tS'b'
tRp5548
(I1
(I1
tg223
(S'i8'
I0
I1
tRp5549
(I3
S'<'
NNNI-1
I-1
I0
tbI00
S'\x03\x00\x00\x00\x00\x00\x00\x00'
tbsa(dp5550
S'status'
p5551
I3
sS'std'
p5552
g222
(g224
S'\x00\x00\x00\x00\x00\x00\x00\x00'
tRp5553
sS'instance_durations'
p5554
g227
(g228
(I0
tS'b'
tRp5555
(I1
(I1
tg223
(S'f8'
I0
I1
tRp5556
(I3
S'<'
NNNI-1
I-1
I0
tbI00
S'\xc3\xf5(\\\x8fnn@'
tbsS'instance_results'
p5557
g227
(g228
(I0
tS'b'
tRp5558
(I1
(I1
tg5556
I00
S'\xe1z\x14\xaeG\xe1\xf6?'
tbsS'test_error'
p5559
Fnan
sS'params'
p5560
g237
((lp5561
(lp5562
S'-conv1_depth'
p5563
aS'415'
p5564
aa(lp5565
S'-conv2_depth'
p5566
aS'275'
p5567
aa(lp5568
S'-fc_depth'
p5569
aS'512'
p5570
aa(lp5571
S'-filter_size'
p5572
aS'5'
aatRp5573
sS'result'
p5574
g222
(g224
S'\xe1z\x14\xaeG\xe1\xf6?'
tRp5575
sS'duration'
p5576
g222
(g224
S'\xc3\xf5(\\\x8fnn@'
tRp5577
sS'instance_status'
p5578
g227
(g228
(I0
tS'b'
tRp5579
(I1
(I1
tg223
(S'i8'
I0
I1
tRp5580
(I3
S'<'
NNNI-1
I-1
I0
tbI00
S'\x03\x00\x00\x00\x00\x00\x00\x00'
tbsa(dp5581
S'status'
p5582
I3
sS'std'
p5583
g222
(g224
S'\x00\x00\x00\x00\x00\x00\x00\x00'
tRp5584
sS'instance_durations'
p5585
g227
(g228
(I0
tS'b'
tRp5586
(I1
(I1
tg223
(S'f8'
I0
I1
tRp5587
(I3
S'<'
NNNI-1
I-1
I0
tbI00
S'<N\xd1\x91\\\x9aW@'
tbsS'instance_results'
p5588
g227
(g228
(I0
tS'b'
tRp5589
(I1
(I1
tg5587
I00
S'ffffff\xf2?'
tbsS'test_error'
p5590
Fnan
sS'params'
p5591
g237
((lp5592
(lp5593
S'-conv1_depth'
p5594
aS'323'
p5595
aa(lp5596
S'-conv2_depth'
p5597
aS'102'
p5598
aa(lp5599
S'-fc_depth'
p5600
aS'416'
p5601
aa(lp5602
S'-filter_size'
p5603
aS'4'
aatRp5604
sS'result'
p5605
g222
(g224
S'ffffff\xf2?'
tRp5606
sS'duration'
p5607
g222
(g224
S'<N\xd1\x91\\\x9aW@'
tRp5608
sS'instance_status'
p5609
g227
(g228
(I0
tS'b'
tRp5610
(I1
(I1
tg223
(S'i8'
I0
I1
tRp5611
(I3
S'<'
NNNI-1
I-1
I0
tbI00
S'\x03\x00\x00\x00\x00\x00\x00\x00'
tbsa(dp5612
S'status'
p5613
I3
sS'std'
p5614
g222
(g224
S'\x00\x00\x00\x00\x00\x00\x00\x00'
tRp5615
sS'instance_durations'
p5616
g227
(g228
(I0
tS'b'
tRp5617
(I1
(I1
tg223
(S'f8'
I0
I1
tRp5618
(I3
S'<'
NNNI-1
I-1
I0
tbI00
S'\xecQ\xb8\x1e\x85{]@'
tbsS'instance_results'
p5619
g227
(g228
(I0
tS'b'
tRp5620
(I1
(I1
tg5618
I00
S'\xe1z\x14\xaeG\xe1\xf2?'
tbsS'instance_status'
p5621
g227
(g228
(I0
tS'b'
tRp5622
(I1
(I1
tg223
(S'i8'
I0
I1
tRp5623
(I3
S'<'
NNNI-1
I-1
I0
tbI00
S'\x03\x00\x00\x00\x00\x00\x00\x00'
tbsS'params'
p5624
g237
((lp5625
(lp5626
S'-conv1_depth'
p5627
aS'422'
p5628
aa(lp5629
S'-conv2_depth'
p5630
aS'218'
p5631
aa(lp5632
S'-fc_depth'
p5633
aS'454'
p5634
aa(lp5635
S'-filter_size'
p5636
aS'3'
aatRp5637
sS'result'
p5638
g222
(g224
S'\xe1z\x14\xaeG\xe1\xf2?'
tRp5639
sS'duration'
p5640
g222
(g224
S'\xecQ\xb8\x1e\x85{]@'
tRp5641
sS'test_error'
p5642
Fnan
sa(dp5643
S'status'
p5644
I3
sS'std'
p5645
g222
(g224
S'\x00\x00\x00\x00\x00\x00\x00\x00'
tRp5646
sS'instance_durations'
p5647
g227
(g228
(I0
tS'b'
tRp5648
(I1
(I1
tg223
(S'f8'
I0
I1
tRp5649
(I3
S'<'
NNNI-1
I-1
I0
tbI00
S'9EGr\xf9\xdfT@'
tbsS'instance_results'
p5650
g227
(g228
(I0
tS'b'
tRp5651
(I1
(I1
tg5649
I00
S'333333\xf7?'
tbsS'instance_status'
p5652
g227
(g228
(I0
tS'b'
tRp5653
(I1
(I1
tg223
(S'i8'
I0
I1
tRp5654
(I3
S'<'
NNNI-1
I-1
I0
tbI00
S'\x03\x00\x00\x00\x00\x00\x00\x00'
tbsS'params'
p5655
g237
((lp5656
(lp5657
S'-conv1_depth'
p5658
aS'409'
p5659
aa(lp5660
S'-conv2_depth'
p5661
aS'16'
p5662
aa(lp5663
S'-fc_depth'
p5664
aS'256'
p5665
aa(lp5666
S'-filter_size'
p5667
aS'5'
aatRp5668
sS'result'
p5669
g222
(g224
S'333333\xf7?'
tRp5670
sS'duration'
p5671
g222
(g224
S'9EGr\xf9\xdfT@'
tRp5672
sS'test_error'
p5673
Fnan
sa(dp5674
S'status'
p5675
I3
sS'std'
p5676
g222
(g224
S'\x00\x00\x00\x00\x00\x00\x00\x00'
tRp5677
sS'instance_durations'
p5678
g227
(g228
(I0
tS'b'
tRp5679
(I1
(I1
tg223
(S'f8'
I0
I1
tRp5680
(I3
S'<'
NNNI-1
I-1
I0
tbI00
S'\xa0\x89\xb0\xe1\xe9\xb5S@'
tbsS'instance_results'
p5681
g227
(g228
(I0
tS'b'
tRp5682
(I1
(I1
tg5680
I00
S'\x1f\x85\xebQ\xb8\x1e\xf9?'
tbsS'instance_status'
p5683
g227
(g228
(I0
tS'b'
tRp5684
(I1
(I1
tg223
(S'i8'
I0
I1
tRp5685
(I3
S'<'
NNNI-1
I-1
I0
tbI00
S'\x03\x00\x00\x00\x00\x00\x00\x00'
tbsS'params'
p5686
g237
((lp5687
(lp5688
S'-conv1_depth'
p5689
aS'243'
p5690
aa(lp5691
S'-conv2_depth'
p5692
aS'257'
p5693
aa(lp5694
S'-fc_depth'
p5695
aS'445'
p5696
aa(lp5697
S'-filter_size'
p5698
aS'2'
aatRp5699
sS'result'
p5700
g222
(g224
S'\x1f\x85\xebQ\xb8\x1e\xf9?'
tRp5701
sS'duration'
p5702
g222
(g224
S'\xa0\x89\xb0\xe1\xe9\xb5S@'
tRp5703
sS'test_error'
p5704
Fnan
sa(dp5705
S'status'
p5706
I3
sS'std'
p5707
g222
(g224
S'\x00\x00\x00\x00\x00\x00\x00\x00'
tRp5708
sS'instance_durations'
p5709
g227
(g228
(I0
tS'b'
tRp5710
(I1
(I1
tg223
(S'f8'
I0
I1
tRp5711
(I3
S'<'
NNNI-1
I-1
I0
tbI00
S'\xdb\xf9~j\xbcdI@'
tbsS'instance_results'
p5712
g227
(g228
(I0
tS'b'
tRp5713
(I1
(I1
tg5711
I00
S'\x14\xaeG\xe1z\x14\xfa?'
tbsS'instance_status'
p5714
g227
(g228
(I0
tS'b'
tRp5715
(I1
(I1
tg223
(S'i8'
I0
I1
tRp5716
(I3
S'<'
NNNI-1
I-1
I0
tbI00
S'\x03\x00\x00\x00\x00\x00\x00\x00'
tbsS'params'
p5717
g237
((lp5718
(lp5719
S'-conv1_depth'
p5720
aS'145'
p5721
aa(lp5722
S'-conv2_depth'
p5723
aS'162'
p5724
aa(lp5725
S'-fc_depth'
p5726
aS'438'
p5727
aa(lp5728
S'-filter_size'
p5729
aS'2'
aatRp5730
sS'result'
p5731
g222
(g224
S'\x14\xaeG\xe1z\x14\xfa?'
tRp5732
sS'duration'
p5733
g222
(g224
S'\xdb\xf9~j\xbcdI@'
tRp5734
sS'test_error'
p5735
Fnan
sa(dp5736
S'status'
p5737
I3
sS'std'
p5738
g222
(g224
S'\x00\x00\x00\x00\x00\x00\x00\x00'
tRp5739
sS'instance_durations'
p5740
g227
(g228
(I0
tS'b'
tRp5741
(I1
(I1
tg223
(S'f8'
I0
I1
tRp5742
(I3
S'<'
NNNI-1
I-1
I0
tbI00
S'\xaeG\xe1z\x14\x06_@'
tbsS'instance_results'
p5743
g227
(g228
(I0
tS'b'
tRp5744
(I1
(I1
tg5742
I00
S'H\xe1z\x14\xaeG\xfd?'
tbsS'test_error'
p5745
Fnan
sS'params'
p5746
g237
((lp5747
(lp5748
S'-conv1_depth'
p5749
aS'347'
p5750
aa(lp5751
S'-conv2_depth'
p5752
aS'447'
p5753
aa(lp5754
S'-fc_depth'
p5755
aS'512'
p5756
aa(lp5757
S'-filter_size'
p5758
aS'2'
aatRp5759
sS'result'
p5760
g222
(g224
S'H\xe1z\x14\xaeG\xfd?'
tRp5761
sS'duration'
p5762
g222
(g224
S'\xaeG\xe1z\x14\x06_@'
tRp5763
sS'instance_status'
p5764
g227
(g228
(I0
tS'b'
tRp5765
(I1
(I1
tg223
(S'i8'
I0
I1
tRp5766
(I3
S'<'
NNNI-1
I-1
I0
tbI00
S'\x03\x00\x00\x00\x00\x00\x00\x00'
tbsa(dp5767
S'status'
p5768
I3
sS'std'
p5769
g222
(g224
S'\x00\x00\x00\x00\x00\x00\x00\x00'
tRp5770
sS'instance_durations'
p5771
g227
(g228
(I0
tS'b'
tRp5772
(I1
(I1
tg223
(S'f8'
I0
I1
tRp5773
(I3
S'<'
NNNI-1
I-1
I0
tbI00
S'\xa0\x1a/\xdd$\x10q@'
tbsS'instance_results'
p5774
g227
(g228
(I0
tS'b'
tRp5775
(I1
(I1
tg5773
I00
S'\x85\xebQ\xb8\x1e\x85\xf7?'
tbsS'instance_status'
p5776
g227
(g228
(I0
tS'b'
tRp5777
(I1
(I1
tg223
(S'i8'
I0
I1
tRp5778
(I3
S'<'
NNNI-1
I-1
I0
tbI00
S'\x03\x00\x00\x00\x00\x00\x00\x00'
tbsS'params'
p5779
g237
((lp5780
(lp5781
S'-conv1_depth'
p5782
aS'377'
p5783
aa(lp5784
S'-conv2_depth'
p5785
aS'378'
p5786
aa(lp5787
S'-fc_depth'
p5788
aS'512'
p5789
aa(lp5790
S'-filter_size'
p5791
aS'5'
aatRp5792
sS'result'
p5793
g222
(g224
S'\x85\xebQ\xb8\x1e\x85\xf7?'
tRp5794
sS'duration'
p5795
g222
(g224
S'\xa0\x1a/\xdd$\x10q@'
tRp5796
sS'test_error'
p5797
Fnan
sa(dp5798
S'status'
p5799
I3
sS'std'
p5800
g222
(g224
S'\x00\x00\x00\x00\x00\x00\x00\x00'
tRp5801
sS'instance_durations'
p5802
g227
(g228
(I0
tS'b'
tRp5803
(I1
(I1
tg223
(S'f8'
I0
I1
tRp5804
(I3
S'<'
NNNI-1
I-1
I0
tbI00
S'\xf4\xfd\xd4x\xe9Bh@'
tbsS'instance_results'
p5805
g227
(g228
(I0
tS'b'
tRp5806
(I1
(I1
tg5804
I00
S'\x8f\xc2\xf5(\\\x8f\xf6?'
tbsS'test_error'
p5807
Fnan
sS'params'
p5808
g237
((lp5809
(lp5810
S'-conv1_depth'
p5811
aS'375'
p5812
aa(lp5813
S'-conv2_depth'
p5814
aS'367'
p5815
aa(lp5816
S'-fc_depth'
p5817
aS'339'
p5818
aa(lp5819
S'-filter_size'
p5820
aS'4'
aatRp5821
sS'result'
p5822
g222
(g224
S'\x8f\xc2\xf5(\\\x8f\xf6?'
tRp5823
sS'duration'
p5824
g222
(g224
S'\xf4\xfd\xd4x\xe9Bh@'
tRp5825
sS'instance_status'
p5826
g227
(g228
(I0
tS'b'
tRp5827
(I1
(I1
tg223
(S'i8'
I0
I1
tRp5828
(I3
S'<'
NNNI-1
I-1
I0
tbI00
S'\x03\x00\x00\x00\x00\x00\x00\x00'
tbsa(dp5829
S'status'
p5830
I3
sS'std'
p5831
g222
(g224
S'\x00\x00\x00\x00\x00\x00\x00\x00'
tRp5832
sS'instance_durations'
p5833
g227
(g228
(I0
tS'b'
tRp5834
(I1
(I1
tg223
(S'f8'
I0
I1
tRp5835
(I3
S'<'
NNNI-1
I-1
I0
tbI00
S'\xaa\xf1\xd2Mbx[@'
tbsS'instance_results'
p5836
g227
(g228
(I0
tS'b'
tRp5837
(I1
(I1
tg5835
I00
S'\\\x8f\xc2\xf5(\\\xf3?'
tbsS'test_error'
p5838
Fnan
sS'params'
p5839
g237
((lp5840
(lp5841
S'-conv1_depth'
p5842
aS'438'
p5843
aa(lp5844
S'-conv2_depth'
p5845
aS'154'
p5846
aa(lp5847
S'-fc_depth'
p5848
aS'445'
p5849
aa(lp5850
S'-filter_size'
p5851
aS'3'
aatRp5852
sS'result'
p5853
g222
(g224
S'\\\x8f\xc2\xf5(\\\xf3?'
tRp5854
sS'duration'
p5855
g222
(g224
S'\xaa\xf1\xd2Mbx[@'
tRp5856
sS'instance_status'
p5857
g227
(g228
(I0
tS'b'
tRp5858
(I1
(I1
tg223
(S'i8'
I0
I1
tRp5859
(I3
S'<'
NNNI-1
I-1
I0
tbI00
S'\x03\x00\x00\x00\x00\x00\x00\x00'
tbsa(dp5860
S'status'
p5861
I3
sS'std'
p5862
g222
(g224
S'\x00\x00\x00\x00\x00\x00\x00\x00'
tRp5863
sS'instance_durations'
p5864
g227
(g228
(I0
tS'b'
tRp5865
(I1
(I1
tg223
(S'f8'
I0
I1
tRp5866
(I3
S'<'
NNNI-1
I-1
I0
tbI00
S'\xb4\xc8v\xbe\x9f\x92V@'
tbsS'instance_results'
p5867
g227
(g228
(I0
tS'b'
tRp5868
(I1
(I1
tg5866
I00
S'333333\xf3?'
tbsS'instance_status'
p5869
g227
(g228
(I0
tS'b'
tRp5870
(I1
(I1
tg223
(S'i8'
I0
I1
tRp5871
(I3
S'<'
NNNI-1
I-1
I0
tbI00
S'\x03\x00\x00\x00\x00\x00\x00\x00'
tbsS'params'
p5872
g237
((lp5873
(lp5874
S'-conv1_depth'
p5875
aS'431'
p5876
aa(lp5877
S'-conv2_depth'
p5878
aS'63'
p5879
aa(lp5880
S'-fc_depth'
p5881
aS'388'
p5882
aa(lp5883
S'-filter_size'
p5884
aS'3'
aatRp5885
sS'result'
p5886
g222
(g224
S'333333\xf3?'
tRp5887
sS'duration'
p5888
g222
(g224
S'\xb4\xc8v\xbe\x9f\x92V@'
tRp5889
sS'test_error'
p5890
Fnan
sa(dp5891
S'status'
p5892
I3
sS'std'
p5893
g222
(g224
S'\x00\x00\x00\x00\x00\x00\x00\x00'
tRp5894
sS'instance_durations'
p5895
g227
(g228
(I0
tS'b'
tRp5896
(I1
(I1
tg223
(S'f8'
I0
I1
tRp5897
(I3
S'<'
NNNI-1
I-1
I0
tbI00
S'\xb0rh\x91\xed\xd8j@'
tbsS'instance_results'
p5898
g227
(g228
(I0
tS'b'
tRp5899
(I1
(I1
tg5897
I00
S')\\\x8f\xc2\xf5(\xf4?'
tbsS'instance_status'
p5900
g227
(g228
(I0
tS'b'
tRp5901
(I1
(I1
tg223
(S'i8'
I0
I1
tRp5902
(I3
S'<'
NNNI-1
I-1
I0
tbI00
S'\x03\x00\x00\x00\x00\x00\x00\x00'
tbsS'params'
p5903
g237
((lp5904
(lp5905
S'-conv1_depth'
p5906
aS'474'
p5907
aa(lp5908
S'-conv2_depth'
p5909
aS'274'
p5910
aa(lp5911
S'-fc_depth'
p5912
aS'470'
p5913
aa(lp5914
S'-filter_size'
p5915
aS'4'
aatRp5916
sS'result'
p5917
g222
(g224
S')\\\x8f\xc2\xf5(\xf4?'
tRp5918
sS'duration'
p5919
g222
(g224
S'\xb0rh\x91\xed\xd8j@'
tRp5920
sS'test_error'
p5921
Fnan
sa(dp5922
S'status'
p5923
I3
sS'std'
p5924
g222
(g224
S'\x00\x00\x00\x00\x00\x00\x00\x00'
tRp5925
sS'instance_durations'
p5926
g227
(g228
(I0
tS'b'
tRp5927
(I1
(I1
tg223
(S'f8'
I0
I1
tRp5928
(I3
S'<'
NNNI-1
I-1
I0
tbI00
S'\x83QI\x9d\x80vC@'
tbsS'instance_results'
p5929
g227
(g228
(I0
tS'b'
tRp5930
(I1
(I1
tg5928
I00
S'333333\x07@'
tbsS'test_error'
p5931
Fnan
sS'params'
p5932
g237
((lp5933
(lp5934
S'-conv1_depth'
p5935
aS'1'
aa(lp5936
S'-conv2_depth'
p5937
aS'265'
p5938
aa(lp5939
S'-fc_depth'
p5940
aS'496'
p5941
aa(lp5942
S'-filter_size'
p5943
aS'6'
aatRp5944
sS'result'
p5945
g222
(g224
S'333333\x07@'
tRp5946
sS'duration'
p5947
g222
(g224
S'\x83QI\x9d\x80vC@'
tRp5948
sS'instance_status'
p5949
g227
(g228
(I0
tS'b'
tRp5950
(I1
(I1
tg223
(S'i8'
I0
I1
tRp5951
(I3
S'<'
NNNI-1
I-1
I0
tbI00
S'\x03\x00\x00\x00\x00\x00\x00\x00'
tbsa(dp5952
S'status'
p5953
I3
sS'std'
p5954
g222
(g224
S'\x00\x00\x00\x00\x00\x00\x00\x00'
tRp5955
sS'instance_durations'
p5956
g227
(g228
(I0
tS'b'
tRp5957
(I1
(I1
tg223
(S'f8'
I0
I1
tRp5958
(I3
S'<'
NNNI-1
I-1
I0
tbI00
S':\x92\xcb\x7fH\xbbT@'
tbsS'instance_results'
p5959
g227
(g228
(I0
tS'b'
tRp5960
(I1
(I1
tg5958
I00
S'H\xe1z\x14\xaeG\xf9?'
tbsS'test_error'
p5961
Fnan
sS'params'
p5962
g237
((lp5963
(lp5964
S'-conv1_depth'
p5965
aS'182'
p5966
aa(lp5967
S'-conv2_depth'
p5968
aS'319'
p5969
aa(lp5970
S'-fc_depth'
p5971
aS'430'
p5972
aa(lp5973
S'-filter_size'
p5974
aS'3'
aatRp5975
sS'result'
p5976
g222
(g224
S'H\xe1z\x14\xaeG\xf9?'
tRp5977
sS'duration'
p5978
g222
(g224
S':\x92\xcb\x7fH\xbbT@'
tRp5979
sS'instance_status'
p5980
g227
(g228
(I0
tS'b'
tRp5981
(I1
(I1
tg223
(S'i8'
I0
I1
tRp5982
(I3
S'<'
NNNI-1
I-1
I0
tbI00
S'\x03\x00\x00\x00\x00\x00\x00\x00'
tbsa(dp5983
S'status'
p5984
I3
sS'std'
p5985
g222
(g224
S'\x00\x00\x00\x00\x00\x00\x00\x00'
tRp5986
sS'instance_durations'
p5987
g227
(g228
(I0
tS'b'
tRp5988
(I1
(I1
tg223
(S'f8'
I0
I1
tRp5989
(I3
S'<'
NNNI-1
I-1
I0
tbI00
S'\xee|?5^\x8ef@'
tbsS'instance_results'
p5990
g227
(g228
(I0
tS'b'
tRp5991
(I1
(I1
tg5989
I00
S'\x14\xaeG\xe1z\x14\xf6?'
tbsS'test_error'
p5992
Fnan
sS'params'
p5993
g237
((lp5994
(lp5995
S'-conv1_depth'
p5996
aS'351'
p5997
aa(lp5998
S'-conv2_depth'
p5999
aS'256'
p6000
aa(lp6001
S'-fc_depth'
p6002
aS'275'
p6003
aa(lp6004
S'-filter_size'
p6005
aS'6'
aatRp6006
sS'result'
p6007
g222
(g224
S'\x14\xaeG\xe1z\x14\xf6?'
tRp6008
sS'duration'
p6009
g222
(g224
S'\xee|?5^\x8ef@'
tRp6010
sS'instance_status'
p6011
g227
(g228
(I0
tS'b'
tRp6012
(I1
(I1
tg223
(S'i8'
I0
I1
tRp6013
(I3
S'<'
NNNI-1
I-1
I0
tbI00
S'\x03\x00\x00\x00\x00\x00\x00\x00'
tbsa(dp6014
S'status'
p6015
I3
sS'std'
p6016
g222
(g224
S'\x00\x00\x00\x00\x00\x00\x00\x00'
tRp6017
sS'instance_durations'
p6018
g227
(g228
(I0
tS'b'
tRp6019
(I1
(I1
tg223
(S'f8'
I0
I1
tRp6020
(I3
S'<'
NNNI-1
I-1
I0
tbI00
S'Gr\xf9\x0f\xe9KQ@'
tbsS'instance_results'
p6021
g227
(g228
(I0
tS'b'
tRp6022
(I1
(I1
tg6020
I00
S'R\xb8\x1e\x85\xebQ\x1c@'
tbsS'instance_status'
p6023
g227
(g228
(I0
tS'b'
tRp6024
(I1
(I1
tg223
(S'i8'
I0
I1
tRp6025
(I3
S'<'
NNNI-1
I-1
I0
tbI00
S'\x03\x00\x00\x00\x00\x00\x00\x00'
tbsS'params'
p6026
g237
((lp6027
(lp6028
S'-conv1_depth'
p6029
aS'389'
p6030
aa(lp6031
S'-conv2_depth'
p6032
aS'156'
p6033
aa(lp6034
S'-fc_depth'
p6035
aS'248'
p6036
aa(lp6037
S'-filter_size'
p6038
aS'1'
aatRp6039
sS'result'
p6040
g222
(g224
S'R\xb8\x1e\x85\xebQ\x1c@'
tRp6041
sS'duration'
p6042
g222
(g224
S'Gr\xf9\x0f\xe9KQ@'
tRp6043
sS'test_error'
p6044
Fnan
sa(dp6045
S'status'
p6046
I3
sS'std'
p6047
g222
(g224
S'\x00\x00\x00\x00\x00\x00\x00\x00'
tRp6048
sS'instance_durations'
p6049
g227
(g228
(I0
tS'b'
tRp6050
(I1
(I1
tg223
(S'f8'
I0
I1
tRp6051
(I3
S'<'
NNNI-1
I-1
I0
tbI00
S'\x1aQ\xda\x1b|\x19S@'
tbsS'instance_results'
p6052
g227
(g228
(I0
tS'b'
tRp6053
(I1
(I1
tg6051
I00
S'333333\xf3?'
tbsS'instance_status'
p6054
g227
(g228
(I0
tS'b'
tRp6055
(I1
(I1
tg223
(S'i8'
I0
I1
tRp6056
(I3
S'<'
NNNI-1
I-1
I0
tbI00
S'\x03\x00\x00\x00\x00\x00\x00\x00'
tbsS'params'
p6057
g237
((lp6058
(lp6059
S'-conv1_depth'
p6060
aS'190'
p6061
aa(lp6062
S'-conv2_depth'
p6063
aS'283'
p6064
aa(lp6065
S'-fc_depth'
p6066
aS'406'
p6067
aa(lp6068
S'-filter_size'
p6069
aS'3'
aatRp6070
sS'result'
p6071
g222
(g224
S'333333\xf3?'
tRp6072
sS'duration'
p6073
g222
(g224
S'\x1aQ\xda\x1b|\x19S@'
tRp6074
sS'test_error'
p6075
Fnan
sa(dp6076
S'status'
p6077
I3
sS'std'
p6078
g222
(g224
S'\x00\x00\x00\x00\x00\x00\x00\x00'
tRp6079
sS'instance_durations'
p6080
g227
(g228
(I0
tS'b'
tRp6081
(I1
(I1
tg223
(S'f8'
I0
I1
tRp6082
(I3
S'<'
NNNI-1
I-1
I0
tbI00
S'}\xd0\xb3Y\xf5yC@'
tbsS'instance_results'
p6083
g227
(g228
(I0
tS'b'
tRp6084
(I1
(I1
tg6082
I00
S'\xd7\xa3p=\n\xd7\x01@'
tbsS'test_error'
p6085
Fnan
sS'params'
p6086
g237
((lp6087
(lp6088
S'-conv1_depth'
p6089
aS'21'
p6090
aa(lp6091
S'-conv2_depth'
p6092
aS'490'
p6093
aa(lp6094
S'-fc_depth'
p6095
aS'45'
p6096
aa(lp6097
S'-filter_size'
p6098
aS'3'
aatRp6099
sS'result'
p6100
g222
(g224
S'\xd7\xa3p=\n\xd7\x01@'
tRp6101
sS'duration'
p6102
g222
(g224
S'}\xd0\xb3Y\xf5yC@'
tRp6103
sS'instance_status'
p6104
g227
(g228
(I0
tS'b'
tRp6105
(I1
(I1
tg223
(S'i8'
I0
I1
tRp6106
(I3
S'<'
NNNI-1
I-1
I0
tbI00
S'\x03\x00\x00\x00\x00\x00\x00\x00'
tbsa(dp6107
S'status'
p6108
I3
sS'std'
p6109
g222
(g224
S'\x00\x00\x00\x00\x00\x00\x00\x00'
tRp6110
sS'instance_durations'
p6111
g227
(g228
(I0
tS'b'
tRp6112
(I1
(I1
tg223
(S'f8'
I0
I1
tRp6113
(I3
S'<'
NNNI-1
I-1
I0
tbI00
S'\xf1c\xcc]K\xb4W@'
tbsS'instance_results'
p6114
g227
(g228
(I0
tS'b'
tRp6115
(I1
(I1
tg6113
I00
S')\\\x8f\xc2\xf5(\xf8?'
tbsS'test_error'
p6116
Fnan
sS'params'
p6117
g237
((lp6118
(lp6119
S'-conv1_depth'
p6120
aS'210'
p6121
aa(lp6122
S'-conv2_depth'
p6123
aS'405'
p6124
aa(lp6125
S'-fc_depth'
p6126
aS'236'
p6127
aa(lp6128
S'-filter_size'
p6129
aS'3'
aatRp6130
sS'result'
p6131
g222
(g224
S')\\\x8f\xc2\xf5(\xf8?'
tRp6132
sS'duration'
p6133
g222
(g224
S'\xf1c\xcc]K\xb4W@'
tRp6134
sS'instance_status'
p6135
g227
(g228
(I0
tS'b'
tRp6136
(I1
(I1
tg223
(S'i8'
I0
I1
tRp6137
(I3
S'<'
NNNI-1
I-1
I0
tbI00
S'\x03\x00\x00\x00\x00\x00\x00\x00'
tbsa(dp6138
S'status'
p6139
I3
sS'std'
p6140
g222
(g224
S'\x00\x00\x00\x00\x00\x00\x00\x00'
tRp6141
sS'instance_durations'
p6142
g227
(g228
(I0
tS'b'
tRp6143
(I1
(I1
tg223
(S'f8'
I0
I1
tRp6144
(I3
S'<'
NNNI-1
I-1
I0
tbI00
S'h\x91\xed|?\tX@'
tbsS'instance_results'
p6145
g227
(g228
(I0
tS'b'
tRp6146
(I1
(I1
tg6144
I00
S'\x8f\xc2\xf5(\\\x8f\xf2?'
tbsS'instance_status'
p6147
g227
(g228
(I0
tS'b'
tRp6148
(I1
(I1
tg223
(S'i8'
I0
I1
tRp6149
(I3
S'<'
NNNI-1
I-1
I0
tbI00
S'\x03\x00\x00\x00\x00\x00\x00\x00'
tbsS'params'
p6150
g237
((lp6151
(lp6152
S'-conv1_depth'
p6153
aS'443'
p6154
aa(lp6155
S'-conv2_depth'
p6156
aS'77'
p6157
aa(lp6158
S'-fc_depth'
p6159
aS'320'
p6160
aa(lp6161
S'-filter_size'
p6162
aS'3'
aatRp6163
sS'result'
p6164
g222
(g224
S'\x8f\xc2\xf5(\\\x8f\xf2?'
tRp6165
sS'duration'
p6166
g222
(g224
S'h\x91\xed|?\tX@'
tRp6167
sS'test_error'
p6168
Fnan
sa(dp6169
S'status'
p6170
I3
sS'std'
p6171
g222
(g224
S'\x00\x00\x00\x00\x00\x00\x00\x00'
tRp6172
sS'instance_durations'
p6173
g227
(g228
(I0
tS'b'
tRp6174
(I1
(I1
tg223
(S'f8'
I0
I1
tRp6175
(I3
S'<'
NNNI-1
I-1
I0
tbI00
S'a\xc3\xd3+e%P@'
tbsS'instance_results'
p6176
g227
(g228
(I0
tS'b'
tRp6177
(I1
(I1
tg6175
I00
S'\x85\xebQ\xb8\x1e\x85\xf3?'
tbsS'test_error'
p6178
Fnan
sS'params'
p6179
g237
((lp6180
(lp6181
S'-conv1_depth'
p6182
aS'248'
p6183
aa(lp6184
S'-conv2_depth'
p6185
aS'99'
p6186
aa(lp6187
S'-fc_depth'
p6188
aS'480'
p6189
aa(lp6190
S'-filter_size'
p6191
aS'3'
aatRp6192
sS'result'
p6193
g222
(g224
S'\x85\xebQ\xb8\x1e\x85\xf3?'
tRp6194
sS'duration'
p6195
g222
(g224
S'a\xc3\xd3+e%P@'
tRp6196
sS'instance_status'
p6197
g227
(g228
(I0
tS'b'
tRp6198
(I1
(I1
tg223
(S'i8'
I0
I1
tRp6199
(I3
S'<'
NNNI-1
I-1
I0
tbI00
S'\x03\x00\x00\x00\x00\x00\x00\x00'
tbsa(dp6200
S'status'
p6201
I3
sS'std'
p6202
g222
(g224
S'\x00\x00\x00\x00\x00\x00\x00\x00'
tRp6203
sS'instance_durations'
p6204
g227
(g228
(I0
tS'b'
tRp6205
(I1
(I1
tg223
(S'f8'
I0
I1
tRp6206
(I3
S'<'
NNNI-1
I-1
I0
tbI00
S'w-!\x1f\xf4\x0c/@'
tbsS'instance_results'
p6207
g227
(g228
(I0
tS'b'
tRp6208
(I1
(I1
tg6206
I00
S'H\xe1z\x14\xaeG\x07@'
tbsS'instance_status'
p6209
g227
(g228
(I0
tS'b'
tRp6210
(I1
(I1
tg223
(S'i8'
I0
I1
tRp6211
(I3
S'<'
NNNI-1
I-1
I0
tbI00
S'\x03\x00\x00\x00\x00\x00\x00\x00'
tbsS'params'
p6212
g237
((lp6213
(lp6214
S'-conv1_depth'
p6215
aS'1'
aa(lp6216
S'-conv2_depth'
p6217
aS'10'
p6218
aa(lp6219
S'-fc_depth'
p6220
aS'512'
p6221
aa(lp6222
S'-filter_size'
p6223
aS'14'
p6224
aatRp6225
sS'result'
p6226
g222
(g224
S'H\xe1z\x14\xaeG\x07@'
tRp6227
sS'duration'
p6228
g222
(g224
S'w-!\x1f\xf4\x0c/@'
tRp6229
sS'test_error'
p6230
Fnan
sa(dp6231
S'status'
p6232
I3
sS'std'
p6233
g222
(g224
S'\x00\x00\x00\x00\x00\x00\x00\x00'
tRp6234
sS'instance_durations'
p6235
g227
(g228
(I0
tS'b'
tRp6236
(I1
(I1
tg223
(S'f8'
I0
I1
tRp6237
(I3
S'<'
NNNI-1
I-1
I0
tbI00
S'KY\x868\xd6\xddU@'
tbsS'instance_results'
p6238
g227
(g228
(I0
tS'b'
tRp6239
(I1
(I1
tg6237
I00
S'\xf6(\\\x8f\xc2\xf5\xf4?'
tbsS'instance_status'
p6240
g227
(g228
(I0
tS'b'
tRp6241
(I1
(I1
tg223
(S'i8'
I0
I1
tRp6242
(I3
S'<'
NNNI-1
I-1
I0
tbI00
S'\x03\x00\x00\x00\x00\x00\x00\x00'
tbsS'params'
p6243
g237
((lp6244
(lp6245
S'-conv1_depth'
p6246
aS'89'
p6247
aa(lp6248
S'-conv2_depth'
p6249
aS'389'
p6250
aa(lp6251
S'-fc_depth'
p6252
aS'491'
p6253
aa(lp6254
S'-filter_size'
p6255
aS'4'
aatRp6256
sS'result'
p6257
g222
(g224
S'\xf6(\\\x8f\xc2\xf5\xf4?'
tRp6258
sS'duration'
p6259
g222
(g224
S'KY\x868\xd6\xddU@'
tRp6260
sS'test_error'
p6261
Fnan
sa(dp6262
S'status'
p6263
I3
sS'std'
p6264
g222
(g224
S'\x00\x00\x00\x00\x00\x00\x00\x00'
tRp6265
sS'instance_durations'
p6266
g227
(g228
(I0
tS'b'
tRp6267
(I1
(I1
tg223
(S'f8'
I0
I1
tRp6268
(I3
S'<'
NNNI-1
I-1
I0
tbI00
S'\xc1\xca\xa1E\xb6\xf3b@'
tbsS'instance_results'
p6269
g227
(g228
(I0
tS'b'
tRp6270
(I1
(I1
tg6268
I00
S'{\x14\xaeG\xe1z\xf8?'
tbsS'instance_status'
p6271
g227
(g228
(I0
tS'b'
tRp6272
(I1
(I1
tg223
(S'i8'
I0
I1
tRp6273
(I3
S'<'
NNNI-1
I-1
I0
tbI00
S'\x03\x00\x00\x00\x00\x00\x00\x00'
tbsS'params'
p6274
g237
((lp6275
(lp6276
S'-conv1_depth'
p6277
aS'479'
p6278
aa(lp6279
S'-conv2_depth'
p6280
aS'262'
p6281
aa(lp6282
S'-fc_depth'
p6283
aS'385'
p6284
aa(lp6285
S'-filter_size'
p6286
aS'3'
aatRp6287
sS'result'
p6288
g222
(g224
S'{\x14\xaeG\xe1z\xf8?'
tRp6289
sS'duration'
p6290
g222
(g224
S'\xc1\xca\xa1E\xb6\xf3b@'
tRp6291
sS'test_error'
p6292
Fnan
sa(dp6293
S'status'
p6294
I3
sS'std'
p6295
g222
(g224
S'\x00\x00\x00\x00\x00\x00\x00\x00'
tRp6296
sS'instance_durations'
p6297
g227
(g228
(I0
tS'b'
tRp6298
(I1
(I1
tg223
(S'f8'
I0
I1
tRp6299
(I3
S'<'
NNNI-1
I-1
I0
tbI00
S'\xaa\x82QI\x9d\x98U@'
tbsS'instance_results'
p6300
g227
(g228
(I0
tS'b'
tRp6301
(I1
(I1
tg6299
I00
S'\n\xd7\xa3p=\n\xf7?'
tbsS'test_error'
p6302
Fnan
sS'params'
p6303
g237
((lp6304
(lp6305
S'-conv1_depth'
p6306
aS'191'
p6307
aa(lp6308
S'-conv2_depth'
p6309
aS'231'
p6310
aa(lp6311
S'-fc_depth'
p6312
aS'282'
p6313
aa(lp6314
S'-filter_size'
p6315
aS'4'
aatRp6316
sS'result'
p6317
g222
(g224
S'\n\xd7\xa3p=\n\xf7?'
tRp6318
sS'duration'
p6319
g222
(g224
S'\xaa\x82QI\x9d\x98U@'
tRp6320
sS'instance_status'
p6321
g227
(g228
(I0
tS'b'
tRp6322
(I1
(I1
tg223
(S'i8'
I0
I1
tRp6323
(I3
S'<'
NNNI-1
I-1
I0
tbI00
S'\x03\x00\x00\x00\x00\x00\x00\x00'
tbsa(dp6324
S'status'
p6325
I3
sS'std'
p6326
g222
(g224
S'\x00\x00\x00\x00\x00\x00\x00\x00'
tRp6327
sS'instance_durations'
p6328
g227
(g228
(I0
tS'b'
tRp6329
(I1
(I1
tg223
(S'f8'
I0
I1
tRp6330
(I3
S'<'
NNNI-1
I-1
I0
tbI00
S'\xc5 \xb0rh%a@'
tbsS'instance_results'
p6331
g227
(g228
(I0
tS'b'
tRp6332
(I1
(I1
tg6330
I00
S'\x1f\x85\xebQ\xb8\x1e\xf5?'
tbsS'test_error'
p6333
Fnan
sS'params'
p6334
g237
((lp6335
(lp6336
S'-conv1_depth'
p6337
aS'347'
p6338
aa(lp6339
S'-conv2_depth'
p6340
aS'392'
p6341
aa(lp6342
S'-fc_depth'
p6343
aS'441'
p6344
aa(lp6345
S'-filter_size'
p6346
aS'3'
aatRp6347
sS'result'
p6348
g222
(g224
S'\x1f\x85\xebQ\xb8\x1e\xf5?'
tRp6349
sS'duration'
p6350
g222
(g224
S'\xc5 \xb0rh%a@'
tRp6351
sS'instance_status'
p6352
g227
(g228
(I0
tS'b'
tRp6353
(I1
(I1
tg223
(S'i8'
I0
I1
tRp6354
(I3
S'<'
NNNI-1
I-1
I0
tbI00
S'\x03\x00\x00\x00\x00\x00\x00\x00'
tbsa(dp6355
S'status'
p6356
I3
sS'std'
p6357
g222
(g224
S'\x00\x00\x00\x00\x00\x00\x00\x00'
tRp6358
sS'instance_durations'
p6359
g227
(g228
(I0
tS'b'
tRp6360
(I1
(I1
tg223
(S'f8'
I0
I1
tRp6361
(I3
S'<'
NNNI-1
I-1
I0
tbI00
S'B\xcff\xd5\xe7fS@'
tbsS'instance_results'
p6362
g227
(g228
(I0
tS'b'
tRp6363
(I1
(I1
tg6361
I00
S'{\x14\xaeG\xe1z\xf8?'
tbsS'instance_status'
p6364
g227
(g228
(I0
tS'b'
tRp6365
(I1
(I1
tg223
(S'i8'
I0
I1
tRp6366
(I3
S'<'
NNNI-1
I-1
I0
tbI00
S'\x03\x00\x00\x00\x00\x00\x00\x00'
tbsS'params'
p6367
g237
((lp6368
(lp6369
S'-conv1_depth'
p6370
aS'355'
p6371
aa(lp6372
S'-conv2_depth'
p6373
aS'80'
p6374
aa(lp6375
S'-fc_depth'
p6376
aS'420'
p6377
aa(lp6378
S'-filter_size'
p6379
aS'2'
aatRp6380
sS'result'
p6381
g222
(g224
S'{\x14\xaeG\xe1z\xf8?'
tRp6382
sS'duration'
p6383
g222
(g224
S'B\xcff\xd5\xe7fS@'
tRp6384
sS'test_error'
p6385
Fnan
sasS'total_wallclock_time'
p6386
F20818.18810000001
sS'experiment_name'
p6387
S'spearmint_april2013_mod'
p6388
sS'starttime'
p6389
(lp6390
F1472574954.4324279
as.