(dp1
S'cv_endtime'
p2
(lp3
F1472551533.1294651
aF1472551534.460906
aF1472551535.7654779
aF1472551537.052465
aF1472551538.3902991
aF1472551539.7286949
aF1472551541.189364
aF1472551542.5135751
aF1472551543.7219911
aF1472551544.9207981
aF1472551546.1108651
aF1472551547.425123
aF1472551548.7614939
aF1472551550.194412
aF1472551551.489625
aF1472551552.8285091
aF1472551554.0573421
aF1472551555.3790081
aF1472551556.7270131
aF1472551557.9748859
aF1472551559.3075769
aF1472551560.6786599
aF1472551561.894562
aF1472551563.250668
aF1472551564.4842491
aF1472551565.841218
aF1472551567.171706
aF1472551568.5301371
aF1472551569.917619
aF1472551571.1542251
aF1472551572.461859
aF1472551573.7173719
aF1472551575.15974
aF1472551576.4315641
aF1472551577.797339
aF1472551579.2359819
aF1472551580.6294811
aF1472551581.8877349
aF1472551583.1523581
aF1472551584.530771
aF1472551585.7877491
aF1472551587.183104
aF1472551588.581341
aF1472551589.9266551
aF1472551591.448314
aF1472551592.8419781
aF1472551594.2062459
aF1472551595.603709
aF1472551596.863009
aF1472551598.1427059
aF1472551599.407284
aF1472551600.6639221
aF1472551602.06428
aF1472551603.5596139
aF1472551604.7956071
aF1472551606.102129
aF1472551607.374619
aF1472551608.6584301
aF1472551610.065434
aF1472551611.5098519
aF1472551612.9201729
aF1472551614.2180719
aF1472551615.6358421
aF1472551617.0638721
aF1472551618.616926
asS'folds'
p4
I1
sS'cv_starttime'
p5
(lp6
F1472551506.8683131
aF1472551533.1546431
aF1472551534.484942
aF1472551535.7895989
aF1472551537.075505
aF1472551538.416785
aF1472551539.756479
aF1472551541.218353
aF1472551542.5401981
aF1472551543.748343
aF1472551544.9486189
aF1472551546.1368189
aF1472551547.454241
aF1472551548.7863269
aF1472551550.223768
aF1472551551.5207779
aF1472551552.8583
aF1472551554.0893371
aF1472551555.4064519
aF1472551556.7603829
aF1472551558.0181201
aF1472551559.349077
aF1472551560.722019
aF1472551561.935601
aF1472551563.2851739
aF1472551564.5269539
aF1472551565.8839099
aF1472551567.214905
aF1472551568.5777521
aF1472551569.9643381
aF1472551571.1793129
aF1472551572.5085289
aF1472551573.763746
aF1472551575.2211671
aF1472551576.482619
aF1472551577.8493221
aF1472551579.286679
aF1472551580.680042
aF1472551581.93592
aF1472551583.1995239
aF1472551584.5853629
aF1472551585.8344209
aF1472551587.2327099
aF1472551588.6319749
aF1472551589.979315
aF1472551591.5013449
aF1472551592.895637
aF1472551594.2509861
aF1472551595.6598859
aF1472551596.9197891
aF1472551598.200597
aF1472551599.4609599
aF1472551600.7194109
aF1472551602.1202979
aF1472551603.61517
aF1472551604.851213
aF1472551606.1521389
aF1472551607.431674
aF1472551608.7186761
aF1472551610.123893
aF1472551611.563262
aF1472551612.977494
aF1472551614.266572
aF1472551615.6900411
aF1472551617.1223741
aF1472551618.6839261
asS'endtime'
p7
(lp8
F1472551620.0485079
asS'optimizer'
p9
S'/root/tf-hpolib/HPOlib/optimizers/tpe/hyperopt_august2013_mod'
p10
sS'optimizer_time'
p11
(lp12
F0.34369206428527832
aF0.025177955627441406
aF0.024035930633544922
aF0.02412104606628418
aF0.023040056228637695
aF0.026485919952392578
aF0.027784109115600586
aF0.028989076614379883
aF0.026623010635375977
aF0.0263519287109375
aF0.027820825576782227
aF0.025953769683837891
aF0.029118061065673828
aF0.024832963943481445
aF0.029356002807617188
aF0.031152963638305664
aF0.029790878295898438
aF0.031995058059692383
aF0.027443885803222656
aF0.033369779586791992
aF0.043234109878540039
aF0.041500091552734375
aF0.043359041213989258
aF0.041038990020751953
aF0.034505844116210938
aF0.04270482063293457
aF0.042691946029663086
aF0.043199062347412109
aF0.04761505126953125
aF0.046719074249267578
aF0.025087833404541016
aF0.046669960021972656
aF0.046374082565307617
aF0.061427116394042969
aF0.051054954528808594
aF0.051983118057250977
aF0.050697088241577148
aF0.050560951232910156
aF0.048185110092163086
aF0.047165870666503906
aF0.054591894149780273
aF0.046671867370605469
aF0.049605846405029297
aF0.050633907318115234
aF0.052659988403320312
aF0.053030967712402344
aF0.053658962249755859
aF0.044740200042724609
aF0.056176900863647461
aF0.056780099868774414
aF0.057891130447387695
aF0.05367588996887207
aF0.055488824844360352
aF0.056017875671386719
aF0.055556058883666992
aF0.055605888366699219
aF0.050009965896606445
aF0.057054996490478516
aF0.060245990753173828
aF0.058459043502807617
aF0.053410053253173828
aF0.057321071624755859
aF0.04850006103515625
aF0.054198980331420898
aF0.058501958847045898
aF0.067000150680541992
aF1.431581974029541
asS'instance_order'
p13
(lp14
(I0
I0
tp15
a(I1
I0
tp16
a(I2
I0
tp17
a(I3
I0
tp18
a(I4
I0
tp19
a(I5
I0
tp20
a(I6
I0
tp21
a(I7
I0
tp22
a(I8
I0
tp23
a(I9
I0
tp24
a(I10
I0
tp25
a(I11
I0
tp26
a(I12
I0
tp27
a(I13
I0
tp28
a(I14
I0
tp29
a(I15
I0
tp30
a(I16
I0
tp31
a(I17
I0
tp32
a(I18
I0
tp33
a(I19
I0
tp34
a(I20
I0
tp35
a(I21
I0
tp36
a(I22
I0
tp37
a(I23
I0
tp38
a(I24
I0
tp39
a(I25
I0
tp40
a(I26
I0
tp41
a(I27
I0
tp42
a(I28
I0
tp43
a(I29
I0
tp44
a(I30
I0
tp45
a(I31
I0
tp46
a(I32
I0
tp47
a(I33
I0
tp48
a(I34
I0
tp49
a(I35
I0
tp50
a(I36
I0
tp51
a(I37
I0
tp52
a(I38
I0
tp53
a(I39
I0
tp54
a(I40
I0
tp55
a(I41
I0
tp56
a(I42
I0
tp57
a(I43
I0
tp58
a(I44
I0
tp59
a(I45
I0
tp60
a(I46
I0
tp61
a(I47
I0
tp62
a(I48
I0
tp63
a(I49
I0
tp64
a(I50
I0
tp65
a(I51
I0
tp66
a(I52
I0
tp67
a(I53
I0
tp68
a(I54
I0
tp69
a(I55
I0
tp70
a(I56
I0
tp71
a(I57
I0
tp72
a(I58
I0
tp73
a(I59
I0
tp74
a(I60
I0
tp75
a(I61
I0
tp76
a(I62
I0
tp77
a(I63
I0
tp78
a(I64
I0
tp79
a(I65
I0
tp80
asS'max_wallclock_time'
p81
S''
sS'title'
p82
NsS'trials'
p83
(lp84
(dp85
S'status'
p86
I-1
sS'std'
p87
cnumpy.core.multiarray
scalar
p88
(cnumpy
dtype
p89
(S'f8'
I0
I1
tRp90
(I3
S'<'
NNNI-1
I-1
I0
tbS'\x00\x00\x00\x00\x00\x00\x00\x00'
tRp91
sS'instance_durations'
p92
cnumpy.core.multiarray
_reconstruct
p93
(cnumpy
ndarray
p94
(I0
tS'b'
tRp95
(I1
(I1
tg89
(S'f8'
I0
I1
tRp96
(I3
S'<'
NNNI-1
I-1
I0
tbI00
S'\x7fj\xbct\x93\x18:@'
tbsS'instance_results'
p97
g93
(g94
(I0
tS'b'
tRp98
(I1
(I1
tg96
I00
S'\x00\x00\x00\x00\x80\x84.A'
tbsS'instance_status'
p99
g93
(g94
(I0
tS'b'
tRp100
(I1
(I1
tg89
(S'i8'
I0
I1
tRp101
(I3
S'<'
NNNI-1
I-1
I0
tbI00
S'\xff\xff\xff\xff\xff\xff\xff\xff'
tbsS'params'
p102
ccollections
OrderedDict
p103
((lp104
(lp105
S'-conv1_depth'
p106
aS'146.0'
p107
aa(lp108
S'-conv2_depth'
p109
aS'392.0'
p110
aa(lp111
S'-fc_depth'
p112
aS'485.0'
p113
aa(lp114
S'-filter_size'
p115
aS'8.0'
p116
aatRp117
sS'result'
p118
g88
(g90
S'\x00\x00\x00\x00\x80\x84.A'
tRp119
sS'duration'
p120
g88
(g90
S'\x7fj\xbct\x93\x18:@'
tRp121
sS'test_error'
p122
Fnan
sa(dp123
S'status'
p124
I-1
sS'std'
p125
g88
(g90
S'\x00\x00\x00\x00\x00\x00\x00\x00'
tRp126
sS'instance_durations'
p127
g93
(g94
(I0
tS'b'
tRp128
(I1
(I1
tg89
(S'f8'
I0
I1
tRp129
(I3
S'<'
NNNI-1
I-1
I0
tbI00
S'\xc2\xa3\x8d#\xd6\xe2\xf0?'
tbsS'instance_results'
p130
g93
(g94
(I0
tS'b'
tRp131
(I1
(I1
tg129
I00
S'\x00\x00\x00\x00\x80\x84.A'
tbsS'instance_status'
p132
g93
(g94
(I0
tS'b'
tRp133
(I1
(I1
tg89
(S'i8'
I0
I1
tRp134
(I3
S'<'
NNNI-1
I-1
I0
tbI00
S'\xff\xff\xff\xff\xff\xff\xff\xff'
tbsS'params'
p135
g103
((lp136
(lp137
S'-conv1_depth'
p138
aS'114.0'
p139
aa(lp140
S'-conv2_depth'
p141
aS'512.0'
p142
aa(lp143
S'-fc_depth'
p144
aS'358.0'
p145
aa(lp146
S'-filter_size'
p147
aS'13.0'
p148
aatRp149
sS'result'
p150
g88
(g90
S'\x00\x00\x00\x00\x80\x84.A'
tRp151
sS'duration'
p152
g88
(g90
S'\xc2\xa3\x8d#\xd6\xe2\xf0?'
tRp153
sS'test_error'
p154
Fnan
sa(dp155
S'status'
p156
I-1
sS'std'
p157
g88
(g90
S'\x00\x00\x00\x00\x00\x00\x00\x00'
tRp158
sS'instance_durations'
p159
g93
(g94
(I0
tS'b'
tRp160
(I1
(I1
tg89
(S'f8'
I0
I1
tRp161
(I3
S'<'
NNNI-1
I-1
I0
tbI00
S'L\xa6\nF%u\xf0?'
tbsS'instance_results'
p162
g93
(g94
(I0
tS'b'
tRp163
(I1
(I1
tg161
I00
S'\x00\x00\x00\x00\x80\x84.A'
tbsS'test_error'
p164
Fnan
sS'params'
p165
g103
((lp166
(lp167
S'-conv1_depth'
p168
aS'96.0'
p169
aa(lp170
S'-conv2_depth'
p171
aS'144.0'
p172
aa(lp173
S'-fc_depth'
p174
aS'299.0'
p175
aa(lp176
S'-filter_size'
p177
aS'12.0'
p178
aatRp179
sS'result'
p180
g88
(g90
S'\x00\x00\x00\x00\x80\x84.A'
tRp181
sS'duration'
p182
g88
(g90
S'L\xa6\nF%u\xf0?'
tRp183
sS'instance_status'
p184
g93
(g94
(I0
tS'b'
tRp185
(I1
(I1
tg89
(S'i8'
I0
I1
tRp186
(I3
S'<'
NNNI-1
I-1
I0
tbI00
S'\xff\xff\xff\xff\xff\xff\xff\xff'
tbsa(dp187
S'status'
p188
I-1
sS'std'
p189
g88
(g90
S'\x00\x00\x00\x00\x00\x00\x00\x00'
tRp190
sS'instance_durations'
p191
g93
(g94
(I0
tS'b'
tRp192
(I1
(I1
tg89
(S'f8'
I0
I1
tRp193
(I3
S'<'
NNNI-1
I-1
I0
tbI00
S'\x89\xef\xc4\xac\x17\xc3\xf0?'
tbsS'instance_results'
p194
g93
(g94
(I0
tS'b'
tRp195
(I1
(I1
tg193
I00
S'\x00\x00\x00\x00\x80\x84.A'
tbsS'instance_status'
p196
g93
(g94
(I0
tS'b'
tRp197
(I1
(I1
tg89
(S'i8'
I0
I1
tRp198
(I3
S'<'
NNNI-1
I-1
I0
tbI00
S'\xff\xff\xff\xff\xff\xff\xff\xff'
tbsS'params'
p199
g103
((lp200
(lp201
S'-conv1_depth'
p202
aS'404.0'
p203
aa(lp204
S'-conv2_depth'
p205
aS'394.0'
p206
aa(lp207
S'-fc_depth'
p208
aS'266.0'
p209
aa(lp210
S'-filter_size'
p211
aS'5.0'
p212
aatRp213
sS'result'
p214
g88
(g90
S'\x00\x00\x00\x00\x80\x84.A'
tRp215
sS'duration'
p216
g88
(g90
S'\x89\xef\xc4\xac\x17\xc3\xf0?'
tRp217
sS'test_error'
p218
Fnan
sa(dp219
S'status'
p220
I-1
sS'std'
p221
g88
(g90
S'\x00\x00\x00\x00\x00\x00\x00\x00'
tRp222
sS'instance_durations'
p223
g93
(g94
(I0
tS'b'
tRp224
(I1
(I1
tg89
(S'f8'
I0
I1
tRp225
(I3
S'<'
NNNI-1
I-1
I0
tbI00
S'\xb2\xd7\xbb?\xde\xab\xf0?'
tbsS'instance_results'
p226
g93
(g94
(I0
tS'b'
tRp227
(I1
(I1
tg225
I00
S'\x00\x00\x00\x00\x80\x84.A'
tbsS'instance_status'
p228
g93
(g94
(I0
tS'b'
tRp229
(I1
(I1
tg89
(S'i8'
I0
I1
tRp230
(I3
S'<'
NNNI-1
I-1
I0
tbI00
S'\xff\xff\xff\xff\xff\xff\xff\xff'
tbsS'params'
p231
g103
((lp232
(lp233
S'-conv1_depth'
p234
aS'444.0'
p235
aa(lp236
S'-conv2_depth'
p237
aS'376.0'
p238
aa(lp239
S'-fc_depth'
p240
aS'417.0'
p241
aa(lp242
S'-filter_size'
p243
aS'7.0'
p244
aatRp245
sS'result'
p246
g88
(g90
S'\x00\x00\x00\x00\x80\x84.A'
tRp247
sS'duration'
p248
g88
(g90
S'\xb2\xd7\xbb?\xde\xab\xf0?'
tRp249
sS'test_error'
p250
Fnan
sa(dp251
S'status'
p252
I-1
sS'std'
p253
g88
(g90
S'\x00\x00\x00\x00\x00\x00\x00\x00'
tRp254
sS'instance_durations'
p255
g93
(g94
(I0
tS'b'
tRp256
(I1
(I1
tg89
(S'f8'
I0
I1
tRp257
(I3
S'<'
NNNI-1
I-1
I0
tbI00
S'*Ral!\xc8\xf0?'
tbsS'instance_results'
p258
g93
(g94
(I0
tS'b'
tRp259
(I1
(I1
tg257
I00
S'\x00\x00\x00\x00\x80\x84.A'
tbsS'test_error'
p260
Fnan
sS'params'
p261
g103
((lp262
(lp263
S'-conv1_depth'
p264
aS'204.0'
p265
aa(lp266
S'-conv2_depth'
p267
aS'64.0'
p268
aa(lp269
S'-fc_depth'
p270
aS'288.0'
p271
aa(lp272
S'-filter_size'
p273
aS'10.0'
p274
aatRp275
sS'result'
p276
g88
(g90
S'\x00\x00\x00\x00\x80\x84.A'
tRp277
sS'duration'
p278
g88
(g90
S'*Ral!\xc8\xf0?'
tRp279
sS'instance_status'
p280
g93
(g94
(I0
tS'b'
tRp281
(I1
(I1
tg89
(S'i8'
I0
I1
tRp282
(I3
S'<'
NNNI-1
I-1
I0
tbI00
S'\xff\xff\xff\xff\xff\xff\xff\xff'
tbsa(dp283
S'status'
p284
I-1
sS'std'
p285
g88
(g90
S'\x00\x00\x00\x00\x00\x00\x00\x00'
tRp286
sS'instance_durations'
p287
g93
(g94
(I0
tS'b'
tRp288
(I1
(I1
tg89
(S'f8'
I0
I1
tRp289
(I3
S'<'
NNNI-1
I-1
I0
tbI00
S'L7\x89A`\xe5\xf1?'
tbsS'instance_results'
p290
g93
(g94
(I0
tS'b'
tRp291
(I1
(I1
tg289
I00
S'\x00\x00\x00\x00\x80\x84.A'
tbsS'instance_status'
p292
g93
(g94
(I0
tS'b'
tRp293
(I1
(I1
tg89
(S'i8'
I0
I1
tRp294
(I3
S'<'
NNNI-1
I-1
I0
tbI00
S'\xff\xff\xff\xff\xff\xff\xff\xff'
tbsS'params'
p295
g103
((lp296
(lp297
S'-conv1_depth'
p298
aS'392.0'
p299
aa(lp300
S'-conv2_depth'
p301
aS'38.0'
p302
aa(lp303
S'-fc_depth'
p304
aS'147.0'
p305
aa(lp306
S'-filter_size'
p307
aS'12.0'
p308
aatRp309
sS'result'
p310
g88
(g90
S'\x00\x00\x00\x00\x80\x84.A'
tRp311
sS'duration'
p312
g88
(g90
S'L7\x89A`\xe5\xf1?'
tRp313
sS'test_error'
p314
Fnan
sa(dp315
S'status'
p316
I-1
sS'std'
p317
g88
(g90
S'\x00\x00\x00\x00\x00\x00\x00\x00'
tRp318
sS'instance_durations'
p319
g93
(g94
(I0
tS'b'
tRp320
(I1
(I1
tg89
(S'f8'
I0
I1
tRp321
(I3
S'<'
NNNI-1
I-1
I0
tbI00
S'\xf5\xf3\xa6"\x15F\xf0?'
tbsS'instance_results'
p322
g93
(g94
(I0
tS'b'
tRp323
(I1
(I1
tg321
I00
S'\x00\x00\x00\x00\x80\x84.A'
tbsS'instance_status'
p324
g93
(g94
(I0
tS'b'
tRp325
(I1
(I1
tg89
(S'i8'
I0
I1
tRp326
(I3
S'<'
NNNI-1
I-1
I0
tbI00
S'\xff\xff\xff\xff\xff\xff\xff\xff'
tbsS'params'
p327
g103
((lp328
(lp329
S'-conv1_depth'
p330
aS'84.0'
p331
aa(lp332
S'-conv2_depth'
p333
aS'340.0'
p334
aa(lp335
S'-fc_depth'
p336
aS'196.0'
p337
aa(lp338
S'-filter_size'
p339
aS'9.0'
p340
aatRp341
sS'result'
p342
g88
(g90
S'\x00\x00\x00\x00\x80\x84.A'
tRp343
sS'duration'
p344
g88
(g90
S'\xf5\xf3\xa6"\x15F\xf0?'
tRp345
sS'test_error'
p346
Fnan
sa(dp347
S'status'
p348
I-1
sS'std'
p349
g88
(g90
S'\x00\x00\x00\x00\x00\x00\x00\x00'
tRp350
sS'instance_durations'
p351
g93
(g94
(I0
tS'b'
tRp352
(I1
(I1
tg89
(S'f8'
I0
I1
tRp353
(I3
S'<'
NNNI-1
I-1
I0
tbI00
S'4-\xb12\x1a\xf9\xef?'
tbsS'instance_results'
p354
g93
(g94
(I0
tS'b'
tRp355
(I1
(I1
tg353
I00
S'\x00\x00\x00\x00\x80\x84.A'
tbsS'test_error'
p356
Fnan
sS'params'
p357
g103
((lp358
(lp359
S'-conv1_depth'
p360
aS'506.0'
p361
aa(lp362
S'-conv2_depth'
p363
aS'394.0'
p364
aa(lp365
S'-fc_depth'
p366
aS'491.0'
p367
aa(lp368
S'-filter_size'
p369
aS'5.0'
p370
aatRp371
sS'result'
p372
g88
(g90
S'\x00\x00\x00\x00\x80\x84.A'
tRp373
sS'duration'
p374
g88
(g90
S'4-\xb12\x1a\xf9\xef?'
tRp375
sS'instance_status'
p376
g93
(g94
(I0
tS'b'
tRp377
(I1
(I1
tg89
(S'i8'
I0
I1
tRp378
(I3
S'<'
NNNI-1
I-1
I0
tbI00
S'\xff\xff\xff\xff\xff\xff\xff\xff'
tbsa(dp379
S'status'
p380
I-1
sS'std'
p381
g88
(g90
S'\x00\x00\x00\x00\x00\x00\x00\x00'
tRp382
sS'instance_durations'
p383
g93
(g94
(I0
tS'b'
tRp384
(I1
(I1
tg89
(S'f8'
I0
I1
tRp385
(I3
S'<'
NNNI-1
I-1
I0
tbI00
S'\xe825\t\xde\x90\xee?'
tbsS'instance_results'
p386
g93
(g94
(I0
tS'b'
tRp387
(I1
(I1
tg385
I00
S'\x00\x00\x00\x00\x80\x84.A'
tbsS'instance_status'
p388
g93
(g94
(I0
tS'b'
tRp389
(I1
(I1
tg89
(S'i8'
I0
I1
tRp390
(I3
S'<'
NNNI-1
I-1
I0
tbI00
S'\xff\xff\xff\xff\xff\xff\xff\xff'
tbsS'params'
p391
g103
((lp392
(lp393
S'-conv1_depth'
p394
aS'490.0'
p395
aa(lp396
S'-conv2_depth'
p397
aS'284.0'
p398
aa(lp399
S'-fc_depth'
p400
aS'191.0'
p401
aa(lp402
S'-filter_size'
p403
aS'12.0'
p404
aatRp405
sS'result'
p406
g88
(g90
S'\x00\x00\x00\x00\x80\x84.A'
tRp407
sS'duration'
p408
g88
(g90
S'\xe825\t\xde\x90\xee?'
tRp409
sS'test_error'
p410
Fnan
sa(dp411
S'status'
p412
I-1
sS'std'
p413
g88
(g90
S'\x00\x00\x00\x00\x00\x00\x00\x00'
tRp414
sS'instance_durations'
p415
g93
(g94
(I0
tS'b'
tRp416
(I1
(I1
tg89
(S'f8'
I0
I1
tRp417
(I3
S'<'
NNNI-1
I-1
I0
tbI00
S'2\x1f\x10\xe8LZ\xee?'
tbsS'instance_results'
p418
g93
(g94
(I0
tS'b'
tRp419
(I1
(I1
tg417
I00
S'\x00\x00\x00\x00\x80\x84.A'
tbsS'test_error'
p420
Fnan
sS'params'
p421
g103
((lp422
(lp423
S'-conv1_depth'
p424
aS'134.0'
p425
aa(lp426
S'-conv2_depth'
p427
aS'210.0'
p428
aa(lp429
S'-fc_depth'
p430
aS'231.0'
p431
aa(lp432
S'-filter_size'
p433
aS'4.0'
p434
aatRp435
sS'result'
p436
g88
(g90
S'\x00\x00\x00\x00\x80\x84.A'
tRp437
sS'duration'
p438
g88
(g90
S'2\x1f\x10\xe8LZ\xee?'
tRp439
sS'instance_status'
p440
g93
(g94
(I0
tS'b'
tRp441
(I1
(I1
tg89
(S'i8'
I0
I1
tRp442
(I3
S'<'
NNNI-1
I-1
I0
tbI00
S'\xff\xff\xff\xff\xff\xff\xff\xff'
tbsa(dp443
S'status'
p444
I-1
sS'std'
p445
g88
(g90
S'\x00\x00\x00\x00\x00\x00\x00\x00'
tRp446
sS'instance_durations'
p447
g93
(g94
(I0
tS'b'
tRp448
(I1
(I1
tg89
(S'f8'
I0
I1
tRp449
(I3
S'<'
NNNI-1
I-1
I0
tbI00
S'\xc9\xe5?\xa4\xdf>\xf0?'
tbsS'instance_results'
p450
g93
(g94
(I0
tS'b'
tRp451
(I1
(I1
tg449
I00
S'\x00\x00\x00\x00\x80\x84.A'
tbsS'test_error'
p452
Fnan
sS'params'
p453
g103
((lp454
(lp455
S'-conv1_depth'
p456
aS'324.0'
p457
aa(lp458
S'-conv2_depth'
p459
aS'48.0'
p460
aa(lp461
S'-fc_depth'
p462
aS'400.0'
p463
aa(lp464
S'-filter_size'
p465
aS'2.0'
p466
aatRp467
sS'result'
p468
g88
(g90
S'\x00\x00\x00\x00\x80\x84.A'
tRp469
sS'duration'
p470
g88
(g90
S'\xc9\xe5?\xa4\xdf>\xf0?'
tRp471
sS'instance_status'
p472
g93
(g94
(I0
tS'b'
tRp473
(I1
(I1
tg89
(S'i8'
I0
I1
tRp474
(I3
S'<'
NNNI-1
I-1
I0
tbI00
S'\xff\xff\xff\xff\xff\xff\xff\xff'
tbsa(dp475
S'status'
p476
I-1
sS'std'
p477
g88
(g90
S'\x00\x00\x00\x00\x00\x00\x00\x00'
tRp478
sS'instance_durations'
p479
g93
(g94
(I0
tS'b'
tRp480
(I1
(I1
tg89
(S'f8'
I0
I1
tRp481
(I3
S'<'
NNNI-1
I-1
I0
tbI00
S'\xaf\xce1 {=\xf0?'
tbsS'instance_results'
p482
g93
(g94
(I0
tS'b'
tRp483
(I1
(I1
tg481
I00
S'\x00\x00\x00\x00\x80\x84.A'
tbsS'instance_status'
p484
g93
(g94
(I0
tS'b'
tRp485
(I1
(I1
tg89
(S'i8'
I0
I1
tRp486
(I3
S'<'
NNNI-1
I-1
I0
tbI00
S'\xff\xff\xff\xff\xff\xff\xff\xff'
tbsS'params'
p487
g103
((lp488
(lp489
S'-conv1_depth'
p490
aS'142.0'
p491
aa(lp492
S'-conv2_depth'
p493
aS'120.0'
p494
aa(lp495
S'-fc_depth'
p496
aS'159.0'
p497
aa(lp498
S'-filter_size'
p499
aS'7.0'
p500
aatRp501
sS'result'
p502
g88
(g90
S'\x00\x00\x00\x00\x80\x84.A'
tRp503
sS'duration'
p504
g88
(g90
S'\xaf\xce1 {=\xf0?'
tRp505
sS'test_error'
p506
Fnan
sa(dp507
S'status'
p508
I-1
sS'std'
p509
g88
(g90
S'\x00\x00\x00\x00\x00\x00\x00\x00'
tRp510
sS'instance_durations'
p511
g93
(g94
(I0
tS'b'
tRp512
(I1
(I1
tg89
(S'f8'
I0
I1
tRp513
(I3
S'<'
NNNI-1
I-1
I0
tbI00
S'h\xe8\x9f\xe0b\xc5\xf1?'
tbsS'instance_results'
p514
g93
(g94
(I0
tS'b'
tRp515
(I1
(I1
tg513
I00
S'\x00\x00\x00\x00\x80\x84.A'
tbsS'test_error'
p516
Fnan
sS'params'
p517
g103
((lp518
(lp519
S'-conv1_depth'
p520
aS'74.0'
p521
aa(lp522
S'-conv2_depth'
p523
aS'488.0'
p524
aa(lp525
S'-fc_depth'
p526
aS'308.0'
p527
aa(lp528
S'-filter_size'
p529
aS'10.0'
p530
aatRp531
sS'result'
p532
g88
(g90
S'\x00\x00\x00\x00\x80\x84.A'
tRp533
sS'duration'
p534
g88
(g90
S'h\xe8\x9f\xe0b\xc5\xf1?'
tRp535
sS'instance_status'
p536
g93
(g94
(I0
tS'b'
tRp537
(I1
(I1
tg89
(S'i8'
I0
I1
tRp538
(I3
S'<'
NNNI-1
I-1
I0
tbI00
S'\xff\xff\xff\xff\xff\xff\xff\xff'
tbsa(dp539
S'status'
p540
I-1
sS'std'
p541
g88
(g90
S'\x00\x00\x00\x00\x00\x00\x00\x00'
tRp542
sS'instance_durations'
p543
g93
(g94
(I0
tS'b'
tRp544
(I1
(I1
tg89
(S'f8'
I0
I1
tRp545
(I3
S'<'
NNNI-1
I-1
I0
tbI00
S'r\xf9\x0f\xe9\xb7/\xf1?'
tbsS'instance_results'
p546
g93
(g94
(I0
tS'b'
tRp547
(I1
(I1
tg545
I00
S'\x00\x00\x00\x00\x80\x84.A'
tbsS'instance_status'
p548
g93
(g94
(I0
tS'b'
tRp549
(I1
(I1
tg89
(S'i8'
I0
I1
tRp550
(I3
S'<'
NNNI-1
I-1
I0
tbI00
S'\xff\xff\xff\xff\xff\xff\xff\xff'
tbsS'params'
p551
g103
((lp552
(lp553
S'-conv1_depth'
p554
aS'298.0'
p555
aa(lp556
S'-conv2_depth'
p557
aS'100.0'
p558
aa(lp559
S'-fc_depth'
p560
aS'238.0'
p561
aa(lp562
S'-filter_size'
p563
aS'13.0'
p564
aatRp565
sS'result'
p566
g88
(g90
S'\x00\x00\x00\x00\x80\x84.A'
tRp567
sS'duration'
p568
g88
(g90
S'r\xf9\x0f\xe9\xb7/\xf1?'
tRp569
sS'test_error'
p570
Fnan
sa(dp571
S'status'
p572
I-1
sS'std'
p573
g88
(g90
S'\x00\x00\x00\x00\x00\x00\x00\x00'
tRp574
sS'instance_durations'
p575
g93
(g94
(I0
tS'b'
tRp576
(I1
(I1
tg89
(S'f8'
I0
I1
tRp577
(I3
S'<'
NNNI-1
I-1
I0
tbI00
S'\xe80_^\x80}\xf0?'
tbsS'instance_results'
p578
g93
(g94
(I0
tS'b'
tRp579
(I1
(I1
tg577
I00
S'\x00\x00\x00\x00\x80\x84.A'
tbsS'instance_status'
p580
g93
(g94
(I0
tS'b'
tRp581
(I1
(I1
tg89
(S'i8'
I0
I1
tRp582
(I3
S'<'
NNNI-1
I-1
I0
tbI00
S'\xff\xff\xff\xff\xff\xff\xff\xff'
tbsS'params'
p583
g103
((lp584
(lp585
S'-conv1_depth'
p586
aS'360.0'
p587
aa(lp588
S'-conv2_depth'
p589
aS'484.0'
p590
aa(lp591
S'-fc_depth'
p592
aS'440.0'
p593
aa(lp594
S'-filter_size'
p595
aS'6.0'
p596
aatRp597
sS'result'
p598
g88
(g90
S'\x00\x00\x00\x00\x80\x84.A'
tRp599
sS'duration'
p600
g88
(g90
S'\xe80_^\x80}\xf0?'
tRp601
sS'test_error'
p602
Fnan
sa(dp603
S'status'
p604
I-1
sS'std'
p605
g88
(g90
S'\x00\x00\x00\x00\x00\x00\x00\x00'
tRp606
sS'instance_durations'
p607
g93
(g94
(I0
tS'b'
tRp608
(I1
(I1
tg89
(S'f8'
I0
I1
tRp609
(I3
S'<'
NNNI-1
I-1
I0
tbI00
S'X\xcb\x9d\x99`\xb8\xee?'
tbsS'instance_results'
p610
g93
(g94
(I0
tS'b'
tRp611
(I1
(I1
tg609
I00
S'\x00\x00\x00\x00\x80\x84.A'
tbsS'test_error'
p612
Fnan
sS'params'
p613
g103
((lp614
(lp615
S'-conv1_depth'
p616
aS'64.0'
p617
aa(lp618
S'-conv2_depth'
p619
aS'420.0'
p620
aa(lp621
S'-fc_depth'
p622
aS'409.0'
p623
aa(lp624
S'-filter_size'
p625
aS'8.0'
p626
aatRp627
sS'result'
p628
g88
(g90
S'\x00\x00\x00\x00\x80\x84.A'
tRp629
sS'duration'
p630
g88
(g90
S'X\xcb\x9d\x99`\xb8\xee?'
tRp631
sS'instance_status'
p632
g93
(g94
(I0
tS'b'
tRp633
(I1
(I1
tg89
(S'i8'
I0
I1
tRp634
(I3
S'<'
NNNI-1
I-1
I0
tbI00
S'\xff\xff\xff\xff\xff\xff\xff\xff'
tbsa(dp635
S'status'
p636
I-1
sS'std'
p637
g88
(g90
S'\x00\x00\x00\x00\x00\x00\x00\x00'
tRp638
sS'instance_durations'
p639
g93
(g94
(I0
tS'b'
tRp640
(I1
(I1
tg89
(S'f8'
I0
I1
tRp641
(I3
S'<'
NNNI-1
I-1
I0
tbI00
S'\x1e\xa7\xe8H.\xff\xf0?'
tbsS'instance_results'
p642
g93
(g94
(I0
tS'b'
tRp643
(I1
(I1
tg641
I00
S'\x00\x00\x00\x00\x80\x84.A'
tbsS'instance_status'
p644
g93
(g94
(I0
tS'b'
tRp645
(I1
(I1
tg89
(S'i8'
I0
I1
tRp646
(I3
S'<'
NNNI-1
I-1
I0
tbI00
S'\xff\xff\xff\xff\xff\xff\xff\xff'
tbsS'params'
p647
g103
((lp648
(lp649
S'-conv1_depth'
p650
aS'148.0'
p651
aa(lp652
S'-conv2_depth'
p653
aS'404.0'
p654
aa(lp655
S'-fc_depth'
p656
aS'29.0'
p657
aa(lp658
S'-filter_size'
p659
aS'6.0'
p660
aatRp661
sS'result'
p662
g88
(g90
S'\x00\x00\x00\x00\x80\x84.A'
tRp663
sS'duration'
p664
g88
(g90
S'\x1e\xa7\xe8H.\xff\xf0?'
tRp665
sS'test_error'
p666
Fnan
sa(dp667
S'status'
p668
I-1
sS'std'
p669
g88
(g90
S'\x00\x00\x00\x00\x00\x00\x00\x00'
tRp670
sS'instance_durations'
p671
g93
(g94
(I0
tS'b'
tRp672
(I1
(I1
tg89
(S'f8'
I0
I1
tRp673
(I3
S'<'
NNNI-1
I-1
I0
tbI00
S'\x1dr3\xdc\x80O\xf0?'
tbsS'instance_results'
p674
g93
(g94
(I0
tS'b'
tRp675
(I1
(I1
tg673
I00
S'\x00\x00\x00\x00\x80\x84.A'
tbsS'instance_status'
p676
g93
(g94
(I0
tS'b'
tRp677
(I1
(I1
tg89
(S'i8'
I0
I1
tRp678
(I3
S'<'
NNNI-1
I-1
I0
tbI00
S'\xff\xff\xff\xff\xff\xff\xff\xff'
tbsS'params'
p679
g103
((lp680
(lp681
S'-conv1_depth'
p682
aS'24.0'
p683
aa(lp684
S'-conv2_depth'
p685
aS'346.0'
p686
aa(lp687
S'-fc_depth'
p688
aS'25.0'
p689
aa(lp690
S'-filter_size'
p691
aS'4.0'
p692
aatRp693
sS'result'
p694
g88
(g90
S'\x00\x00\x00\x00\x80\x84.A'
tRp695
sS'duration'
p696
g88
(g90
S'\x1dr3\xdc\x80O\xf0?'
tRp697
sS'test_error'
p698
Fnan
sa(dp699
S'status'
p700
I-1
sS'std'
p701
g88
(g90
S'\x00\x00\x00\x00\x00\x00\x00\x00'
tRp702
sS'instance_durations'
p703
g93
(g94
(I0
tS'b'
tRp704
(I1
(I1
tg89
(S'f8'
I0
I1
tRp705
(I3
S'<'
NNNI-1
I-1
I0
tbI00
S'\xf0\xdd\xe6\x8d\x93\xc2\xee?'
tbsS'instance_results'
p706
g93
(g94
(I0
tS'b'
tRp707
(I1
(I1
tg705
I00
S'\x00\x00\x00\x00\x80\x84.A'
tbsS'test_error'
p708
Fnan
sS'params'
p709
g103
((lp710
(lp711
S'-conv1_depth'
p712
aS'306.0'
p713
aa(lp714
S'-conv2_depth'
p715
aS'376.0'
p716
aa(lp717
S'-fc_depth'
p718
aS'487.0'
p719
aa(lp720
S'-filter_size'
p721
aS'6.0'
p722
aatRp723
sS'result'
p724
g88
(g90
S'\x00\x00\x00\x00\x80\x84.A'
tRp725
sS'duration'
p726
g88
(g90
S'\xf0\xdd\xe6\x8d\x93\xc2\xee?'
tRp727
sS'instance_status'
p728
g93
(g94
(I0
tS'b'
tRp729
(I1
(I1
tg89
(S'i8'
I0
I1
tRp730
(I3
S'<'
NNNI-1
I-1
I0
tbI00
S'\xff\xff\xff\xff\xff\xff\xff\xff'
tbsa(dp731
S'status'
p732
I-1
sS'std'
p733
g88
(g90
S'\x00\x00\x00\x00\x00\x00\x00\x00'
tRp734
sS'instance_durations'
p735
g93
(g94
(I0
tS'b'
tRp736
(I1
(I1
tg89
(S'f8'
I0
I1
tRp737
(I3
S'<'
NNNI-1
I-1
I0
tbI00
S')\\\x8f\xc2\xf5\xa8\xf0?'
tbsS'instance_results'
p738
g93
(g94
(I0
tS'b'
tRp739
(I1
(I1
tg737
I00
S'\x00\x00\x00\x00\x80\x84.A'
tbsS'instance_status'
p740
g93
(g94
(I0
tS'b'
tRp741
(I1
(I1
tg89
(S'i8'
I0
I1
tRp742
(I3
S'<'
NNNI-1
I-1
I0
tbI00
S'\xff\xff\xff\xff\xff\xff\xff\xff'
tbsS'params'
p743
g103
((lp744
(lp745
S'-conv1_depth'
p746
aS'204.0'
p747
aa(lp748
S'-conv2_depth'
p749
aS'450.0'
p750
aa(lp751
S'-fc_depth'
p752
aS'30.0'
p753
aa(lp754
S'-filter_size'
p755
aS'2.0'
p756
aatRp757
sS'result'
p758
g88
(g90
S'\x00\x00\x00\x00\x80\x84.A'
tRp759
sS'duration'
p760
g88
(g90
S')\\\x8f\xc2\xf5\xa8\xf0?'
tRp761
sS'test_error'
p762
Fnan
sa(dp763
S'status'
p764
I-1
sS'std'
p765
g88
(g90
S'\x00\x00\x00\x00\x00\x00\x00\x00'
tRp766
sS'instance_durations'
p767
g93
(g94
(I0
tS'b'
tRp768
(I1
(I1
tg89
(S'f8'
I0
I1
tRp769
(I3
S'<'
NNNI-1
I-1
I0
tbI00
S'zpw\xd6n;\xf0?'
tbsS'instance_results'
p770
g93
(g94
(I0
tS'b'
tRp771
(I1
(I1
tg769
I00
S'\x00\x00\x00\x00\x80\x84.A'
tbsS'test_error'
p772
Fnan
sS'params'
p773
g103
((lp774
(lp775
S'-conv1_depth'
p776
aS'8.0'
p777
aa(lp778
S'-conv2_depth'
p779
aS'304.0'
p780
aa(lp781
S'-fc_depth'
p782
aS'89.0'
p783
aa(lp784
S'-filter_size'
p785
aS'3.0'
p786
aatRp787
sS'result'
p788
g88
(g90
S'\x00\x00\x00\x00\x80\x84.A'
tRp789
sS'duration'
p790
g88
(g90
S'zpw\xd6n;\xf0?'
tRp791
sS'instance_status'
p792
g93
(g94
(I0
tS'b'
tRp793
(I1
(I1
tg89
(S'i8'
I0
I1
tRp794
(I3
S'<'
NNNI-1
I-1
I0
tbI00
S'\xff\xff\xff\xff\xff\xff\xff\xff'
tbsa(dp795
S'status'
p796
I-1
sS'std'
p797
g88
(g90
S'\x00\x00\x00\x00\x00\x00\x00\x00'
tRp798
sS'instance_durations'
p799
g93
(g94
(I0
tS'b'
tRp800
(I1
(I1
tg89
(S'f8'
I0
I1
tRp801
(I3
S'<'
NNNI-1
I-1
I0
tbI00
S'\xff\xb3\xe6\xc7_\xda\xee?'
tbsS'instance_results'
p802
g93
(g94
(I0
tS'b'
tRp803
(I1
(I1
tg801
I00
S'\x00\x00\x00\x00\x80\x84.A'
tbsS'test_error'
p804
Fnan
sS'params'
p805
g103
((lp806
(lp807
S'-conv1_depth'
p808
aS'244.0'
p809
aa(lp810
S'-conv2_depth'
p811
aS'244.0'
p812
aa(lp813
S'-fc_depth'
p814
aS'507.0'
p815
aa(lp816
S'-filter_size'
p817
aS'8.0'
p818
aatRp819
sS'result'
p820
g88
(g90
S'\x00\x00\x00\x00\x80\x84.A'
tRp821
sS'duration'
p822
g88
(g90
S'\xff\xb3\xe6\xc7_\xda\xee?'
tRp823
sS'instance_status'
p824
g93
(g94
(I0
tS'b'
tRp825
(I1
(I1
tg89
(S'i8'
I0
I1
tRp826
(I3
S'<'
NNNI-1
I-1
I0
tbI00
S'\xff\xff\xff\xff\xff\xff\xff\xff'
tbsa(dp827
S'status'
p828
I-1
sS'std'
p829
g88
(g90
S'\x00\x00\x00\x00\x00\x00\x00\x00'
tRp830
sS'instance_durations'
p831
g93
(g94
(I0
tS'b'
tRp832
(I1
(I1
tg89
(S'f8'
I0
I1
tRp833
(I3
S'<'
NNNI-1
I-1
I0
tbI00
S'\xe1\x7f+\xd9\xb1\x91\xf0?'
tbsS'instance_results'
p834
g93
(g94
(I0
tS'b'
tRp835
(I1
(I1
tg833
I00
S'\x00\x00\x00\x00\x80\x84.A'
tbsS'instance_status'
p836
g93
(g94
(I0
tS'b'
tRp837
(I1
(I1
tg89
(S'i8'
I0
I1
tRp838
(I3
S'<'
NNNI-1
I-1
I0
tbI00
S'\xff\xff\xff\xff\xff\xff\xff\xff'
tbsS'params'
p839
g103
((lp840
(lp841
S'-conv1_depth'
p842
aS'190.0'
p843
aa(lp844
S'-conv2_depth'
p845
aS'448.0'
p846
aa(lp847
S'-fc_depth'
p848
aS'99.0'
p849
aa(lp850
S'-filter_size'
p851
aS'10.0'
p852
aatRp853
sS'result'
p854
g88
(g90
S'\x00\x00\x00\x00\x80\x84.A'
tRp855
sS'duration'
p856
g88
(g90
S'\xe1\x7f+\xd9\xb1\x91\xf0?'
tRp857
sS'test_error'
p858
Fnan
sa(dp859
S'status'
p860
I-1
sS'std'
p861
g88
(g90
S'\x00\x00\x00\x00\x00\x00\x00\x00'
tRp862
sS'instance_durations'
p863
g93
(g94
(I0
tS'b'
tRp864
(I1
(I1
tg89
(S'f8'
I0
I1
tRp865
(I3
S'<'
NNNI-1
I-1
I0
tbI00
S'\xf0\x13\x07\xd0\xef{\xee?'
tbsS'instance_results'
p866
g93
(g94
(I0
tS'b'
tRp867
(I1
(I1
tg865
I00
S'\x00\x00\x00\x00\x80\x84.A'
tbsS'test_error'
p868
Fnan
sS'params'
p869
g103
((lp870
(lp871
S'-conv1_depth'
p872
aS'18.0'
p873
aa(lp874
S'-conv2_depth'
p875
aS'304.0'
p876
aa(lp877
S'-fc_depth'
p878
aS'105.0'
p879
aa(lp880
S'-filter_size'
p881
aS'1.0'
p882
aatRp883
sS'result'
p884
g88
(g90
S'\x00\x00\x00\x00\x80\x84.A'
tRp885
sS'duration'
p886
g88
(g90
S'\xf0\x13\x07\xd0\xef{\xee?'
tRp887
sS'instance_status'
p888
g93
(g94
(I0
tS'b'
tRp889
(I1
(I1
tg89
(S'i8'
I0
I1
tRp890
(I3
S'<'
NNNI-1
I-1
I0
tbI00
S'\xff\xff\xff\xff\xff\xff\xff\xff'
tbsa(dp891
S'status'
p892
I-1
sS'std'
p893
g88
(g90
S'\x00\x00\x00\x00\x00\x00\x00\x00'
tRp894
sS'instance_durations'
p895
g93
(g94
(I0
tS'b'
tRp896
(I1
(I1
tg89
(S'f8'
I0
I1
tRp897
(I3
S'<'
NNNI-1
I-1
I0
tbI00
S'KY\x868\xd6E\xf1?'
tbsS'instance_results'
p898
g93
(g94
(I0
tS'b'
tRp899
(I1
(I1
tg897
I00
S'\x00\x00\x00\x00\x80\x84.A'
tbsS'instance_status'
p900
g93
(g94
(I0
tS'b'
tRp901
(I1
(I1
tg89
(S'i8'
I0
I1
tRp902
(I3
S'<'
NNNI-1
I-1
I0
tbI00
S'\xff\xff\xff\xff\xff\xff\xff\xff'
tbsS'params'
p903
g103
((lp904
(lp905
S'-conv1_depth'
p906
aS'246.0'
p907
aa(lp908
S'-conv2_depth'
p909
aS'218.0'
p910
aa(lp911
S'-fc_depth'
p912
aS'468.0'
p913
aa(lp914
S'-filter_size'
p915
aS'8.0'
p916
aatRp917
sS'result'
p918
g88
(g90
S'\x00\x00\x00\x00\x80\x84.A'
tRp919
sS'duration'
p920
g88
(g90
S'KY\x868\xd6E\xf1?'
tRp921
sS'test_error'
p922
Fnan
sa(dp923
S'status'
p924
I-1
sS'std'
p925
g88
(g90
S'\x00\x00\x00\x00\x00\x00\x00\x00'
tRp926
sS'instance_durations'
p927
g93
(g94
(I0
tS'b'
tRp928
(I1
(I1
tg89
(S'f8'
I0
I1
tRp929
(I3
S'<'
NNNI-1
I-1
I0
tbI00
S'\x0eO\xaf\x94e\x88\xf0?'
tbsS'instance_results'
p930
g93
(g94
(I0
tS'b'
tRp931
(I1
(I1
tg929
I00
S'\x00\x00\x00\x00\x80\x84.A'
tbsS'instance_status'
p932
g93
(g94
(I0
tS'b'
tRp933
(I1
(I1
tg89
(S'i8'
I0
I1
tRp934
(I3
S'<'
NNNI-1
I-1
I0
tbI00
S'\xff\xff\xff\xff\xff\xff\xff\xff'
tbsS'params'
p935
g103
((lp936
(lp937
S'-conv1_depth'
p938
aS'170.0'
p939
aa(lp940
S'-conv2_depth'
p941
aS'458.0'
p942
aa(lp943
S'-fc_depth'
p944
aS'74.0'
p945
aa(lp946
S'-filter_size'
p947
aS'10.0'
p948
aatRp949
sS'result'
p950
g88
(g90
S'\x00\x00\x00\x00\x80\x84.A'
tRp951
sS'duration'
p952
g88
(g90
S'\x0eO\xaf\x94e\x88\xf0?'
tRp953
sS'test_error'
p954
Fnan
sa(dp955
S'status'
p956
I-1
sS'std'
p957
g88
(g90
S'\x00\x00\x00\x00\x00\x00\x00\x00'
tRp958
sS'instance_durations'
p959
g93
(g94
(I0
tS'b'
tRp960
(I1
(I1
tg89
(S'f8'
I0
I1
tRp961
(I3
S'<'
NNNI-1
I-1
I0
tbI00
S'vq\x1b\r\xe0-\xf0?'
tbsS'instance_results'
p962
g93
(g94
(I0
tS'b'
tRp963
(I1
(I1
tg961
I00
S'\x00\x00\x00\x00\x80\x84.A'
tbsS'test_error'
p964
Fnan
sS'params'
p965
g103
((lp966
(lp967
S'-conv1_depth'
p968
aS'38.0'
p969
aa(lp970
S'-conv2_depth'
p971
aS'316.0'
p972
aa(lp973
S'-fc_depth'
p974
aS'347.0'
p975
aa(lp976
S'-filter_size'
p977
aS'1.0'
p978
aatRp979
sS'result'
p980
g88
(g90
S'\x00\x00\x00\x00\x80\x84.A'
tRp981
sS'duration'
p982
g88
(g90
S'vq\x1b\r\xe0-\xf0?'
tRp983
sS'instance_status'
p984
g93
(g94
(I0
tS'b'
tRp985
(I1
(I1
tg89
(S'i8'
I0
I1
tRp986
(I3
S'<'
NNNI-1
I-1
I0
tbI00
S'\xff\xff\xff\xff\xff\xff\xff\xff'
tbsa(dp987
S'status'
p988
I-1
sS'std'
p989
g88
(g90
S'\x00\x00\x00\x00\x00\x00\x00\x00'
tRp990
sS'instance_durations'
p991
g93
(g94
(I0
tS'b'
tRp992
(I1
(I1
tg89
(S'f8'
I0
I1
tRp993
(I3
S'<'
NNNI-1
I-1
I0
tbI00
S'\xfe++MJ\xc1\xf0?'
tbsS'instance_results'
p994
g93
(g94
(I0
tS'b'
tRp995
(I1
(I1
tg993
I00
S'\x00\x00\x00\x00\x80\x84.A'
tbsS'instance_status'
p996
g93
(g94
(I0
tS'b'
tRp997
(I1
(I1
tg89
(S'i8'
I0
I1
tRp998
(I3
S'<'
NNNI-1
I-1
I0
tbI00
S'\xff\xff\xff\xff\xff\xff\xff\xff'
tbsS'params'
p999
g103
((lp1000
(lp1001
S'-conv1_depth'
p1002
aS'230.0'
p1003
aa(lp1004
S'-conv2_depth'
p1005
aS'210.0'
p1006
aa(lp1007
S'-fc_depth'
p1008
aS'461.0'
p1009
aa(lp1010
S'-filter_size'
p1011
aS'9.0'
p1012
aatRp1013
sS'result'
p1014
g88
(g90
S'\x00\x00\x00\x00\x80\x84.A'
tRp1015
sS'duration'
p1016
g88
(g90
S'\xfe++MJ\xc1\xf0?'
tRp1017
sS'test_error'
p1018
Fnan
sa(dp1019
S'status'
p1020
I-1
sS'std'
p1021
g88
(g90
S'\x00\x00\x00\x00\x00\x00\x00\x00'
tRp1022
sS'instance_durations'
p1023
g93
(g94
(I0
tS'b'
tRp1024
(I1
(I1
tg89
(S'f8'
I0
I1
tRp1025
(I3
S'<'
NNNI-1
I-1
I0
tbI00
S'\x9ez\xa4\xc1mm\xee?'
tbsS'instance_results'
p1026
g93
(g94
(I0
tS'b'
tRp1027
(I1
(I1
tg1025
I00
S'\x00\x00\x00\x00\x80\x84.A'
tbsS'instance_status'
p1028
g93
(g94
(I0
tS'b'
tRp1029
(I1
(I1
tg89
(S'i8'
I0
I1
tRp1030
(I3
S'<'
NNNI-1
I-1
I0
tbI00
S'\xff\xff\xff\xff\xff\xff\xff\xff'
tbsS'params'
p1031
g103
((lp1032
(lp1033
S'-conv1_depth'
p1034
aS'276.0'
p1035
aa(lp1036
S'-conv2_depth'
p1037
aS'498.0'
p1038
aa(lp1039
S'-fc_depth'
p1040
aS'351.0'
p1041
aa(lp1042
S'-filter_size'
p1043
aS'11.0'
p1044
aatRp1045
sS'result'
p1046
g88
(g90
S'\x00\x00\x00\x00\x80\x84.A'
tRp1047
sS'duration'
p1048
g88
(g90
S'\x9ez\xa4\xc1mm\xee?'
tRp1049
sS'test_error'
p1050
Fnan
sa(dp1051
S'status'
p1052
I-1
sS'std'
p1053
g88
(g90
S'\x00\x00\x00\x00\x00\x00\x00\x00'
tRp1054
sS'instance_durations'
p1055
g93
(g94
(I0
tS'b'
tRp1056
(I1
(I1
tg89
(S'f8'
I0
I1
tRp1057
(I3
S'<'
NNNI-1
I-1
I0
tbI00
S'\xef\xe6\xa9\x0e\xb9\x99\xf0?'
tbsS'instance_results'
p1058
g93
(g94
(I0
tS'b'
tRp1059
(I1
(I1
tg1057
I00
S'\x00\x00\x00\x00\x80\x84.A'
tbsS'test_error'
p1060
Fnan
sS'params'
p1061
g103
((lp1062
(lp1063
S'-conv1_depth'
p1064
aS'56.0'
p1065
aa(lp1066
S'-conv2_depth'
p1067
aS'164.0'
p1068
aa(lp1069
S'-fc_depth'
p1070
aS'347.0'
p1071
aa(lp1072
S'-filter_size'
p1073
aS'4.0'
p1074
aatRp1075
sS'result'
p1076
g88
(g90
S'\x00\x00\x00\x00\x80\x84.A'
tRp1077
sS'duration'
p1078
g88
(g90
S'\xef\xe6\xa9\x0e\xb9\x99\xf0?'
tRp1079
sS'instance_status'
p1080
g93
(g94
(I0
tS'b'
tRp1081
(I1
(I1
tg89
(S'i8'
I0
I1
tRp1082
(I3
S'<'
NNNI-1
I-1
I0
tbI00
S'\xff\xff\xff\xff\xff\xff\xff\xff'
tbsa(dp1083
S'status'
p1084
I-1
sS'std'
p1085
g88
(g90
S'\x00\x00\x00\x00\x00\x00\x00\x00'
tRp1086
sS'instance_durations'
p1087
g93
(g94
(I0
tS'b'
tRp1088
(I1
(I1
tg89
(S'f8'
I0
I1
tRp1089
(I3
S'<'
NNNI-1
I-1
I0
tbI00
S'\x9a\xccx[\xe9\xb5\xee?'
tbsS'instance_results'
p1090
g93
(g94
(I0
tS'b'
tRp1091
(I1
(I1
tg1089
I00
S'\x00\x00\x00\x00\x80\x84.A'
tbsS'instance_status'
p1092
g93
(g94
(I0
tS'b'
tRp1093
(I1
(I1
tg89
(S'i8'
I0
I1
tRp1094
(I3
S'<'
NNNI-1
I-1
I0
tbI00
S'\xff\xff\xff\xff\xff\xff\xff\xff'
tbsS'params'
p1095
g103
((lp1096
(lp1097
S'-conv1_depth'
p1098
aS'110.0'
p1099
aa(lp1100
S'-conv2_depth'
p1101
aS'178.0'
p1102
aa(lp1103
S'-fc_depth'
p1104
aS'458.0'
p1105
aa(lp1106
S'-filter_size'
p1107
aS'9.0'
p1108
aatRp1109
sS'result'
p1110
g88
(g90
S'\x00\x00\x00\x00\x80\x84.A'
tRp1111
sS'duration'
p1112
g88
(g90
S'\x9a\xccx[\xe9\xb5\xee?'
tRp1113
sS'test_error'
p1114
Fnan
sa(dp1115
S'status'
p1116
I-1
sS'std'
p1117
g88
(g90
S'\x00\x00\x00\x00\x00\x00\x00\x00'
tRp1118
sS'instance_durations'
p1119
g93
(g94
(I0
tS'b'
tRp1120
(I1
(I1
tg89
(S'f8'
I0
I1
tRp1121
(I3
S'<'
NNNI-1
I-1
I0
tbI00
S'\x92?\x18x\xee\xbd\xf1?'
tbsS'instance_results'
p1122
g93
(g94
(I0
tS'b'
tRp1123
(I1
(I1
tg1121
I00
S'\x00\x00\x00\x00\x80\x84.A'
tbsS'test_error'
p1124
Fnan
sS'params'
p1125
g103
((lp1126
(lp1127
S'-conv1_depth'
p1128
aS'274.0'
p1129
aa(lp1130
S'-conv2_depth'
p1131
aS'496.0'
p1132
aa(lp1133
S'-fc_depth'
p1134
aS'389.0'
p1135
aa(lp1136
S'-filter_size'
p1137
aS'14.0'
p1138
aatRp1139
sS'result'
p1140
g88
(g90
S'\x00\x00\x00\x00\x80\x84.A'
tRp1141
sS'duration'
p1142
g88
(g90
S'\x92?\x18x\xee\xbd\xf1?'
tRp1143
sS'instance_status'
p1144
g93
(g94
(I0
tS'b'
tRp1145
(I1
(I1
tg89
(S'i8'
I0
I1
tRp1146
(I3
S'<'
NNNI-1
I-1
I0
tbI00
S'\xff\xff\xff\xff\xff\xff\xff\xff'
tbsa(dp1147
S'status'
p1148
I-1
sS'std'
p1149
g88
(g90
S'\x00\x00\x00\x00\x00\x00\x00\x00'
tRp1150
sS'instance_durations'
p1151
g93
(g94
(I0
tS'b'
tRp1152
(I1
(I1
tg89
(S'f8'
I0
I1
tRp1153
(I3
S'<'
NNNI-1
I-1
I0
tbI00
S'oJy\xad\x84\xee\xef?'
tbsS'instance_results'
p1154
g93
(g94
(I0
tS'b'
tRp1155
(I1
(I1
tg1153
I00
S'\x00\x00\x00\x00\x80\x84.A'
tbsS'test_error'
p1156
Fnan
sS'params'
p1157
g103
((lp1158
(lp1159
S'-conv1_depth'
p1160
aS'114.0'
p1161
aa(lp1162
S'-conv2_depth'
p1163
aS'164.0'
p1164
aa(lp1165
S'-fc_depth'
p1166
aS'323.0'
p1167
aa(lp1168
S'-filter_size'
p1169
aS'5.0'
p1170
aatRp1171
sS'result'
p1172
g88
(g90
S'\x00\x00\x00\x00\x80\x84.A'
tRp1173
sS'duration'
p1174
g88
(g90
S'oJy\xad\x84\xee\xef?'
tRp1175
sS'instance_status'
p1176
g93
(g94
(I0
tS'b'
tRp1177
(I1
(I1
tg89
(S'i8'
I0
I1
tRp1178
(I3
S'<'
NNNI-1
I-1
I0
tbI00
S'\xff\xff\xff\xff\xff\xff\xff\xff'
tbsa(dp1179
S'status'
p1180
I-1
sS'std'
p1181
g88
(g90
S'\x00\x00\x00\x00\x00\x00\x00\x00'
tRp1182
sS'instance_durations'
p1183
g93
(g94
(I0
tS'b'
tRp1184
(I1
(I1
tg89
(S'f8'
I0
I1
tRp1185
(I3
S'<'
NNNI-1
I-1
I0
tbI00
S'(,\xf1\x80\xb2)\xf0?'
tbsS'instance_results'
p1186
g93
(g94
(I0
tS'b'
tRp1187
(I1
(I1
tg1185
I00
S'\x00\x00\x00\x00\x80\x84.A'
tbsS'instance_status'
p1188
g93
(g94
(I0
tS'b'
tRp1189
(I1
(I1
tg89
(S'i8'
I0
I1
tRp1190
(I3
S'<'
NNNI-1
I-1
I0
tbI00
S'\xff\xff\xff\xff\xff\xff\xff\xff'
tbsS'params'
p1191
g103
((lp1192
(lp1193
S'-conv1_depth'
p1194
aS'106.0'
p1195
aa(lp1196
S'-conv2_depth'
p1197
aS'264.0'
p1198
aa(lp1199
S'-fc_depth'
p1200
aS'511.0'
p1201
aa(lp1202
S'-filter_size'
p1203
aS'11.0'
p1204
aatRp1205
sS'result'
p1206
g88
(g90
S'\x00\x00\x00\x00\x80\x84.A'
tRp1207
sS'duration'
p1208
g88
(g90
S'(,\xf1\x80\xb2)\xf0?'
tRp1209
sS'test_error'
p1210
Fnan
sa(dp1211
S'status'
p1212
I-1
sS'std'
p1213
g88
(g90
S'\x00\x00\x00\x00\x00\x00\x00\x00'
tRp1214
sS'instance_durations'
p1215
g93
(g94
(I0
tS'b'
tRp1216
(I1
(I1
tg89
(S'f8'
I0
I1
tRp1217
(I3
S'<'
NNNI-1
I-1
I0
tbI00
S'\xcf1 {\xbd{\xf0?'
tbsS'instance_results'
p1218
g93
(g94
(I0
tS'b'
tRp1219
(I1
(I1
tg1217
I00
S'\x00\x00\x00\x00\x80\x84.A'
tbsS'test_error'
p1220
Fnan
sS'params'
p1221
g103
((lp1222
(lp1223
S'-conv1_depth'
p1224
aS'448.0'
p1225
aa(lp1226
S'-conv2_depth'
p1227
aS'362.0'
p1228
aa(lp1229
S'-fc_depth'
p1230
aS'374.0'
p1231
aa(lp1232
S'-filter_size'
p1233
aS'6.0'
p1234
aatRp1235
sS'result'
p1236
g88
(g90
S'\x00\x00\x00\x00\x80\x84.A'
tRp1237
sS'duration'
p1238
g88
(g90
S'\xcf1 {\xbd{\xf0?'
tRp1239
sS'instance_status'
p1240
g93
(g94
(I0
tS'b'
tRp1241
(I1
(I1
tg89
(S'i8'
I0
I1
tRp1242
(I3
S'<'
NNNI-1
I-1
I0
tbI00
S'\xff\xff\xff\xff\xff\xff\xff\xff'
tbsa(dp1243
S'status'
p1244
I-1
sS'std'
p1245
g88
(g90
S'\x00\x00\x00\x00\x00\x00\x00\x00'
tRp1246
sS'instance_durations'
p1247
g93
(g94
(I0
tS'b'
tRp1248
(I1
(I1
tg89
(S'f8'
I0
I1
tRp1249
(I3
S'<'
NNNI-1
I-1
I0
tbI00
S'\x19\x90\xbd\xde\xfdq\xf0?'
tbsS'instance_results'
p1250
g93
(g94
(I0
tS'b'
tRp1251
(I1
(I1
tg1249
I00
S'\x00\x00\x00\x00\x80\x84.A'
tbsS'test_error'
p1252
Fnan
sS'params'
p1253
g103
((lp1254
(lp1255
S'-conv1_depth'
p1256
aS'212.0'
p1257
aa(lp1258
S'-conv2_depth'
p1259
aS'450.0'
p1260
aa(lp1261
S'-fc_depth'
p1262
aS'271.0'
p1263
aa(lp1264
S'-filter_size'
p1265
aS'2.0'
p1266
aatRp1267
sS'result'
p1268
g88
(g90
S'\x00\x00\x00\x00\x80\x84.A'
tRp1269
sS'duration'
p1270
g88
(g90
S'\x19\x90\xbd\xde\xfdq\xf0?'
tRp1271
sS'instance_status'
p1272
g93
(g94
(I0
tS'b'
tRp1273
(I1
(I1
tg89
(S'i8'
I0
I1
tRp1274
(I3
S'<'
NNNI-1
I-1
I0
tbI00
S'\xff\xff\xff\xff\xff\xff\xff\xff'
tbsa(dp1275
S'status'
p1276
I-1
sS'std'
p1277
g88
(g90
S'\x00\x00\x00\x00\x00\x00\x00\x00'
tRp1278
sS'instance_durations'
p1279
g93
(g94
(I0
tS'b'
tRp1280
(I1
(I1
tg89
(S'f8'
I0
I1
tRp1281
(I3
S'<'
NNNI-1
I-1
I0
tbI00
S'D\x8a\x01\x12M\xa0\xee?'
tbsS'instance_results'
p1282
g93
(g94
(I0
tS'b'
tRp1283
(I1
(I1
tg1281
I00
S'\x00\x00\x00\x00\x80\x84.A'
tbsS'instance_status'
p1284
g93
(g94
(I0
tS'b'
tRp1285
(I1
(I1
tg89
(S'i8'
I0
I1
tRp1286
(I3
S'<'
NNNI-1
I-1
I0
tbI00
S'\xff\xff\xff\xff\xff\xff\xff\xff'
tbsS'params'
p1287
g103
((lp1288
(lp1289
S'-conv1_depth'
p1290
aS'172.0'
p1291
aa(lp1292
S'-conv2_depth'
p1293
aS'406.0'
p1294
aa(lp1295
S'-fc_depth'
p1296
aS'59.0'
p1297
aa(lp1298
S'-filter_size'
p1299
aS'7.0'
p1300
aatRp1301
sS'result'
p1302
g88
(g90
S'\x00\x00\x00\x00\x80\x84.A'
tRp1303
sS'duration'
p1304
g88
(g90
S'D\x8a\x01\x12M\xa0\xee?'
tRp1305
sS'test_error'
p1306
Fnan
sa(dp1307
S'status'
p1308
I-1
sS'std'
p1309
g88
(g90
S'\x00\x00\x00\x00\x00\x00\x00\x00'
tRp1310
sS'instance_durations'
p1311
g93
(g94
(I0
tS'b'
tRp1312
(I1
(I1
tg89
(S'f8'
I0
I1
tRp1313
(I3
S'<'
NNNI-1
I-1
I0
tbI00
S'\x83\xa1\x0e+\xdcr\xee?'
tbsS'instance_results'
p1314
g93
(g94
(I0
tS'b'
tRp1315
(I1
(I1
tg1313
I00
S'\x00\x00\x00\x00\x80\x84.A'
tbsS'test_error'
p1316
Fnan
sS'params'
p1317
g103
((lp1318
(lp1319
S'-conv1_depth'
p1320
aS'6.0'
p1321
aa(lp1322
S'-conv2_depth'
p1323
aS'308.0'
p1324
aa(lp1325
S'-fc_depth'
p1326
aS'129.0'
p1327
aa(lp1328
S'-filter_size'
p1329
aS'3.0'
p1330
aatRp1331
sS'result'
p1332
g88
(g90
S'\x00\x00\x00\x00\x80\x84.A'
tRp1333
sS'duration'
p1334
g88
(g90
S'\x83\xa1\x0e+\xdcr\xee?'
tRp1335
sS'instance_status'
p1336
g93
(g94
(I0
tS'b'
tRp1337
(I1
(I1
tg89
(S'i8'
I0
I1
tRp1338
(I3
S'<'
NNNI-1
I-1
I0
tbI00
S'\xff\xff\xff\xff\xff\xff\xff\xff'
tbsa(dp1339
S'status'
p1340
I-1
sS'std'
p1341
g88
(g90
S'\x00\x00\x00\x00\x00\x00\x00\x00'
tRp1342
sS'instance_durations'
p1343
g93
(g94
(I0
tS'b'
tRp1344
(I1
(I1
tg89
(S'f8'
I0
I1
tRp1345
(I3
S'<'
NNNI-1
I-1
I0
tbI00
S'\xcd\x06\x99d\xe4,\xf0?'
tbsS'instance_results'
p1346
g93
(g94
(I0
tS'b'
tRp1347
(I1
(I1
tg1345
I00
S'\x00\x00\x00\x00\x80\x84.A'
tbsS'test_error'
p1348
Fnan
sS'params'
p1349
g103
((lp1350
(lp1351
S'-conv1_depth'
p1352
aS'46.0'
p1353
aa(lp1354
S'-conv2_depth'
p1355
aS'270.0'
p1356
aa(lp1357
S'-fc_depth'
p1358
aS'191.0'
p1359
aa(lp1360
S'-filter_size'
p1361
aS'3.0'
p1362
aatRp1363
sS'result'
p1364
g88
(g90
S'\x00\x00\x00\x00\x80\x84.A'
tRp1365
sS'duration'
p1366
g88
(g90
S'\xcd\x06\x99d\xe4,\xf0?'
tRp1367
sS'instance_status'
p1368
g93
(g94
(I0
tS'b'
tRp1369
(I1
(I1
tg89
(S'i8'
I0
I1
tRp1370
(I3
S'<'
NNNI-1
I-1
I0
tbI00
S'\xff\xff\xff\xff\xff\xff\xff\xff'
tbsa(dp1371
S'status'
p1372
I-1
sS'std'
p1373
g88
(g90
S'\x00\x00\x00\x00\x00\x00\x00\x00'
tRp1374
sS'instance_durations'
p1375
g93
(g94
(I0
tS'b'
tRp1376
(I1
(I1
tg89
(S'f8'
I0
I1
tRp1377
(I3
S'<'
NNNI-1
I-1
I0
tbI00
S'\xcd>\x8fQ\x9ey\xee?'
tbsS'instance_results'
p1378
g93
(g94
(I0
tS'b'
tRp1379
(I1
(I1
tg1377
I00
S'\x00\x00\x00\x00\x80\x84.A'
tbsS'instance_status'
p1380
g93
(g94
(I0
tS'b'
tRp1381
(I1
(I1
tg89
(S'i8'
I0
I1
tRp1382
(I3
S'<'
NNNI-1
I-1
I0
tbI00
S'\xff\xff\xff\xff\xff\xff\xff\xff'
tbsS'params'
p1383
g103
((lp1384
(lp1385
S'-conv1_depth'
p1386
aS'360.0'
p1387
aa(lp1388
S'-conv2_depth'
p1389
aS'236.0'
p1390
aa(lp1391
S'-fc_depth'
p1392
aS'502.0'
p1393
aa(lp1394
S'-filter_size'
p1395
aS'8.0'
p1396
aatRp1397
sS'result'
p1398
g88
(g90
S'\x00\x00\x00\x00\x80\x84.A'
tRp1399
sS'duration'
p1400
g88
(g90
S'\xcd>\x8fQ\x9ey\xee?'
tRp1401
sS'test_error'
p1402
Fnan
sa(dp1403
S'status'
p1404
I-1
sS'std'
p1405
g88
(g90
S'\x00\x00\x00\x00\x00\x00\x00\x00'
tRp1406
sS'instance_durations'
p1407
g93
(g94
(I0
tS'b'
tRp1408
(I1
(I1
tg89
(S'f8'
I0
I1
tRp1409
(I3
S'<'
NNNI-1
I-1
I0
tbI00
S'\x14\xcb-\xad\x86D\xf0?'
tbsS'instance_results'
p1410
g93
(g94
(I0
tS'b'
tRp1411
(I1
(I1
tg1409
I00
S'\x00\x00\x00\x00\x80\x84.A'
tbsS'test_error'
p1412
Fnan
sS'params'
p1413
g103
((lp1414
(lp1415
S'-conv1_depth'
p1416
aS'336.0'
p1417
aa(lp1418
S'-conv2_depth'
p1419
aS'72.0'
p1420
aa(lp1421
S'-fc_depth'
p1422
aS'428.0'
p1423
aa(lp1424
S'-filter_size'
p1425
aS'11.0'
p1426
aatRp1427
sS'result'
p1428
g88
(g90
S'\x00\x00\x00\x00\x80\x84.A'
tRp1429
sS'duration'
p1430
g88
(g90
S'\x14\xcb-\xad\x86D\xf0?'
tRp1431
sS'instance_status'
p1432
g93
(g94
(I0
tS'b'
tRp1433
(I1
(I1
tg89
(S'i8'
I0
I1
tRp1434
(I3
S'<'
NNNI-1
I-1
I0
tbI00
S'\xff\xff\xff\xff\xff\xff\xff\xff'
tbsa(dp1435
S'status'
p1436
I-1
sS'std'
p1437
g88
(g90
S'\x00\x00\x00\x00\x00\x00\x00\x00'
tRp1438
sS'instance_durations'
p1439
g93
(g94
(I0
tS'b'
tRp1440
(I1
(I1
tg89
(S'f8'
I0
I1
tRp1441
(I3
S'<'
NNNI-1
I-1
I0
tbI00
S'\xc7\xf4\x84%\x1eP\xf0?'
tbsS'instance_results'
p1442
g93
(g94
(I0
tS'b'
tRp1443
(I1
(I1
tg1441
I00
S'\x00\x00\x00\x00\x80\x84.A'
tbsS'test_error'
p1444
Fnan
sS'params'
p1445
g103
((lp1446
(lp1447
S'-conv1_depth'
p1448
aS'186.0'
p1449
aa(lp1450
S'-conv2_depth'
p1451
aS'424.0'
p1452
aa(lp1453
S'-fc_depth'
p1454
aS'216.0'
p1455
aa(lp1456
S'-filter_size'
p1457
aS'13.0'
p1458
aatRp1459
sS'result'
p1460
g88
(g90
S'\x00\x00\x00\x00\x80\x84.A'
tRp1461
sS'duration'
p1462
g88
(g90
S'\xc7\xf4\x84%\x1eP\xf0?'
tRp1463
sS'instance_status'
p1464
g93
(g94
(I0
tS'b'
tRp1465
(I1
(I1
tg89
(S'i8'
I0
I1
tRp1466
(I3
S'<'
NNNI-1
I-1
I0
tbI00
S'\xff\xff\xff\xff\xff\xff\xff\xff'
tbsa(dp1467
S'status'
p1468
I-1
sS'std'
p1469
g88
(g90
S'\x00\x00\x00\x00\x00\x00\x00\x00'
tRp1470
sS'instance_durations'
p1471
g93
(g94
(I0
tS'b'
tRp1472
(I1
(I1
tg89
(S'f8'
I0
I1
tRp1473
(I3
S'<'
NNNI-1
I-1
I0
tbI00
S'e\x19\xe2X\x177\xf0?'
tbsS'instance_results'
p1474
g93
(g94
(I0
tS'b'
tRp1475
(I1
(I1
tg1473
I00
S'\x00\x00\x00\x00\x80\x84.A'
tbsS'instance_status'
p1476
g93
(g94
(I0
tS'b'
tRp1477
(I1
(I1
tg89
(S'i8'
I0
I1
tRp1478
(I3
S'<'
NNNI-1
I-1
I0
tbI00
S'\xff\xff\xff\xff\xff\xff\xff\xff'
tbsS'params'
p1479
g103
((lp1480
(lp1481
S'-conv1_depth'
p1482
aS'144.0'
p1483
aa(lp1484
S'-conv2_depth'
p1485
aS'332.0'
p1486
aa(lp1487
S'-fc_depth'
p1488
aS'162.0'
p1489
aa(lp1490
S'-filter_size'
p1491
aS'12.0'
p1492
aatRp1493
sS'result'
p1494
g88
(g90
S'\x00\x00\x00\x00\x80\x84.A'
tRp1495
sS'duration'
p1496
g88
(g90
S'e\x19\xe2X\x177\xf0?'
tRp1497
sS'test_error'
p1498
Fnan
sa(dp1499
S'status'
p1500
I-1
sS'std'
p1501
g88
(g90
S'\x00\x00\x00\x00\x00\x00\x00\x00'
tRp1502
sS'instance_durations'
p1503
g93
(g94
(I0
tS'b'
tRp1504
(I1
(I1
tg89
(S'f8'
I0
I1
tRp1505
(I3
S'<'
NNNI-1
I-1
I0
tbI00
S'+\x18\x95\xd4\t\xe8\xf1?'
tbsS'instance_results'
p1506
g93
(g94
(I0
tS'b'
tRp1507
(I1
(I1
tg1505
I00
S'\x00\x00\x00\x00\x80\x84.A'
tbsS'test_error'
p1508
Fnan
sS'params'
p1509
g103
((lp1510
(lp1511
S'-conv1_depth'
p1512
aS'74.0'
p1513
aa(lp1514
S'-conv2_depth'
p1515
aS'284.0'
p1516
aa(lp1517
S'-fc_depth'
p1518
aS'126.0'
p1519
aa(lp1520
S'-filter_size'
p1521
aS'1.0'
p1522
aatRp1523
sS'result'
p1524
g88
(g90
S'\x00\x00\x00\x00\x80\x84.A'
tRp1525
sS'duration'
p1526
g88
(g90
S'+\x18\x95\xd4\t\xe8\xf1?'
tRp1527
sS'instance_status'
p1528
g93
(g94
(I0
tS'b'
tRp1529
(I1
(I1
tg89
(S'i8'
I0
I1
tRp1530
(I3
S'<'
NNNI-1
I-1
I0
tbI00
S'\xff\xff\xff\xff\xff\xff\xff\xff'
tbsa(dp1531
S'status'
p1532
I-1
sS'std'
p1533
g88
(g90
S'\x00\x00\x00\x00\x00\x00\x00\x00'
tRp1534
sS'instance_durations'
p1535
g93
(g94
(I0
tS'b'
tRp1536
(I1
(I1
tg89
(S'f8'
I0
I1
tRp1537
(I3
S'<'
NNNI-1
I-1
I0
tbI00
S'\x82sF\x94\xf6\x86\xf0?'
tbsS'instance_results'
p1538
g93
(g94
(I0
tS'b'
tRp1539
(I1
(I1
tg1537
I00
S'\x00\x00\x00\x00\x80\x84.A'
tbsS'test_error'
p1540
Fnan
sS'params'
p1541
g103
((lp1542
(lp1543
S'-conv1_depth'
p1544
aS'92.0'
p1545
aa(lp1546
S'-conv2_depth'
p1547
aS'370.0'
p1548
aa(lp1549
S'-fc_depth'
p1550
aS'280.0'
p1551
aa(lp1552
S'-filter_size'
p1553
aS'5.0'
p1554
aatRp1555
sS'result'
p1556
g88
(g90
S'\x00\x00\x00\x00\x80\x84.A'
tRp1557
sS'duration'
p1558
g88
(g90
S'\x82sF\x94\xf6\x86\xf0?'
tRp1559
sS'instance_status'
p1560
g93
(g94
(I0
tS'b'
tRp1561
(I1
(I1
tg89
(S'i8'
I0
I1
tRp1562
(I3
S'<'
NNNI-1
I-1
I0
tbI00
S'\xff\xff\xff\xff\xff\xff\xff\xff'
tbsa(dp1563
S'status'
p1564
I-1
sS'std'
p1565
g88
(g90
S'\x00\x00\x00\x00\x00\x00\x00\x00'
tRp1566
sS'instance_durations'
p1567
g93
(g94
(I0
tS'b'
tRp1568
(I1
(I1
tg89
(S'f8'
I0
I1
tRp1569
(I3
S'<'
NNNI-1
I-1
I0
tbI00
S';S\xe8\xbc\xc6.\xf1?'
tbsS'instance_results'
p1570
g93
(g94
(I0
tS'b'
tRp1571
(I1
(I1
tg1569
I00
S'\x00\x00\x00\x00\x80\x84.A'
tbsS'instance_status'
p1572
g93
(g94
(I0
tS'b'
tRp1573
(I1
(I1
tg89
(S'i8'
I0
I1
tRp1574
(I3
S'<'
NNNI-1
I-1
I0
tbI00
S'\xff\xff\xff\xff\xff\xff\xff\xff'
tbsS'params'
p1575
g103
((lp1576
(lp1577
S'-conv1_depth'
p1578
aS'406.0'
p1579
aa(lp1580
S'-conv2_depth'
p1581
aS'124.0'
p1582
aa(lp1583
S'-fc_depth'
p1584
aS'453.0'
p1585
aa(lp1586
S'-filter_size'
p1587
aS'7.0'
p1588
aatRp1589
sS'result'
p1590
g88
(g90
S'\x00\x00\x00\x00\x80\x84.A'
tRp1591
sS'duration'
p1592
g88
(g90
S';S\xe8\xbc\xc6.\xf1?'
tRp1593
sS'test_error'
p1594
Fnan
sa(dp1595
S'status'
p1596
I-1
sS'std'
p1597
g88
(g90
S'\x00\x00\x00\x00\x00\x00\x00\x00'
tRp1598
sS'instance_durations'
p1599
g93
(g94
(I0
tS'b'
tRp1600
(I1
(I1
tg89
(S'f8'
I0
I1
tRp1601
(I3
S'<'
NNNI-1
I-1
I0
tbI00
S't)\xae*\xfb\xae\xf0?'
tbsS'instance_results'
p1602
g93
(g94
(I0
tS'b'
tRp1603
(I1
(I1
tg1601
I00
S'\x00\x00\x00\x00\x80\x84.A'
tbsS'test_error'
p1604
Fnan
sS'params'
p1605
g103
((lp1606
(lp1607
S'-conv1_depth'
p1608
aS'254.0'
p1609
aa(lp1610
S'-conv2_depth'
p1611
aS'210.0'
p1612
aa(lp1613
S'-fc_depth'
p1614
aS'304.0'
p1615
aa(lp1616
S'-filter_size'
p1617
aS'9.0'
p1618
aatRp1619
sS'result'
p1620
g88
(g90
S'\x00\x00\x00\x00\x80\x84.A'
tRp1621
sS'duration'
p1622
g88
(g90
S't)\xae*\xfb\xae\xf0?'
tRp1623
sS'instance_status'
p1624
g93
(g94
(I0
tS'b'
tRp1625
(I1
(I1
tg89
(S'i8'
I0
I1
tRp1626
(I3
S'<'
NNNI-1
I-1
I0
tbI00
S'\xff\xff\xff\xff\xff\xff\xff\xff'
tbsa(dp1627
S'status'
p1628
I-1
sS'std'
p1629
g88
(g90
S'\x00\x00\x00\x00\x00\x00\x00\x00'
tRp1630
sS'instance_durations'
p1631
g93
(g94
(I0
tS'b'
tRp1632
(I1
(I1
tg89
(S'f8'
I0
I1
tRp1633
(I3
S'<'
NNNI-1
I-1
I0
tbI00
S'x\n\xb9R\xcf\x82\xef?'
tbsS'instance_results'
p1634
g93
(g94
(I0
tS'b'
tRp1635
(I1
(I1
tg1633
I00
S'\x00\x00\x00\x00\x80\x84.A'
tbsS'test_error'
p1636
Fnan
sS'params'
p1637
g103
((lp1638
(lp1639
S'-conv1_depth'
p1640
aS'228.0'
p1641
aa(lp1642
S'-conv2_depth'
p1643
aS'12.0'
p1644
aa(lp1645
S'-fc_depth'
p1646
aS'251.0'
p1647
aa(lp1648
S'-filter_size'
p1649
aS'14.0'
p1650
aatRp1651
sS'result'
p1652
g88
(g90
S'\x00\x00\x00\x00\x80\x84.A'
tRp1653
sS'duration'
p1654
g88
(g90
S'x\n\xb9R\xcf\x82\xef?'
tRp1655
sS'instance_status'
p1656
g93
(g94
(I0
tS'b'
tRp1657
(I1
(I1
tg89
(S'i8'
I0
I1
tRp1658
(I3
S'<'
NNNI-1
I-1
I0
tbI00
S'\xff\xff\xff\xff\xff\xff\xff\xff'
tbsa(dp1659
S'status'
p1660
I-1
sS'std'
p1661
g88
(g90
S'\x00\x00\x00\x00\x00\x00\x00\x00'
tRp1662
sS'instance_durations'
p1663
g93
(g94
(I0
tS'b'
tRp1664
(I1
(I1
tg89
(S'f8'
I0
I1
tRp1665
(I3
S'<'
NNNI-1
I-1
I0
tbI00
S'\xd9\xcd\x8c~4\x9c\xee?'
tbsS'instance_results'
p1666
g93
(g94
(I0
tS'b'
tRp1667
(I1
(I1
tg1665
I00
S'\x00\x00\x00\x00\x80\x84.A'
tbsS'instance_status'
p1668
g93
(g94
(I0
tS'b'
tRp1669
(I1
(I1
tg89
(S'i8'
I0
I1
tRp1670
(I3
S'<'
NNNI-1
I-1
I0
tbI00
S'\xff\xff\xff\xff\xff\xff\xff\xff'
tbsS'params'
p1671
g103
((lp1672
(lp1673
S'-conv1_depth'
p1674
aS'168.0'
p1675
aa(lp1676
S'-conv2_depth'
p1677
aS'506.0'
p1678
aa(lp1679
S'-fc_depth'
p1680
aS'3.0'
p1681
aa(lp1682
S'-filter_size'
p1683
aS'10.0'
p1684
aatRp1685
sS'result'
p1686
g88
(g90
S'\x00\x00\x00\x00\x80\x84.A'
tRp1687
sS'duration'
p1688
g88
(g90
S'\xd9\xcd\x8c~4\x9c\xee?'
tRp1689
sS'test_error'
p1690
Fnan
sa(dp1691
S'status'
p1692
I-1
sS'std'
p1693
g88
(g90
S'\x00\x00\x00\x00\x00\x00\x00\x00'
tRp1694
sS'instance_durations'
p1695
g93
(g94
(I0
tS'b'
tRp1696
(I1
(I1
tg89
(S'f8'
I0
I1
tRp1697
(I3
S'<'
NNNI-1
I-1
I0
tbI00
S'\xfa\xb7\xcb~\xddi\xee?'
tbsS'instance_results'
p1698
g93
(g94
(I0
tS'b'
tRp1699
(I1
(I1
tg1697
I00
S'\x00\x00\x00\x00\x80\x84.A'
tbsS'test_error'
p1700
Fnan
sS'params'
p1701
g103
((lp1702
(lp1703
S'-conv1_depth'
p1704
aS'124.0'
p1705
aa(lp1706
S'-conv2_depth'
p1707
aS'340.0'
p1708
aa(lp1709
S'-fc_depth'
p1710
aS'336.0'
p1711
aa(lp1712
S'-filter_size'
p1713
aS'5.0'
p1714
aatRp1715
sS'result'
p1716
g88
(g90
S'\x00\x00\x00\x00\x80\x84.A'
tRp1717
sS'duration'
p1718
g88
(g90
S'\xfa\xb7\xcb~\xddi\xee?'
tRp1719
sS'instance_status'
p1720
g93
(g94
(I0
tS'b'
tRp1721
(I1
(I1
tg89
(S'i8'
I0
I1
tRp1722
(I3
S'<'
NNNI-1
I-1
I0
tbI00
S'\xff\xff\xff\xff\xff\xff\xff\xff'
tbsa(dp1723
S'status'
p1724
I-1
sS'std'
p1725
g88
(g90
S'\x00\x00\x00\x00\x00\x00\x00\x00'
tRp1726
sS'instance_durations'
p1727
g93
(g94
(I0
tS'b'
tRp1728
(I1
(I1
tg89
(S'f8'
I0
I1
tRp1729
(I3
S'<'
NNNI-1
I-1
I0
tbI00
S'2\x8e\x91\xec\x11j\xee?'
tbsS'instance_results'
p1730
g93
(g94
(I0
tS'b'
tRp1731
(I1
(I1
tg1729
I00
S'\x00\x00\x00\x00\x80\x84.A'
tbsS'instance_status'
p1732
g93
(g94
(I0
tS'b'
tRp1733
(I1
(I1
tg89
(S'i8'
I0
I1
tRp1734
(I3
S'<'
NNNI-1
I-1
I0
tbI00
S'\xff\xff\xff\xff\xff\xff\xff\xff'
tbsS'params'
p1735
g103
((lp1736
(lp1737
S'-conv1_depth'
p1738
aS'46.0'
p1739
aa(lp1740
S'-conv2_depth'
p1741
aS'320.0'
p1742
aa(lp1743
S'-fc_depth'
p1744
aS'384.0'
p1745
aa(lp1746
S'-filter_size'
p1747
aS'7.0'
p1748
aatRp1749
sS'result'
p1750
g88
(g90
S'\x00\x00\x00\x00\x80\x84.A'
tRp1751
sS'duration'
p1752
g88
(g90
S'2\x8e\x91\xec\x11j\xee?'
tRp1753
sS'test_error'
p1754
Fnan
sa(dp1755
S'status'
p1756
I-1
sS'std'
p1757
g88
(g90
S'\x00\x00\x00\x00\x00\x00\x00\x00'
tRp1758
sS'instance_durations'
p1759
g93
(g94
(I0
tS'b'
tRp1760
(I1
(I1
tg89
(S'f8'
I0
I1
tRp1761
(I3
S'<'
NNNI-1
I-1
I0
tbI00
S'\x9d.\x8b\x89\xcdG\xf1?'
tbsS'instance_results'
p1762
g93
(g94
(I0
tS'b'
tRp1763
(I1
(I1
tg1761
I00
S'\x00\x00\x00\x00\x80\x84.A'
tbsS'instance_status'
p1764
g93
(g94
(I0
tS'b'
tRp1765
(I1
(I1
tg89
(S'i8'
I0
I1
tRp1766
(I3
S'<'
NNNI-1
I-1
I0
tbI00
S'\xff\xff\xff\xff\xff\xff\xff\xff'
tbsS'params'
p1767
g103
((lp1768
(lp1769
S'-conv1_depth'
p1770
aS'292.0'
p1771
aa(lp1772
S'-conv2_depth'
p1773
aS'78.0'
p1774
aa(lp1775
S'-fc_depth'
p1776
aS'480.0'
p1777
aa(lp1778
S'-filter_size'
p1779
aS'11.0'
p1780
aatRp1781
sS'result'
p1782
g88
(g90
S'\x00\x00\x00\x00\x80\x84.A'
tRp1783
sS'duration'
p1784
g88
(g90
S'\x9d.\x8b\x89\xcdG\xf1?'
tRp1785
sS'test_error'
p1786
Fnan
sa(dp1787
S'status'
p1788
I-1
sS'std'
p1789
g88
(g90
S'\x00\x00\x00\x00\x00\x00\x00\x00'
tRp1790
sS'instance_durations'
p1791
g93
(g94
(I0
tS'b'
tRp1792
(I1
(I1
tg89
(S'f8'
I0
I1
tRp1793
(I3
S'<'
NNNI-1
I-1
I0
tbI00
S'\x8e\x1e\xbf\xb7\xe9\xcf\xf1?'
tbsS'instance_results'
p1794
g93
(g94
(I0
tS'b'
tRp1795
(I1
(I1
tg1793
I00
S'\x00\x00\x00\x00\x80\x84.A'
tbsS'test_error'
p1796
Fnan
sS'params'
p1797
g103
((lp1798
(lp1799
S'-conv1_depth'
p1800
aS'222.0'
p1801
aa(lp1802
S'-conv2_depth'
p1803
aS'20.0'
p1804
aa(lp1805
S'-fc_depth'
p1806
aS'415.0'
p1807
aa(lp1808
S'-filter_size'
p1809
aS'9.0'
p1810
aatRp1811
sS'result'
p1812
g88
(g90
S'\x00\x00\x00\x00\x80\x84.A'
tRp1813
sS'duration'
p1814
g88
(g90
S'\x8e\x1e\xbf\xb7\xe9\xcf\xf1?'
tRp1815
sS'instance_status'
p1816
g93
(g94
(I0
tS'b'
tRp1817
(I1
(I1
tg89
(S'i8'
I0
I1
tRp1818
(I3
S'<'
NNNI-1
I-1
I0
tbI00
S'\xff\xff\xff\xff\xff\xff\xff\xff'
tbsa(dp1819
S'status'
p1820
I-1
sS'std'
p1821
g88
(g90
S'\x00\x00\x00\x00\x00\x00\x00\x00'
tRp1822
sS'instance_durations'
p1823
g93
(g94
(I0
tS'b'
tRp1824
(I1
(I1
tg89
(S'f8'
I0
I1
tRp1825
(I3
S'<'
NNNI-1
I-1
I0
tbI00
S'^\xf4\x15\xa4\x19\x8b\xee?'
tbsS'instance_results'
p1826
g93
(g94
(I0
tS'b'
tRp1827
(I1
(I1
tg1825
I00
S'\x00\x00\x00\x00\x80\x84.A'
tbsS'instance_status'
p1828
g93
(g94
(I0
tS'b'
tRp1829
(I1
(I1
tg89
(S'i8'
I0
I1
tRp1830
(I3
S'<'
NNNI-1
I-1
I0
tbI00
S'\xff\xff\xff\xff\xff\xff\xff\xff'
tbsS'params'
p1831
g103
((lp1832
(lp1833
S'-conv1_depth'
p1834
aS'472.0'
p1835
aa(lp1836
S'-conv2_depth'
p1837
aS'480.0'
p1838
aa(lp1839
S'-fc_depth'
p1840
aS'364.0'
p1841
aa(lp1842
S'-filter_size'
p1843
aS'12.0'
p1844
aatRp1845
sS'result'
p1846
g88
(g90
S'\x00\x00\x00\x00\x80\x84.A'
tRp1847
sS'duration'
p1848
g88
(g90
S'^\xf4\x15\xa4\x19\x8b\xee?'
tRp1849
sS'test_error'
p1850
Fnan
sa(dp1851
S'status'
p1852
I-1
sS'std'
p1853
g88
(g90
S'\x00\x00\x00\x00\x00\x00\x00\x00'
tRp1854
sS'instance_durations'
p1855
g93
(g94
(I0
tS'b'
tRp1856
(I1
(I1
tg89
(S'f8'
I0
I1
tRp1857
(I3
S'<'
NNNI-1
I-1
I0
tbI00
S'\xb2\xd7\xbb?\xde+\xef?'
tbsS'instance_results'
p1858
g93
(g94
(I0
tS'b'
tRp1859
(I1
(I1
tg1857
I00
S'\x00\x00\x00\x00\x80\x84.A'
tbsS'instance_status'
p1860
g93
(g94
(I0
tS'b'
tRp1861
(I1
(I1
tg89
(S'i8'
I0
I1
tRp1862
(I3
S'<'
NNNI-1
I-1
I0
tbI00
S'\xff\xff\xff\xff\xff\xff\xff\xff'
tbsS'params'
p1863
g103
((lp1864
(lp1865
S'-conv1_depth'
p1866
aS'388.0'
p1867
aa(lp1868
S'-conv2_depth'
p1869
aS'476.0'
p1870
aa(lp1871
S'-fc_depth'
p1872
aS'319.0'
p1873
aa(lp1874
S'-filter_size'
p1875
aS'13.0'
p1876
aatRp1877
sS'result'
p1878
g88
(g90
S'\x00\x00\x00\x00\x80\x84.A'
tRp1879
sS'duration'
p1880
g88
(g90
S'\xb2\xd7\xbb?\xde+\xef?'
tRp1881
sS'test_error'
p1882
Fnan
sa(dp1883
S'status'
p1884
I-1
sS'std'
p1885
g88
(g90
S'\x00\x00\x00\x00\x00\x00\x00\x00'
tRp1886
sS'instance_durations'
p1887
g93
(g94
(I0
tS'b'
tRp1888
(I1
(I1
tg89
(S'f8'
I0
I1
tRp1889
(I3
S'<'
NNNI-1
I-1
I0
tbI00
S'/kb\x81\xafh\xee?'
tbsS'instance_results'
p1890
g93
(g94
(I0
tS'b'
tRp1891
(I1
(I1
tg1889
I00
S'\x00\x00\x00\x00\x80\x84.A'
tbsS'test_error'
p1892
Fnan
sS'params'
p1893
g103
((lp1894
(lp1895
S'-conv1_depth'
p1896
aS'66.0'
p1897
aa(lp1898
S'-conv2_depth'
p1899
aS'180.0'
p1900
aa(lp1901
S'-fc_depth'
p1902
aS'431.0'
p1903
aa(lp1904
S'-filter_size'
p1905
aS'4.0'
p1906
aatRp1907
sS'result'
p1908
g88
(g90
S'\x00\x00\x00\x00\x80\x84.A'
tRp1909
sS'duration'
p1910
g88
(g90
S'/kb\x81\xafh\xee?'
tRp1911
sS'instance_status'
p1912
g93
(g94
(I0
tS'b'
tRp1913
(I1
(I1
tg89
(S'i8'
I0
I1
tRp1914
(I3
S'<'
NNNI-1
I-1
I0
tbI00
S'\xff\xff\xff\xff\xff\xff\xff\xff'
tbsa(dp1915
S'status'
p1916
I-1
sS'std'
p1917
g88
(g90
S'\x00\x00\x00\x00\x00\x00\x00\x00'
tRp1918
sS'instance_durations'
p1919
g93
(g94
(I0
tS'b'
tRp1920
(I1
(I1
tg89
(S'f8'
I0
I1
tRp1921
(I3
S'<'
NNNI-1
I-1
I0
tbI00
S'\xa1G\x8c\x9e[h\xee?'
tbsS'instance_results'
p1922
g93
(g94
(I0
tS'b'
tRp1923
(I1
(I1
tg1921
I00
S'\x00\x00\x00\x00\x80\x84.A'
tbsS'instance_status'
p1924
g93
(g94
(I0
tS'b'
tRp1925
(I1
(I1
tg89
(S'i8'
I0
I1
tRp1926
(I3
S'<'
NNNI-1
I-1
I0
tbI00
S'\xff\xff\xff\xff\xff\xff\xff\xff'
tbsS'params'
p1927
g103
((lp1928
(lp1929
S'-conv1_depth'
p1930
aS'156.0'
p1931
aa(lp1932
S'-conv2_depth'
p1933
aS'98.0'
p1934
aa(lp1935
S'-fc_depth'
p1936
aS'214.0'
p1937
aa(lp1938
S'-filter_size'
p1939
aS'6.0'
p1940
aatRp1941
sS'result'
p1942
g88
(g90
S'\x00\x00\x00\x00\x80\x84.A'
tRp1943
sS'duration'
p1944
g88
(g90
S'\xa1G\x8c\x9e[h\xee?'
tRp1945
sS'test_error'
p1946
Fnan
sa(dp1947
S'status'
p1948
I-1
sS'std'
p1949
g88
(g90
S'\x00\x00\x00\x00\x00\x00\x00\x00'
tRp1950
sS'instance_durations'
p1951
g93
(g94
(I0
tS'b'
tRp1952
(I1
(I1
tg89
(S'f8'
I0
I1
tRp1953
(I3
S'<'
NNNI-1
I-1
I0
tbI00
S'\x81\x04\xc5\x8f1w\xf1?'
tbsS'instance_results'
p1954
g93
(g94
(I0
tS'b'
tRp1955
(I1
(I1
tg1953
I00
S'\x00\x00\x00\x00\x80\x84.A'
tbsS'test_error'
p1956
Fnan
sS'params'
p1957
g103
((lp1958
(lp1959
S'-conv1_depth'
p1960
aS'134.0'
p1961
aa(lp1962
S'-conv2_depth'
p1963
aS'186.0'
p1964
aa(lp1965
S'-fc_depth'
p1966
aS'452.0'
p1967
aa(lp1968
S'-filter_size'
p1969
aS'9.0'
p1970
aatRp1971
sS'result'
p1972
g88
(g90
S'\x00\x00\x00\x00\x80\x84.A'
tRp1973
sS'duration'
p1974
g88
(g90
S'\x81\x04\xc5\x8f1w\xf1?'
tRp1975
sS'instance_status'
p1976
g93
(g94
(I0
tS'b'
tRp1977
(I1
(I1
tg89
(S'i8'
I0
I1
tRp1978
(I3
S'<'
NNNI-1
I-1
I0
tbI00
S'\xff\xff\xff\xff\xff\xff\xff\xff'
tbsa(dp1979
S'status'
p1980
I-1
sS'std'
p1981
g88
(g90
S'\x00\x00\x00\x00\x00\x00\x00\x00'
tRp1982
sS'instance_durations'
p1983
g93
(g94
(I0
tS'b'
tRp1984
(I1
(I1
tg89
(S'f8'
I0
I1
tRp1985
(I3
S'<'
NNNI-1
I-1
I0
tbI00
S'\xf47\xa1\x10\x01\x07\xf1?'
tbsS'instance_results'
p1986
g93
(g94
(I0
tS'b'
tRp1987
(I1
(I1
tg1985
I00
S'\x00\x00\x00\x00\x80\x84.A'
tbsS'test_error'
p1988
Fnan
sS'params'
p1989
g103
((lp1990
(lp1991
S'-conv1_depth'
p1992
aS'104.0'
p1993
aa(lp1994
S'-conv2_depth'
p1995
aS'124.0'
p1996
aa(lp1997
S'-fc_depth'
p1998
aS'400.0'
p1999
aa(lp2000
S'-filter_size'
p2001
aS'8.0'
p2002
aatRp2003
sS'result'
p2004
g88
(g90
S'\x00\x00\x00\x00\x80\x84.A'
tRp2005
sS'duration'
p2006
g88
(g90
S'\xf47\xa1\x10\x01\x07\xf1?'
tRp2007
sS'instance_status'
p2008
g93
(g94
(I0
tS'b'
tRp2009
(I1
(I1
tg89
(S'i8'
I0
I1
tRp2010
(I3
S'<'
NNNI-1
I-1
I0
tbI00
S'\xff\xff\xff\xff\xff\xff\xff\xff'
tbsa(dp2011
S'status'
p2012
I-1
sS'std'
p2013
g88
(g90
S'\x00\x00\x00\x00\x00\x00\x00\x00'
tRp2014
sS'instance_durations'
p2015
g93
(g94
(I0
tS'b'
tRp2016
(I1
(I1
tg89
(S'f8'
I0
I1
tRp2017
(I3
S'<'
NNNI-1
I-1
I0
tbI00
S'\x9aw\x9c\xa2#9\xf0?'
tbsS'instance_results'
p2018
g93
(g94
(I0
tS'b'
tRp2019
(I1
(I1
tg2017
I00
S'\x00\x00\x00\x00\x80\x84.A'
tbsS'instance_status'
p2020
g93
(g94
(I0
tS'b'
tRp2021
(I1
(I1
tg89
(S'i8'
I0
I1
tRp2022
(I3
S'<'
NNNI-1
I-1
I0
tbI00
S'\xff\xff\xff\xff\xff\xff\xff\xff'
tbsS'params'
p2023
g103
((lp2024
(lp2025
S'-conv1_depth'
p2026
aS'272.0'
p2027
aa(lp2028
S'-conv2_depth'
p2029
aS'388.0'
p2030
aa(lp2031
S'-fc_depth'
p2032
aS'390.0'
p2033
aa(lp2034
S'-filter_size'
p2035
aS'13.0'
p2036
aatRp2037
sS'result'
p2038
g88
(g90
S'\x00\x00\x00\x00\x80\x84.A'
tRp2039
sS'duration'
p2040
g88
(g90
S'\x9aw\x9c\xa2#9\xf0?'
tRp2041
sS'test_error'
p2042
Fnan
sa(dp2043
S'status'
p2044
I-1
sS'std'
p2045
g88
(g90
S'\x00\x00\x00\x00\x00\x00\x00\x00'
tRp2046
sS'instance_durations'
p2047
g93
(g94
(I0
tS'b'
tRp2048
(I1
(I1
tg89
(S'f8'
I0
I1
tRp2049
(I3
S'<'
NNNI-1
I-1
I0
tbI00
S'\x13\xbaK\xe2\xac\x88\xef?'
tbsS'instance_results'
p2050
g93
(g94
(I0
tS'b'
tRp2051
(I1
(I1
tg2049
I00
S'\x00\x00\x00\x00\x80\x84.A'
tbsS'test_error'
p2052
Fnan
sS'params'
p2053
g103
((lp2054
(lp2055
S'-conv1_depth'
p2056
aS'320.0'
p2057
aa(lp2058
S'-conv2_depth'
p2059
aS'416.0'
p2060
aa(lp2061
S'-fc_depth'
p2062
aS'487.0'
p2063
aa(lp2064
S'-filter_size'
p2065
aS'12.0'
p2066
aatRp2067
sS'result'
p2068
g88
(g90
S'\x00\x00\x00\x00\x80\x84.A'
tRp2069
sS'duration'
p2070
g88
(g90
S'\x13\xbaK\xe2\xac\x88\xef?'
tRp2071
sS'instance_status'
p2072
g93
(g94
(I0
tS'b'
tRp2073
(I1
(I1
tg89
(S'i8'
I0
I1
tRp2074
(I3
S'<'
NNNI-1
I-1
I0
tbI00
S'\xff\xff\xff\xff\xff\xff\xff\xff'
tbsa(dp2075
S'status'
p2076
I-1
sS'std'
p2077
g88
(g90
S'\x00\x00\x00\x00\x00\x00\x00\x00'
tRp2078
sS'instance_durations'
p2079
g93
(g94
(I0
tS'b'
tRp2080
(I1
(I1
tg89
(S'f8'
I0
I1
tRp2081
(I3
S'<'
NNNI-1
I-1
I0
tbI00
S'\xf3\x8eSt$\x17\xf1?'
tbsS'instance_results'
p2082
g93
(g94
(I0
tS'b'
tRp2083
(I1
(I1
tg2081
I00
S'\x00\x00\x00\x00\x80\x84.A'
tbsS'test_error'
p2084
Fnan
sS'params'
p2085
g103
((lp2086
(lp2087
S'-conv1_depth'
p2088
aS'86.0'
p2089
aa(lp2090
S'-conv2_depth'
p2091
aS'154.0'
p2092
aa(lp2093
S'-fc_depth'
p2094
aS'325.0'
p2095
aa(lp2096
S'-filter_size'
p2097
aS'5.0'
p2098
aatRp2099
sS'result'
p2100
g88
(g90
S'\x00\x00\x00\x00\x80\x84.A'
tRp2101
sS'duration'
p2102
g88
(g90
S'\xf3\x8eSt$\x17\xf1?'
tRp2103
sS'instance_status'
p2104
g93
(g94
(I0
tS'b'
tRp2105
(I1
(I1
tg89
(S'i8'
I0
I1
tRp2106
(I3
S'<'
NNNI-1
I-1
I0
tbI00
S'\xff\xff\xff\xff\xff\xff\xff\xff'
tbsa(dp2107
S'status'
p2108
I-1
sS'std'
p2109
g88
(g90
S'\x00\x00\x00\x00\x00\x00\x00\x00'
tRp2110
sS'instance_durations'
p2111
g93
(g94
(I0
tS'b'
tRp2112
(I1
(I1
tg89
(S'f8'
I0
I1
tRp2113
(I3
S'<'
NNNI-1
I-1
I0
tbI00
S'\x07\x99d\xe4,\xec\xf0?'
tbsS'instance_results'
p2114
g93
(g94
(I0
tS'b'
tRp2115
(I1
(I1
tg2113
I00
S'\x00\x00\x00\x00\x80\x84.A'
tbsS'instance_status'
p2116
g93
(g94
(I0
tS'b'
tRp2117
(I1
(I1
tg89
(S'i8'
I0
I1
tRp2118
(I3
S'<'
NNNI-1
I-1
I0
tbI00
S'\xff\xff\xff\xff\xff\xff\xff\xff'
tbsS'params'
p2119
g103
((lp2120
(lp2121
S'-conv1_depth'
p2122
aS'28.0'
p2123
aa(lp2124
S'-conv2_depth'
p2125
aS'46.0'
p2126
aa(lp2127
S'-fc_depth'
p2128
aS'167.0'
p2129
aa(lp2130
S'-filter_size'
p2131
aS'7.0'
p2132
aatRp2133
sS'result'
p2134
g88
(g90
S'\x00\x00\x00\x00\x80\x84.A'
tRp2135
sS'duration'
p2136
g88
(g90
S'\x07\x99d\xe4,\xec\xf0?'
tRp2137
sS'test_error'
p2138
Fnan
sa(dp2139
S'status'
p2140
I-1
sS'std'
p2141
g88
(g90
S'\x00\x00\x00\x00\x00\x00\x00\x00'
tRp2142
sS'instance_durations'
p2143
g93
(g94
(I0
tS'b'
tRp2144
(I1
(I1
tg89
(S'f8'
I0
I1
tRp2145
(I3
S'<'
NNNI-1
I-1
I0
tbI00
S'@\xd9\x94+\xbc\xcb\xf1?'
tbsS'instance_results'
p2146
g93
(g94
(I0
tS'b'
tRp2147
(I1
(I1
tg2145
I00
S'\x00\x00\x00\x00\x80\x84.A'
tbsS'test_error'
p2148
Fnan
sS'params'
p2149
g103
((lp2150
(lp2151
S'-conv1_depth'
p2152
aS'116.0'
p2153
aa(lp2154
S'-conv2_depth'
p2155
aS'268.0'
p2156
aa(lp2157
S'-fc_depth'
p2158
aS'512.0'
p2159
aa(lp2160
S'-filter_size'
p2161
aS'11.0'
p2162
aatRp2163
sS'result'
p2164
g88
(g90
S'\x00\x00\x00\x00\x80\x84.A'
tRp2165
sS'duration'
p2166
g88
(g90
S'@\xd9\x94+\xbc\xcb\xf1?'
tRp2167
sS'instance_status'
p2168
g93
(g94
(I0
tS'b'
tRp2169
(I1
(I1
tg89
(S'i8'
I0
I1
tRp2170
(I3
S'<'
NNNI-1
I-1
I0
tbI00
S'\xff\xff\xff\xff\xff\xff\xff\xff'
tbsa(dp2171
S'status'
p2172
I-1
sS'std'
p2173
g88
(g90
S'\x00\x00\x00\x00\x00\x00\x00\x00'
tRp2174
sS'instance_durations'
p2175
g93
(g94
(I0
tS'b'
tRp2176
(I1
(I1
tg89
(S'f8'
I0
I1
tRp2177
(I3
S'<'
NNNI-1
I-1
I0
tbI00
S'\x8e\xcc#\x7f0\xf0\xf0?'
tbsS'instance_results'
p2178
g93
(g94
(I0
tS'b'
tRp2179
(I1
(I1
tg2177
I00
S'\x00\x00\x00\x00\x80\x84.A'
tbsS'test_error'
p2180
Fnan
sS'params'
p2181
g103
((lp2182
(lp2183
S'-conv1_depth'
p2184
aS'438.0'
p2185
aa(lp2186
S'-conv2_depth'
p2187
aS'358.0'
p2188
aa(lp2189
S'-fc_depth'
p2190
aS'380.0'
p2191
aa(lp2192
S'-filter_size'
p2193
aS'6.0'
p2194
aatRp2195
sS'result'
p2196
g88
(g90
S'\x00\x00\x00\x00\x80\x84.A'
tRp2197
sS'duration'
p2198
g88
(g90
S'\x8e\xcc#\x7f0\xf0\xf0?'
tRp2199
sS'instance_status'
p2200
g93
(g94
(I0
tS'b'
tRp2201
(I1
(I1
tg89
(S'i8'
I0
I1
tRp2202
(I3
S'<'
NNNI-1
I-1
I0
tbI00
S'\xff\xff\xff\xff\xff\xff\xff\xff'
tbsasS'total_wallclock_time'
p2203
F92.414928999999987
sS'experiment_name'
p2204
S'hyperopt_august2013_mod'
p2205
sS'starttime'
p2206
(lp2207
F1472551506.524621
as.