(dp1
S'trials'
p2
ccopy_reg
_reconstructor
p3
(chyperopt.base
Trials
p4
c__builtin__
object
p5
NtRp6
(dp7
S'attachments'
p8
(dp9
sS'_trials'
p10
(lp11
(dp12
S'refresh_time'
p13
cdatetime
datetime
p14
(S'\x07\xe0\x08\x1e\n\x05!\x026h'
tRp15
sS'book_time'
p16
g14
(S'\x07\xe0\x08\x1e\n\x05\x06\r:\xb8'
tRp17
sS'misc'
p18
(dp19
S'tid'
p20
I0
sS'idxs'
p21
(dp22
S'conv2_depth'
p23
(lp24
I0
asS'fc_depth'
p25
(lp26
I0
asS'conv1_depth'
p27
(lp28
I0
asS'filter_size'
p29
(lp30
I0
assS'cmd'
p31
(S'domain_attachment'
p32
S'FMinIter_Domain'
p33
tp34
sS'vals'
p35
(dp36
g23
(lp37
F392
asg25
(lp38
F485
asg27
(lp39
F146
asg29
(lp40
F8
assS'workdir'
p41
NssS'state'
p42
I2
sg20
I0
sS'exp_key'
p43
NsS'version'
p44
I0
sS'result'
p45
(dp46
S'status'
p47
S'ok'
p48
sS'loss'
p49
F1000000
ssS'owner'
p50
NsS'spec'
p51
Nsa(dp52
g13
g14
(S'\x07\xe0\x08\x1e\n\x05"\x07C`'
tRp53
sg16
g14
(S'\x07\xe0\x08\x1e\n\x05!\x02U\xa8'
tRp54
sg18
(dp55
g20
I1
sg21
(dp56
g23
(lp57
I1
asg25
(lp58
I1
asg27
(lp59
I1
asg29
(lp60
I1
assg31
(g32
g33
tp61
sg35
(dp62
g23
(lp63
F512
asg25
(lp64
F358
asg27
(lp65
F114
asg29
(lp66
F13
assg41
Nssg42
I2
sg20
I1
sg43
Nsg44
I0
sg45
(dp67
g47
g48
sg49
F1000000
ssg50
Nsg51
Nsa(dp68
g13
g14
(S'\x07\xe0\x08\x1e\n\x05#\x0b\xe2\xf8'
tRp69
sg16
g14
(S'\x07\xe0\x08\x1e\n\x05"\x07b\xa0'
tRp70
sg18
(dp71
g20
I2
sg21
(dp72
g23
(lp73
I2
asg25
(lp74
I2
asg27
(lp75
I2
asg29
(lp76
I2
assg31
(g32
g33
tp77
sg35
(dp78
g23
(lp79
F144
asg25
(lp80
F299
asg27
(lp81
F96
asg29
(lp82
F12
assg41
Nssg42
I2
sg20
I2
sg43
Nsg44
I0
sg45
(dp83
g47
g48
sg49
F1000000
ssg50
Nsg51
Nsa(dp84
g13
g14
(S'\x07\xe0\x08\x1e\n\x05%\x01\t\xa0'
tRp85
sg16
g14
(S'\x07\xe0\x08\x1e\n\x05#\x0c\x06 '
tRp86
sg18
(dp87
g20
I3
sg21
(dp88
g23
(lp89
I3
asg25
(lp90
I3
asg27
(lp91
I3
asg29
(lp92
I3
assg31
(g32
g33
tp93
sg35
(dp94
g23
(lp95
F394
asg25
(lp96
F266
asg27
(lp97
F404
asg29
(lp98
F5
assg41
Nssg42
I2
sg20
I3
sg43
Nsg44
I0
sg45
(dp99
g47
g48
sg49
F1000000
ssg50
Nsg51
Nsa(dp100
g13
g14
(S'\x07\xe0\x08\x1e\n\x05&\x065\xd8'
tRp101
sg16
g14
(S'\x07\xe0\x08\x1e\n\x05%\x01!\x10'
tRp102
sg18
(dp103
g20
I4
sg21
(dp104
g23
(lp105
I4
asg25
(lp106
I4
asg27
(lp107
I4
asg29
(lp108
I4
assg31
(g32
g33
tp109
sg35
(dp110
g23
(lp111
F376
asg25
(lp112
F417
asg27
(lp113
F444
asg29
(lp114
F7
assg41
Nssg42
I2
sg20
I4
sg43
Nsg44
I0
sg45
(dp115
g47
g48
sg49
F1000000
ssg50
Nsg51
Nsa(dp116
g13
g14
(S"\x07\xe0\x08\x1e\n\x05'\x0bb\x10"
tRp117
sg16
g14
(S'\x07\xe0\x08\x1e\n\x05&\x06Y\x00'
tRp118
sg18
(dp119
g20
I5
sg21
(dp120
g23
(lp121
I5
asg25
(lp122
I5
asg27
(lp123
I5
asg29
(lp124
I5
assg31
(g32
g33
tp125
sg35
(dp126
g23
(lp127
F64
asg25
(lp128
F288
asg27
(lp129
F204
asg29
(lp130
F10
assg41
Nssg42
I2
sg20
I5
sg43
Nsg44
I0
sg45
(dp131
g47
g48
sg49
F1000000
ssg50
Nsg51
Nsa(dp132
g13
g14
(S'\x07\xe0\x08\x1e\n\x05)\x03,\x80'
tRp133
sg16
g14
(S"\x07\xe0\x08\x1e\n\x05'\x0b\x858"
tRp134
sg18
(dp135
g20
I6
sg21
(dp136
g23
(lp137
I6
asg25
(lp138
I6
asg27
(lp139
I6
asg29
(lp140
I6
assg31
(g32
g33
tp141
sg35
(dp142
g23
(lp143
F38
asg25
(lp144
F147
asg27
(lp145
F392
asg29
(lp146
F12
assg41
Nssg42
I2
sg20
I6
sg43
Nsg44
I0
sg45
(dp147
g47
g48
sg49
F1000000
ssg50
Nsg51
Nsa(dp148
g13
g14
(S'\x07\xe0\x08\x1e\n\x05*\x08\x16P'
tRp149
sg16
g14
(S'\x07\xe0\x08\x1e\n\x05)\x03O\xa8'
tRp150
sg18
(dp151
g20
I7
sg21
(dp152
g23
(lp153
I7
asg25
(lp154
I7
asg27
(lp155
I7
asg29
(lp156
I7
assg31
(g32
g33
tp157
sg35
(dp158
g23
(lp159
F340
asg25
(lp160
F196
asg27
(lp161
F84
asg29
(lp162
F9
assg41
Nssg42
I2
sg20
I7
sg43
Nsg44
I0
sg45
(dp163
g47
g48
sg49
F1000000
ssg50
Nsg51
Nsa(dp164
g13
g14
(S'\x07\xe0\x08\x1e\n\x05+\x0bB\xd0'
tRp165
sg16
g14
(S'\x07\xe0\x08\x1e\n\x05*\x089x'
tRp166
sg18
(dp167
g20
I8
sg21
(dp168
g23
(lp169
I8
asg25
(lp170
I8
asg27
(lp171
I8
asg29
(lp172
I8
assg31
(g32
g33
tp173
sg35
(dp174
g23
(lp175
F394
asg25
(lp176
F491
asg27
(lp177
F506
asg29
(lp178
F5
assg41
Nssg42
I2
sg20
I8
sg43
Nsg44
I0
sg45
(dp179
g47
g48
sg49
F1000000
ssg50
Nsg51
Nsa(dp180
g13
g14
(S'\x07\xe0\x08\x1e\n\x05,\x0eS\xf8'
tRp181
sg16
g14
(S'\x07\xe0\x08\x1e\n\x05+\x0be\xf8'
tRp182
sg18
(dp183
g20
I9
sg21
(dp184
g23
(lp185
I9
asg25
(lp186
I9
asg27
(lp187
I9
asg29
(lp188
I9
assg31
(g32
g33
tp189
sg35
(dp190
g23
(lp191
F284
asg25
(lp192
F191
asg27
(lp193
F490
asg29
(lp194
F12
assg41
Nssg42
I2
sg20
I9
sg43
Nsg44
I0
sg45
(dp195
g47
g48
sg49
F1000000
ssg50
Nsg51
Nsa(dp196
g13
g14
(S'\x07\xe0\x08\x1e\n\x05.\x01\xec0'
tRp197
sg16
g14
(S'\x07\xe0\x08\x1e\n\x05,\x0es8'
tRp198
sg18
(dp199
g20
I10
sg21
(dp200
g23
(lp201
I10
asg25
(lp202
I10
asg27
(lp203
I10
asg29
(lp204
I10
assg31
(g32
g33
tp205
sg35
(dp206
g23
(lp207
F210
asg25
(lp208
F231
asg27
(lp209
F134
asg29
(lp210
F4
assg41
Nssg42
I2
sg20
I10
sg43
Nsg44
I0
sg45
(dp211
g47
g48
sg49
F1000000
ssg50
Nsg51
Nsa(dp212
g13
g14
(S'\x07\xe0\x08\x1e\n\x05/\x06\xc6`'
tRp213
sg16
g14
(S'\x07\xe0\x08\x1e\n\x05.\x02\x13@'
tRp214
sg18
(dp215
g20
I11
sg21
(dp216
g23
(lp217
I11
asg25
(lp218
I11
asg27
(lp219
I11
asg29
(lp220
I11
assg31
(g32
g33
tp221
sg35
(dp222
g23
(lp223
F48
asg25
(lp224
F400
asg27
(lp225
F324
asg29
(lp226
F2
assg41
Nssg42
I2
sg20
I11
sg43
Nsg44
I0
sg45
(dp227
g47
g48
sg49
F1000000
ssg50
Nsg51
Nsa(dp228
g13
g14
(S'\x07\xe0\x08\x1e\n\x050\x0b\xe2\xf8'
tRp229
sg16
g14
(S'\x07\xe0\x08\x1e\n\x05/\x06\xe9\x88'
tRp230
sg18
(dp231
g20
I12
sg21
(dp232
g23
(lp233
I12
asg25
(lp234
I12
asg27
(lp235
I12
asg29
(lp236
I12
assg31
(g32
g33
tp237
sg35
(dp238
g23
(lp239
F120
asg25
(lp240
F159
asg27
(lp241
F142
asg29
(lp242
F7
assg41
Nssg42
I2
sg20
I12
sg43
Nsg44
I0
sg45
(dp243
g47
g48
sg49
F1000000
ssg50
Nsg51
Nsa(dp244
g13
g14
(S'\x07\xe0\x08\x1e\n\x052\x03C\xf0'
tRp245
sg16
g14
(S'\x07\xe0\x08\x1e\n\x050\x0b\xfah'
tRp246
sg18
(dp247
g20
I13
sg21
(dp248
g23
(lp249
I13
asg25
(lp250
I13
asg27
(lp251
I13
asg29
(lp252
I13
assg31
(g32
g33
tp253
sg35
(dp254
g23
(lp255
F488
asg25
(lp256
F308
asg27
(lp257
F74
asg29
(lp258
F10
assg41
Nssg42
I2
sg20
I13
sg43
Nsg44
I0
sg45
(dp259
g47
g48
sg49
F1000000
ssg50
Nsg51
Nsa(dp260
g13
g14
(S'\x07\xe0\x08\x1e\n\x053\x07\xc80'
tRp261
sg16
g14
(S'\x07\xe0\x08\x1e\n\x052\x03g\x18'
tRp262
sg18
(dp263
g20
I14
sg21
(dp264
g23
(lp265
I14
asg25
(lp266
I14
asg27
(lp267
I14
asg29
(lp268
I14
assg31
(g32
g33
tp269
sg35
(dp270
g23
(lp271
F100
asg25
(lp272
F238
asg27
(lp273
F298
asg29
(lp274
F13
assg41
Nssg42
I2
sg20
I14
sg43
Nsg44
I0
sg45
(dp275
g47
g48
sg49
F1000000
ssg50
Nsg51
Nsa(dp276
g13
g14
(S'\x07\xe0\x08\x1e\n\x054\x0c\xf0\x80'
tRp277
sg16
g14
(S'\x07\xe0\x08\x1e\n\x053\x07\xebX'
tRp278
sg18
(dp279
g20
I15
sg21
(dp280
g23
(lp281
I15
asg25
(lp282
I15
asg27
(lp283
I15
asg29
(lp284
I15
assg31
(g32
g33
tp285
sg35
(dp286
g23
(lp287
F484
asg25
(lp288
F440
asg27
(lp289
F360
asg29
(lp290
F6
assg41
Nssg42
I2
sg20
I15
sg43
Nsg44
I0
sg45
(dp291
g47
g48
sg49
F1000000
ssg50
Nsg51
Nsa(dp292
g13
g14
(S'\x07\xe0\x08\x1e\n\x056\x010\xb0'
tRp293
sg16
g14
(S'\x07\xe0\x08\x1e\n\x054\r\x13\xa8'
tRp294
sg18
(dp295
g20
I16
sg21
(dp296
g23
(lp297
I16
asg25
(lp298
I16
asg27
(lp299
I16
asg29
(lp300
I16
assg31
(g32
g33
tp301
sg35
(dp302
g23
(lp303
F420
asg25
(lp304
F409
asg27
(lp305
F64
asg29
(lp306
F8
assg41
Nssg42
I2
sg20
I16
sg43
Nsg44
I0
sg45
(dp307
g47
g48
sg49
F1000000
ssg50
Nsg51
Nsa(dp308
g13
g14
(S'\x07\xe0\x08\x1e\n\x057\x06\n\xe0'
tRp309
sg16
g14
(S'\x07\xe0\x08\x1e\n\x056\x01W\xc0'
tRp310
sg18
(dp311
g20
I17
sg21
(dp312
g23
(lp313
I17
asg25
(lp314
I17
asg27
(lp315
I17
asg29
(lp316
I17
assg31
(g32
g33
tp317
sg35
(dp318
g23
(lp319
F404
asg25
(lp320
F29
asg27
(lp321
F148
asg29
(lp322
F6
assg41
Nssg42
I2
sg20
I17
sg43
Nsg44
I0
sg45
(dp323
g47
g48
sg49
F1000000
ssg50
Nsg51
Nsa(dp324
g13
g14
(S'\x07\xe0\x08\x1e\n\x058\x0bm\xc8'
tRp325
sg16
g14
(S'\x07\xe0\x08\x1e\n\x057\x06.\x08'
tRp326
sg18
(dp327
g20
I18
sg21
(dp328
g23
(lp329
I18
asg25
(lp330
I18
asg27
(lp331
I18
asg29
(lp332
I18
assg31
(g32
g33
tp333
sg35
(dp334
g23
(lp335
F346
asg25
(lp336
F25
asg27
(lp337
F24
asg29
(lp338
F4
assg41
Nssg42
I2
sg20
I18
sg43
Nsg44
I0
sg45
(dp339
g47
g48
sg49
F1000000
ssg50
Nsg51
Nsa(dp340
g13
g14
(S'\x07\xe0\x08\x1e\n\x059\x0f2\xa0'
tRp341
sg16
g14
(S'\x07\xe0\x08\x1e\n\x058\x0b\x94\xd8'
tRp342
sg18
(dp343
g20
I19
sg21
(dp344
g23
(lp345
I19
asg25
(lp346
I19
asg27
(lp347
I19
asg29
(lp348
I19
assg31
(g32
g33
tp349
sg35
(dp350
g23
(lp351
F376
asg25
(lp352
F487
asg27
(lp353
F306
asg29
(lp354
F6
assg41
Nssg42
I2
sg20
I19
sg43
Nsg44
I0
sg45
(dp355
g47
g48
sg49
F1000000
ssg50
Nsg51
Nsa(dp356
g13
g14
(S'\x07\xe0\x08\x1e\n\x05;\x05\x01@'
tRp357
sg16
g14
(S'\x07\xe0\x08\x1e\n\x05:\x00Bh'
tRp358
sg18
(dp359
g20
I20
sg21
(dp360
g23
(lp361
I20
asg25
(lp362
I20
asg27
(lp363
I20
asg29
(lp364
I20
assg31
(g32
g33
tp365
sg35
(dp366
g23
(lp367
F450
asg25
(lp368
F30
asg27
(lp369
F204
asg29
(lp370
F2
assg41
Nssg42
I2
sg20
I20
sg43
Nsg44
I0
sg45
(dp371
g47
g48
sg49
F1000000
ssg50
Nsg51
Nsa(dp372
g13
g14
(S'\x07\xe0\x08\x1e\n\x06\x00\n\xb2H'
tRp373
sg16
g14
(S'\x07\xe0\x08\x1e\n\x05;\x05O`'
tRp374
sg18
(dp375
g20
I21
sg21
(dp376
g23
(lp377
I21
asg25
(lp378
I21
asg27
(lp379
I21
asg29
(lp380
I21
assg31
(g32
g33
tp381
sg35
(dp382
g23
(lp383
F304
asg25
(lp384
F89
asg27
(lp385
F8
asg29
(lp386
F3
assg41
Nssg42
I2
sg20
I21
sg43
Nsg44
I0
sg45
(dp387
g47
g48
sg49
F1000000
ssg50
Nsg51
Nsa(dp388
g13
g14
(S'\x07\xe0\x08\x1e\n\x06\x01\r\xfa '
tRp389
sg16
g14
(S'\x07\xe0\x08\x1e\n\x06\x00\x0b\x00h'
tRp390
sg18
(dp391
g20
I22
sg21
(dp392
g23
(lp393
I22
asg25
(lp394
I22
asg27
(lp395
I22
asg29
(lp396
I22
assg31
(g32
g33
tp397
sg35
(dp398
g23
(lp399
F244
asg25
(lp400
F507
asg27
(lp401
F244
asg29
(lp402
F8
assg41
Nssg42
I2
sg20
I22
sg43
Nsg44
I0
sg45
(dp403
g47
g48
sg49
F1000000
ssg50
Nsg51
Nsa(dp404
g13
g14
(S'\x07\xe0\x08\x1e\n\x06\x03\x04\x1e\xb0'
tRp405
sg16
g14
(S'\x07\xe0\x08\x1e\n\x06\x01\x0e@p'
tRp406
sg18
(dp407
g20
I23
sg21
(dp408
g23
(lp409
I23
asg25
(lp410
I23
asg27
(lp411
I23
asg29
(lp412
I23
assg31
(g32
g33
tp413
sg35
(dp414
g23
(lp415
F448
asg25
(lp416
F99
asg27
(lp417
F190
asg29
(lp418
F10
assg41
Nssg42
I2
sg20
I23
sg43
Nsg44
I0
sg45
(dp419
g47
g48
sg49
F1000000
ssg50
Nsg51
Nsa(dp420
g13
g14
(S'\x07\xe0\x08\x1e\n\x06\x04\x07\xb8\x90'
tRp421
sg16
g14
(S'\x07\xe0\x08\x1e\n\x06\x03\x04U`'
tRp422
sg18
(dp423
g20
I24
sg21
(dp424
g23
(lp425
I24
asg25
(lp426
I24
asg27
(lp427
I24
asg29
(lp428
I24
assg31
(g32
g33
tp429
sg35
(dp430
g23
(lp431
F304
asg25
(lp432
F105
asg27
(lp433
F18
asg29
(lp434
F1
assg41
Nssg42
I2
sg20
I24
sg43
Nsg44
I0
sg45
(dp435
g47
g48
sg49
F1000000
ssg50
Nsg51
Nsa(dp436
g13
g14
(S'\x07\xe0\x08\x1e\n\x06\x05\r/\x00'
tRp437
sg16
g14
(S'\x07\xe0\x08\x1e\n\x06\x04\x08\x06\xb0'
tRp438
sg18
(dp439
g20
I25
sg21
(dp440
g23
(lp441
I25
asg25
(lp442
I25
asg27
(lp443
I25
asg29
(lp444
I25
assg31
(g32
g33
tp445
sg35
(dp446
g23
(lp447
F218
asg25
(lp448
F468
asg27
(lp449
F246
asg29
(lp450
F8
assg41
Nssg42
I2
sg20
I25
sg43
Nsg44
I0
sg45
(dp451
g47
g48
sg49
F1000000
ssg50
Nsg51
Nsa(dp452
g13
g14
(S'\x07\xe0\x08\x1e\n\x06\x07\x02\xf1\xe8'
tRp453
sg16
g14
(S'\x07\xe0\x08\x1e\n\x06\x05\ry8'
tRp454
sg18
(dp455
g20
I26
sg21
(dp456
g23
(lp457
I26
asg25
(lp458
I26
asg27
(lp459
I26
asg29
(lp460
I26
assg31
(g32
g33
tp461
sg35
(dp462
g23
(lp463
F458
asg25
(lp464
F74
asg27
(lp465
F170
asg29
(lp466
F10
assg41
Nssg42
I2
sg20
I26
sg43
Nsg44
I0
sg45
(dp467
g47
g48
sg49
F1000000
ssg50
Nsg51
Nsa(dp468
g13
g14
(S'\x07\xe0\x08\x1e\n\x06\x08\x08t\x10'
tRp469
sg16
g14
(S'\x07\xe0\x08\x1e\n\x06\x07\x03C\xf0'
tRp470
sg18
(dp471
g20
I27
sg21
(dp472
g23
(lp473
I27
asg25
(lp474
I27
asg27
(lp475
I27
asg29
(lp476
I27
assg31
(g32
g33
tp477
sg35
(dp478
g23
(lp479
F316
asg25
(lp480
F347
asg27
(lp481
F38
asg29
(lp482
F1
assg41
Nssg42
I2
sg20
I27
sg43
Nsg44
I0
sg45
(dp483
g47
g48
sg49
F1000000
ssg50
Nsg51
Nsa(dp484
g13
g14
(S'\x07\xe0\x08\x1e\n\x06\t\x0e_\xb0'
tRp485
sg16
g14
(S'\x07\xe0\x08\x1e\n\x06\x08\x08\xcd\xe8'
tRp486
sg18
(dp487
g20
I28
sg21
(dp488
g23
(lp489
I28
asg25
(lp490
I28
asg27
(lp491
I28
asg29
(lp492
I28
assg31
(g32
g33
tp493
sg35
(dp494
g23
(lp495
F210
asg25
(lp496
F461
asg27
(lp497
F230
asg29
(lp498
F9
assg41
Nssg42
I2
sg20
I28
sg43
Nsg44
I0
sg45
(dp499
g47
g48
sg49
F1000000
ssg50
Nsg51
Nsa(dp500
g13
g14
(S'\x07\xe0\x08\x1e\n\x06\x0b\x02\x90@'
tRp501
sg16
g14
(S'\x07\xe0\x08\x1e\n\x06\t\x0e\xb1\xb8'
tRp502
sg18
(dp503
g20
I29
sg21
(dp504
g23
(lp505
I29
asg25
(lp506
I29
asg27
(lp507
I29
asg29
(lp508
I29
assg31
(g32
g33
tp509
sg35
(dp510
g23
(lp511
F498
asg25
(lp512
F351
asg27
(lp513
F276
asg29
(lp514
F11
assg41
Nssg42
I2
sg20
I29
sg43
Nsg44
I0
sg45
(dp515
g47
g48
sg49
F1000000
ssg50
Nsg51
Nsa(dp516
g13
g14
(S'\x07\xe0\x08\x1e\n\x06\x0c\x07jp'
tRp517
sg16
g14
(S'\x07\xe0\x08\x1e\n\x06\x0b\x02\xb7P'
tRp518
sg18
(dp519
g20
I30
sg21
(dp520
g23
(lp521
I30
asg25
(lp522
I30
asg27
(lp523
I30
asg29
(lp524
I30
assg31
(g32
g33
tp525
sg35
(dp526
g23
(lp527
F164
asg25
(lp528
F347
asg27
(lp529
F56
asg29
(lp530
F4
assg41
Nssg42
I2
sg20
I30
sg43
Nsg44
I0
sg45
(dp531
g47
g48
sg49
F1000000
ssg50
Nsg51
Nsa(dp532
g13
g14
(S'\x07\xe0\x08\x1e\n\x06\r\x0bRp'
tRp533
sg16
g14
(S'\x07\xe0\x08\x1e\n\x06\x0c\x07\xbcx'
tRp534
sg18
(dp535
g20
I31
sg21
(dp536
g23
(lp537
I31
asg25
(lp538
I31
asg27
(lp539
I31
asg29
(lp540
I31
assg31
(g32
g33
tp541
sg35
(dp542
g23
(lp543
F178
asg25
(lp544
F458
asg27
(lp545
F110
asg29
(lp546
F9
assg41
Nssg42
I2
sg20
I31
sg43
Nsg44
I0
sg45
(dp547
g47
g48
sg49
F1000000
ssg50
Nsg51
Nsa(dp548
g13
g14
(S'\x07\xe0\x08\x1e\n\x06\x0f\x02\xd2\xa8'
tRp549
sg16
g14
(S'\x07\xe0\x08\x1e\n\x06\r\x0b\xa4x'
tRp550
sg18
(dp551
g20
I32
sg21
(dp552
g23
(lp553
I32
asg25
(lp554
I32
asg27
(lp555
I32
asg29
(lp556
I32
assg31
(g32
g33
tp557
sg35
(dp558
g23
(lp559
F496
asg25
(lp560
F389
asg27
(lp561
F274
asg29
(lp562
F14
assg41
Nssg42
I2
sg20
I32
sg43
Nsg44
I0
sg45
(dp563
g47
g48
sg49
F1000000
ssg50
Nsg51
Nsa(dp564
g13
g14
(S'\x07\xe0\x08\x1e\n\x06\x10\x06\xf9('
tRp565
sg16
g14
(S'\x07\xe0\x08\x1e\n\x06\x0f\x03[`'
tRp566
sg18
(dp567
g20
I33
sg21
(dp568
g23
(lp569
I33
asg25
(lp570
I33
asg27
(lp571
I33
asg29
(lp572
I33
assg31
(g32
g33
tp573
sg35
(dp574
g23
(lp575
F164
asg25
(lp576
F323
asg27
(lp577
F114
asg29
(lp578
F5
assg41
Nssg42
I2
sg20
I33
sg43
Nsg44
I0
sg45
(dp579
g47
g48
sg49
F1000000
ssg50
Nsg51
Nsa(dp580
g13
g14
(S'\x07\xe0\x08\x1e\n\x06\x11\x0c\x92\xc0'
tRp581
sg16
g14
(S'\x07\xe0\x08\x1e\n\x06\x10\x07V\xe8'
tRp582
sg18
(dp583
g20
I34
sg21
(dp584
g23
(lp585
I34
asg25
(lp586
I34
asg27
(lp587
I34
asg29
(lp588
I34
assg31
(g32
g33
tp589
sg35
(dp590
g23
(lp591
F264
asg25
(lp592
F511
asg27
(lp593
F106
asg29
(lp594
F11
assg41
Nssg42
I2
sg20
I34
sg43
Nsg44
I0
sg45
(dp595
g47
g48
sg49
F1000000
ssg50
Nsg51
Nsa(dp596
g13
g14
(S'\x07\xe0\x08\x1e\n\x06\x13\x03\xffp'
tRp597
sg16
g14
(S'\x07\xe0\x08\x1e\n\x06\x11\x0c\xf0\x80'
tRp598
sg18
(dp599
g20
I35
sg21
(dp600
g23
(lp601
I35
asg25
(lp602
I35
asg27
(lp603
I35
asg29
(lp604
I35
assg31
(g32
g33
tp605
sg35
(dp606
g23
(lp607
F362
asg25
(lp608
F374
asg27
(lp609
F448
asg29
(lp610
F6
assg41
Nssg42
I2
sg20
I35
sg43
Nsg44
I0
sg45
(dp611
g47
g48
sg49
F1000000
ssg50
Nsg51
Nsa(dp612
g13
g14
(S'\x07\xe0\x08\x1e\n\x06\x14\n\x02\x80'
tRp613
sg16
g14
(S'\x07\xe0\x08\x1e\n\x06\x13\x04YH'
tRp614
sg18
(dp615
g20
I36
sg21
(dp616
g23
(lp617
I36
asg25
(lp618
I36
asg27
(lp619
I36
asg29
(lp620
I36
assg31
(g32
g33
tp621
sg35
(dp622
g23
(lp623
F450
asg25
(lp624
F271
asg27
(lp625
F212
asg29
(lp626
F2
assg41
Nssg42
I2
sg20
I36
sg43
Nsg44
I0
sg45
(dp627
g47
g48
sg49
F1000000
ssg50
Nsg51
Nsa(dp628
g13
g14
(S'\x07\xe0\x08\x1e\n\x06\x15\r\xe6\x98'
tRp629
sg16
g14
(S'\x07\xe0\x08\x1e\n\x06\x14\n\\X'
tRp630
sg18
(dp631
g20
I37
sg21
(dp632
g23
(lp633
I37
asg25
(lp634
I37
asg27
(lp635
I37
asg29
(lp636
I37
assg31
(g32
g33
tp637
sg35
(dp638
g23
(lp639
F406
asg25
(lp640
F59
asg27
(lp641
F172
asg29
(lp642
F7
assg41
Nssg42
I2
sg20
I37
sg43
Nsg44
I0
sg45
(dp643
g47
g48
sg49
F1000000
ssg50
Nsg51
Nsa(dp644
g13
g14
(S'\x07\xe0\x08\x1e\n\x06\x17\x02\xab\x98'
tRp645
sg16
g14
(S'\x07\xe0\x08\x1e\n\x06\x15\x0eDX'
tRp646
sg18
(dp647
g20
I38
sg21
(dp648
g23
(lp649
I38
asg25
(lp650
I38
asg27
(lp651
I38
asg29
(lp652
I38
assg31
(g32
g33
tp653
sg35
(dp654
g23
(lp655
F308
asg25
(lp656
F129
asg27
(lp657
F6
asg29
(lp658
F3
assg41
Nssg42
I2
sg20
I38
sg43
Nsg44
I0
sg45
(dp659
g47
g48
sg49
F1000000
ssg50
Nsg51
Nsa(dp660
g13
g14
(S'\x07\xe0\x08\x1e\n\x06\x18\x08\x87\x98'
tRp661
sg16
g14
(S'\x07\xe0\x08\x1e\n\x06\x17\x03\x05p'
tRp662
sg18
(dp663
g20
I39
sg21
(dp664
g23
(lp665
I39
asg25
(lp666
I39
asg27
(lp667
I39
asg29
(lp668
I39
assg31
(g32
g33
tp669
sg35
(dp670
g23
(lp671
F270
asg25
(lp672
F191
asg27
(lp673
F46
asg29
(lp674
F3
assg41
Nssg42
I2
sg20
I39
sg43
Nsg44
I0
sg45
(dp675
g47
g48
sg49
F1000000
ssg50
Nsg51
Nsa(dp676
g13
g14
(S'\x07\xe0\x08\x1e\n\x06\x19\x0cg\xc8'
tRp677
sg16
g14
(S'\x07\xe0\x08\x1e\n\x06\x18\x08\xe9@'
tRp678
sg18
(dp679
g20
I40
sg21
(dp680
g23
(lp681
I40
asg25
(lp682
I40
asg27
(lp683
I40
asg29
(lp684
I40
assg31
(g32
g33
tp685
sg35
(dp686
g23
(lp687
F236
asg25
(lp688
F502
asg27
(lp689
F360
asg29
(lp690
F8
assg41
Nssg42
I2
sg20
I40
sg43
Nsg44
I0
sg45
(dp691
g47
g48
sg49
F1000000
ssg50
Nsg51
Nsa(dp692
g13
g14
(S'\x07\xe0\x08\x1e\n\x06\x1b\x034P'
tRp693
sg16
g14
(S'\x07\xe0\x08\x1e\n\x06\x19\x0c\xb5\xe8'
tRp694
sg18
(dp695
g20
I41
sg21
(dp696
g23
(lp697
I41
asg25
(lp698
I41
asg27
(lp699
I41
asg29
(lp700
I41
assg31
(g32
g33
tp701
sg35
(dp702
g23
(lp703
F72
asg25
(lp704
F428
asg27
(lp705
F336
asg29
(lp706
F11
assg41
Nssg42
I2
sg20
I41
sg43
Nsg44
I0
sg45
(dp707
g47
g48
sg49
F1000000
ssg50
Nsg51
Nsa(dp708
g13
g14
(S'\x07\xe0\x08\x1e\n\x06\x1c\tG\x00'
tRp709
sg16
g14
(S'\x07\xe0\x08\x1e\n\x06\x1b\x03\x8a@'
tRp710
sg18
(dp711
g20
I42
sg21
(dp712
g23
(lp713
I42
asg25
(lp714
I42
asg27
(lp715
I42
asg29
(lp716
I42
assg31
(g32
g33
tp717
sg35
(dp718
g23
(lp719
F424
asg25
(lp720
F216
asg27
(lp721
F186
asg29
(lp722
F13
assg41
Nssg42
I2
sg20
I42
sg43
Nsg44
I0
sg45
(dp723
g47
g48
sg49
F1000000
ssg50
Nsg51
Nsa(dp724
g13
g14
(S'\x07\xe0\x08\x1e\n\x06\x1d\x0e\x92x'
tRp725
sg16
g14
(S'\x07\xe0\x08\x1e\n\x06\x1c\t\xa0\xd8'
tRp726
sg18
(dp727
g20
I43
sg21
(dp728
g23
(lp729
I43
asg25
(lp730
I43
asg27
(lp731
I43
asg29
(lp732
I43
assg31
(g32
g33
tp733
sg35
(dp734
g23
(lp735
F332
asg25
(lp736
F162
asg27
(lp737
F144
asg29
(lp738
F12
assg41
Nssg42
I2
sg20
I43
sg43
Nsg44
I0
sg45
(dp739
g47
g48
sg49
F1000000
ssg50
Nsg51
Nsa(dp740
g13
g14
(S'\x07\xe0\x08\x1e\n\x06\x1f\x07C`'
tRp741
sg16
g14
(S'\x07\xe0\x08\x1e\n\x06\x1d\x0e\xecP'
tRp742
sg18
(dp743
g20
I44
sg21
(dp744
g23
(lp745
I44
asg25
(lp746
I44
asg27
(lp747
I44
asg29
(lp748
I44
assg31
(g32
g33
tp749
sg35
(dp750
g23
(lp751
F284
asg25
(lp752
F126
asg27
(lp753
F74
asg29
(lp754
F1
assg41
Nssg42
I2
sg20
I44
sg43
Nsg44
I0
sg45
(dp755
g47
g48
sg49
F1000000
ssg50
Nsg51
Nsa(dp756
g13
g14
(S'\x07\xe0\x08\x1e\n\x06 \rJX'
tRp757
sg16
g14
(S'\x07\xe0\x08\x1e\n\x06\x1f\x07\xa1 '
tRp758
sg18
(dp759
g20
I45
sg21
(dp760
g23
(lp761
I45
asg25
(lp762
I45
asg27
(lp763
I45
asg29
(lp764
I45
assg31
(g32
g33
tp765
sg35
(dp766
g23
(lp767
F370
asg25
(lp768
F280
asg27
(lp769
F92
asg29
(lp770
F5
assg41
Nssg42
I2
sg20
I45
sg43
Nsg44
I0
sg45
(dp771
g47
g48
sg49
F1000000
ssg50
Nsg51
Nsa(dp772
g13
g14
(S'\x07\xe0\x08\x1e\n\x06"\x03\x82p'
tRp773
sg16
g14
(S'\x07\xe0\x08\x1e\n\x06 \r\xa40'
tRp774
sg18
(dp775
g20
I46
sg21
(dp776
g23
(lp777
I46
asg25
(lp778
I46
asg27
(lp779
I46
asg29
(lp780
I46
assg31
(g32
g33
tp781
sg35
(dp782
g23
(lp783
F124
asg25
(lp784
F453
asg27
(lp785
F406
asg29
(lp786
F7
assg41
Nssg42
I2
sg20
I46
sg43
Nsg44
I0
sg45
(dp787
g47
g48
sg49
F1000000
ssg50
Nsg51
Nsa(dp788
g13
g14
(S'\x07\xe0\x08\x1e\n\x06#\t\xac\x90'
tRp789
sg16
g14
(S'\x07\xe0\x08\x1e\n\x06"\x03\xd0\x90'
tRp790
sg18
(dp791
g20
I47
sg21
(dp792
g23
(lp793
I47
asg25
(lp794
I47
asg27
(lp795
I47
asg29
(lp796
I47
assg31
(g32
g33
tp797
sg35
(dp798
g23
(lp799
F210
asg25
(lp800
F304
asg27
(lp801
F254
asg29
(lp802
F9
assg41
Nssg42
I2
sg20
I47
sg43
Nsg44
I0
sg45
(dp803
g47
g48
sg49
F1000000
ssg50
Nsg51
Nsa(dp804
g13
g14
(S'\x07\xe0\x08\x1e\n\x06$\r\xa40'
tRp805
sg16
g14
(S'\x07\xe0\x08\x1e\n\x06#\n\x0e8'
tRp806
sg18
(dp807
g20
I48
sg21
(dp808
g23
(lp809
I48
asg25
(lp810
I48
asg27
(lp811
I48
asg29
(lp812
I48
assg31
(g32
g33
tp813
sg35
(dp814
g23
(lp815
F12
asg25
(lp816
F251
asg27
(lp817
F228
asg29
(lp818
F14
assg41
Nssg42
I2
sg20
I48
sg43
Nsg44
I0
sg45
(dp819
g47
g48
sg49
F1000000
ssg50
Nsg51
Nsa(dp820
g13
g14
(S'\x07\xe0\x08\x1e\n\x06&\x02\xa3\xc8'
tRp821
sg16
g14
(S'\x07\xe0\x08\x1e\n\x06$\x0e\x05\xd8'
tRp822
sg18
(dp823
g20
I49
sg21
(dp824
g23
(lp825
I49
asg25
(lp826
I49
asg27
(lp827
I49
asg29
(lp828
I49
assg31
(g32
g33
tp829
sg35
(dp830
g23
(lp831
F506
asg25
(lp832
F3
asg27
(lp833
F168
asg29
(lp834
F10
assg41
Nssg42
I2
sg20
I49
sg43
Nsg44
I0
sg45
(dp835
g47
g48
sg49
F1000000
ssg50
Nsg51
Nsa(dp836
g13
g14
(S"\x07\xe0\x08\x1e\n\x06'\x06\xa38"
tRp837
sg16
g14
(S'\x07\xe0\x08\x1e\n\x06&\x03\tX'
tRp838
sg18
(dp839
g20
I50
sg21
(dp840
g23
(lp841
I50
asg25
(lp842
I50
asg27
(lp843
I50
asg29
(lp844
I50
assg31
(g32
g33
tp845
sg35
(dp846
g23
(lp847
F340
asg25
(lp848
F336
asg27
(lp849
F124
asg29
(lp850
F5
assg41
Nssg42
I2
sg20
I50
sg43
Nsg44
I0
sg45
(dp851
g47
g48
sg49
F1000000
ssg50
Nsg51
Nsa(dp852
g13
g14
(S'\x07\xe0\x08\x1e\n\x06(\n\x9a\xd8'
tRp853
sg16
g14
(S"\x07\xe0\x08\x1e\n\x06'\x07\x04\xe0"
tRp854
sg18
(dp855
g20
I51
sg21
(dp856
g23
(lp857
I51
asg25
(lp858
I51
asg27
(lp859
I51
asg29
(lp860
I51
assg31
(g32
g33
tp861
sg35
(dp862
g23
(lp863
F320
asg25
(lp864
F384
asg27
(lp865
F46
asg29
(lp866
F7
assg41
Nssg42
I2
sg20
I51
sg43
Nsg44
I0
sg45
(dp867
g47
g48
sg49
F1000000
ssg50
Nsg51
Nsa(dp868
g13
g14
(S'\x07\xe0\x08\x1e\n\x06*\x01g`'
tRp869
sg16
g14
(S'\x07\xe0\x08\x1e\n\x06(\n\xf4\xb0'
tRp870
sg18
(dp871
g20
I52
sg21
(dp872
g23
(lp873
I52
asg25
(lp874
I52
asg27
(lp875
I52
asg29
(lp876
I52
assg31
(g32
g33
tp877
sg35
(dp878
g23
(lp879
F78
asg25
(lp880
F480
asg27
(lp881
F292
asg29
(lp882
F11
assg41
Nssg42
I2
sg20
I52
sg43
Nsg44
I0
sg45
(dp883
g47
g48
sg49
F1000000
ssg50
Nsg51
Nsa(dp884
g13
g14
(S'\x07\xe0\x08\x1e\n\x06+\t\x00\xb0'
tRp885
sg16
g14
(S'\x07\xe0\x08\x1e\n\x06*\x01\xd0\xd8'
tRp886
sg18
(dp887
g20
I53
sg21
(dp888
g23
(lp889
I53
asg25
(lp890
I53
asg27
(lp891
I53
asg29
(lp892
I53
assg31
(g32
g33
tp893
sg35
(dp894
g23
(lp895
F20
asg25
(lp896
F415
asg27
(lp897
F222
asg29
(lp898
F9
assg41
Nssg42
I2
sg20
I53
sg43
Nsg44
I0
sg45
(dp899
g47
g48
sg49
F1000000
ssg50
Nsg51
Nsa(dp900
g13
g14
(S'\x07\xe0\x08\x1e\n\x06,\x0c\x9a\x90'
tRp901
sg16
g14
(S'\x07\xe0\x08\x1e\n\x06+\t^p'
tRp902
sg18
(dp903
g20
I54
sg21
(dp904
g23
(lp905
I54
asg25
(lp906
I54
asg27
(lp907
I54
asg29
(lp908
I54
assg31
(g32
g33
tp909
sg35
(dp910
g23
(lp911
F480
asg25
(lp912
F364
asg27
(lp913
F472
asg29
(lp914
F12
assg41
Nssg42
I2
sg20
I54
sg43
Nsg44
I0
sg45
(dp915
g47
g48
sg49
F1000000
ssg50
Nsg51
Nsa(dp916
g13
g14
(S'\x07\xe0\x08\x1e\n\x06.\x01\xfb\xd0'
tRp917
sg16
g14
(S'\x07\xe0\x08\x1e\n\x06,\x0c\xf8P'
tRp918
sg18
(dp919
g20
I55
sg21
(dp920
g23
(lp921
I55
asg25
(lp922
I55
asg27
(lp923
I55
asg29
(lp924
I55
assg31
(g32
g33
tp925
sg35
(dp926
g23
(lp927
F476
asg25
(lp928
F319
asg27
(lp929
F388
asg29
(lp930
F13
assg41
Nssg42
I2
sg20
I55
sg43
Nsg44
I0
sg45
(dp931
g47
g48
sg49
F1000000
ssg50
Nsg51
Nsa(dp932
g13
g14
(S'\x07\xe0\x08\x1e\n\x06/\x061\xf0'
tRp933
sg16
g14
(S'\x07\xe0\x08\x1e\n\x06.\x02M\xd8'
tRp934
sg18
(dp935
g20
I56
sg21
(dp936
g23
(lp937
I56
asg25
(lp938
I56
asg27
(lp939
I56
asg29
(lp940
I56
assg31
(g32
g33
tp941
sg35
(dp942
g23
(lp943
F180
asg25
(lp944
F431
asg27
(lp945
F66
asg29
(lp946
F4
assg41
Nssg42
I2
sg20
I56
sg43
Nsg44
I0
sg45
(dp947
g47
g48
sg49
F1000000
ssg50
Nsg51
Nsa(dp948
g13
g14
(S'\x07\xe0\x08\x1e\n\x060\n\x8b8'
tRp949
sg16
g14
(S'\x07\xe0\x08\x1e\n\x06/\x06\x93\x98'
tRp950
sg18
(dp951
g20
I57
sg21
(dp952
g23
(lp953
I57
asg25
(lp954
I57
asg27
(lp955
I57
asg29
(lp956
I57
assg31
(g32
g33
tp957
sg35
(dp958
g23
(lp959
F98
asg25
(lp960
F214
asg27
(lp961
F156
asg29
(lp962
F6
assg41
Nssg42
I2
sg20
I57
sg43
Nsg44
I0
sg45
(dp963
g47
g48
sg49
F1000000
ssg50
Nsg51
Nsa(dp964
g13
g14
(S'\x07\xe0\x08\x1e\n\x062\x01w\x00'
tRp965
sg16
g14
(S'\x07\xe0\x08\x1e\n\x060\n\xf4\xb0'
tRp966
sg18
(dp967
g20
I58
sg21
(dp968
g23
(lp969
I58
asg25
(lp970
I58
asg27
(lp971
I58
asg29
(lp972
I58
assg31
(g32
g33
tp973
sg35
(dp974
g23
(lp975
F186
asg25
(lp976
F452
asg27
(lp977
F134
asg29
(lp978
F9
assg41
Nssg42
I2
sg20
I58
sg43
Nsg44
I0
sg45
(dp979
g47
g48
sg49
F1000000
ssg50
Nsg51
Nsa(dp980
g13
g14
(S'\x07\xe0\x08\x1e\n\x063\x08=`'
tRp981
sg16
g14
(S'\x07\xe0\x08\x1e\n\x062\x01\xe0x'
tRp982
sg18
(dp983
g20
I59
sg21
(dp984
g23
(lp985
I59
asg25
(lp986
I59
asg27
(lp987
I59
asg29
(lp988
I59
assg31
(g32
g33
tp989
sg35
(dp990
g23
(lp991
F124
asg25
(lp992
F400
asg27
(lp993
F104
asg29
(lp994
F8
assg41
Nssg42
I2
sg20
I59
sg43
Nsg44
I0
sg45
(dp995
g47
g48
sg49
F1000000
ssg50
Nsg51
Nsa(dp996
g13
g14
(S'\x07\xe0\x08\x1e\n\x064\x0e{\x08'
tRp997
sg16
g14
(S'\x07\xe0\x08\x1e\n\x063\x08\x93P'
tRp998
sg18
(dp999
g20
I60
sg21
(dp1000
g23
(lp1001
I60
asg25
(lp1002
I60
asg27
(lp1003
I60
asg29
(lp1004
I60
assg31
(g32
g33
tp1005
sg35
(dp1006
g23
(lp1007
F388
asg25
(lp1008
F390
asg27
(lp1009
F272
asg29
(lp1010
F13
assg41
Nssg42
I2
sg20
I60
sg43
Nsg44
I0
sg45
(dp1011
g47
g48
sg49
F1000000
ssg50
Nsg51
Nsa(dp1012
g13
g14
(S'\x07\xe0\x08\x1e\n\x066\x03\xbd\x08'
tRp1013
sg16
g14
(S'\x07\xe0\x08\x1e\n\x064\x0e\xe4\x80'
tRp1014
sg18
(dp1015
g20
I61
sg21
(dp1016
g23
(lp1017
I61
asg25
(lp1018
I61
asg27
(lp1019
I61
asg29
(lp1020
I61
assg31
(g32
g33
tp1021
sg35
(dp1022
g23
(lp1023
F416
asg25
(lp1024
F487
asg27
(lp1025
F320
asg29
(lp1026
F12
assg41
Nssg42
I2
sg20
I61
sg43
Nsg44
I0
sg45
(dp1027
g47
g48
sg49
F1000000
ssg50
Nsg51
Nsa(dp1028
g13
g14
(S'\x07\xe0\x08\x1e\n\x067\n!\xc0'
tRp1029
sg16
g14
(S'\x07\xe0\x08\x1e\n\x066\x04\x0f\x10'
tRp1030
sg18
(dp1031
g20
I62
sg21
(dp1032
g23
(lp1033
I62
asg25
(lp1034
I62
asg27
(lp1035
I62
asg29
(lp1036
I62
assg31
(g32
g33
tp1037
sg35
(dp1038
g23
(lp1039
F154
asg25
(lp1040
F325
asg27
(lp1041
F86
asg29
(lp1042
F5
assg41
Nssg42
I2
sg20
I62
sg43
Nsg44
I0
sg45
(dp1043
g47
g48
sg49
F1000000
ssg50
Nsg51
Nsa(dp1044
g13
g14
(S'\x07\xe0\x08\x1e\n\x069\x01s\x18'
tRp1045
sg16
g14
(S'\x07\xe0\x08\x1e\n\x067\n\x83h'
tRp1046
sg18
(dp1047
g20
I63
sg21
(dp1048
g23
(lp1049
I63
asg25
(lp1050
I63
asg27
(lp1051
I63
asg29
(lp1052
I63
assg31
(g32
g33
tp1053
sg35
(dp1054
g23
(lp1055
F46
asg25
(lp1056
F167
asg27
(lp1057
F28
asg29
(lp1058
F7
assg41
Nssg42
I2
sg20
I63
sg43
Nsg44
I0
sg45
(dp1059
g47
g48
sg49
F1000000
ssg50
Nsg51
Nsa(dp1060
g13
g14
(S'\x07\xe0\x08\x1e\n\x06:\t\xfa\xb0'
tRp1061
sg16
g14
(S'\x07\xe0\x08\x1e\n\x069\x01\xd8\xa8'
tRp1062
sg18
(dp1063
g20
I64
sg21
(dp1064
g23
(lp1065
I64
asg25
(lp1066
I64
asg27
(lp1067
I64
asg29
(lp1068
I64
assg31
(g32
g33
tp1069
sg35
(dp1070
g23
(lp1071
F268
asg25
(lp1072
F512
asg27
(lp1073
F116
asg29
(lp1074
F11
assg41
Nssg42
I2
sg20
I64
sg43
Nsg44
I0
sg45
(dp1075
g47
g48
sg49
F1000000
ssg50
Nsg51
NsasS'_exp_key'
p1076
NsS'_dynamic_trials'
p1077
(lp1078
g12
ag52
ag68
ag84
ag100
ag116
ag132
ag148
ag164
ag180
ag196
ag212
ag228
ag244
ag260
ag276
ag292
ag308
ag324
ag340
ag356
ag372
ag388
ag404
ag420
ag436
ag452
ag468
ag484
ag500
ag516
ag532
ag548
ag564
ag580
ag596
ag612
ag628
ag644
ag660
ag676
ag692
ag708
ag724
ag740
ag756
ag772
ag788
ag804
ag820
ag836
ag852
ag868
ag884
ag900
ag916
ag932
ag948
ag964
ag980
ag996
ag1012
ag1028
ag1044
ag1060
asS'_ids'
p1079
c__builtin__
set
p1080
((lp1081
I0
aI1
aI2
aI3
aI4
aI5
aI6
aI7
aI8
aI9
aI10
aI11
aI12
aI13
aI14
aI15
aI16
aI17
aI18
aI19
aI20
aI21
aI22
aI23
aI24
aI25
aI26
aI27
aI28
aI29
aI30
aI31
aI32
aI33
aI34
aI35
aI36
aI37
aI38
aI39
aI40
aI41
aI42
aI43
aI44
aI45
aI46
aI47
aI48
aI49
aI50
aI51
aI52
aI53
aI54
aI55
aI56
aI57
aI58
aI59
aI60
aI61
aI62
aI63
aI64
atRp1082
sbsS'domain'
p1083
g3
(chyperopt.fmin
Domain
p1084
g5
NtRp1085
(dp1086
g31
(g32
g33
tp1087
sS'name'
p1088
NsS's_new_ids'
p1089
g3
(chyperopt.pyll.base
Literal
p1090
g5
NtRp1091
(dp1092
g1088
S'literal'
p1093
sS'pos_args'
p1094
(lp1095
sS'named_args'
p1096
(lp1097
sS'o_len'
p1098
I7
sS'_obj'
p1099
S'new_ids'
p1100
sS'pure'
p1101
I01
sbsS'vh'
p1102
g3
(chyperopt.vectorize
VectorizeHelper
p1103
g5
NtRp1104
(dp1105
S'take_memo'
p1106
(dp1107
g3
(g1090
g5
NtRp1108
(dp1109
g1088
g1093
sg1094
(lp1110
sg1096
(lp1111
sg1098
Nsg1099
I2
sg1101
I01
sb(lp1112
g3
(chyperopt.pyll.base
Apply
p1113
g5
NtRp1114
(dp1115
g1098
Nsg1101
I01
sg1088
S'idxs_take'
p1116
sg1094
(lp1117
g3
(g1113
g5
NtRp1118
(dp1119
g1098
Nsg1101
I01
sg1088
S'array_union'
p1120
sg1094
(lp1121
g1091
asg1096
(lp1122
sbag3
(g1113
g5
NtRp1123
(dp1124
g1098
Nsg1101
I01
sg1088
S'asarray'
p1125
sg1094
(lp1126
g3
(g1113
g5
NtRp1127
(dp1128
g1098
Nsg1101
I01
sg1088
S'repeat'
p1129
sg1094
(lp1130
g3
(g1113
g5
NtRp1131
(dp1132
g1098
Nsg1101
I01
sg1088
S'len'
p1133
sg1094
(lp1134
g1091
asg1096
(lp1135
sbag1108
asg1096
(lp1136
sbasg1096
(lp1137
sbag3
(g1113
g5
NtRp1138
(dp1139
g1098
Nsg1101
I01
sg1088
g1120
sg1094
(lp1140
g3
(g1113
g5
NtRp1141
(dp1142
g1098
Nsg1101
I01
sg1088
g1120
sg1094
(lp1143
g3
(g1113
g5
NtRp1144
(dp1145
g1098
Nsg1101
I01
sg1088
g1120
sg1094
(lp1146
g1091
asg1096
(lp1147
sbasg1096
(lp1148
sbasg1096
(lp1149
sbasg1096
(lp1150
sbasg3
(g1090
g5
NtRp1151
(dp1152
g1088
g1093
sg1094
(lp1153
sg1096
(lp1154
sg1098
Nsg1099
I14
sg1101
I01
sb(lp1155
g3
(g1113
g5
NtRp1156
(dp1157
g1098
Nsg1101
I01
sg1088
g1116
sg1094
(lp1158
g3
(g1113
g5
NtRp1159
(dp1160
g1098
Nsg1101
I01
sg1088
g1120
sg1094
(lp1161
g1091
asg1096
(lp1162
sbag3
(g1113
g5
NtRp1163
(dp1164
g1098
Nsg1101
I01
sg1088
g1125
sg1094
(lp1165
g3
(g1113
g5
NtRp1166
(dp1167
g1098
Nsg1101
I01
sg1088
g1129
sg1094
(lp1168
g3
(g1113
g5
NtRp1169
(dp1170
g1098
Nsg1101
I01
sg1088
g1133
sg1094
(lp1171
g1091
asg1096
(lp1172
sbag1151
asg1096
(lp1173
sbasg1096
(lp1174
sbag3
(g1113
g5
NtRp1175
(dp1176
g1098
Nsg1101
I01
sg1088
g1120
sg1094
(lp1177
g3
(g1113
g5
NtRp1178
(dp1179
g1098
Nsg1101
I01
sg1088
g1120
sg1094
(lp1180
g1144
asg1096
(lp1181
sbasg1096
(lp1182
sbasg1096
(lp1183
sbasg3
(g1113
g5
NtRp1184
(dp1185
g1098
Nsg1101
I01
sg1088
S'float'
p1186
sg1094
(lp1187
g3
(g1113
g5
NtRp1188
(dp1189
g1098
Nsg1101
I00
sg1088
S'hyperopt_param'
p1190
sg1094
(lp1191
g3
(g1090
g5
NtRp1192
(dp1193
g1088
g1093
sg1094
(lp1194
sg1096
(lp1195
sg1098
I11
sg1099
g29
sg1101
I01
sbag3
(g1113
g5
NtRp1196
(dp1197
g1098
Nsg1101
I00
sg1088
S'quniform'
p1198
sg1094
(lp1199
g3
(g1090
g5
NtRp1200
(dp1201
g1088
g1093
sg1094
(lp1202
sg1096
(lp1203
sg1098
Nsg1099
I1
sg1101
I01
sbag1151
ag3
(g1090
g5
NtRp1204
(dp1205
g1088
g1093
sg1094
(lp1206
sg1096
(lp1207
sg1098
Nsg1099
I1
sg1101
I01
sbasg1096
(lp1208
(S'rng'
p1209
g3
(g1090
g5
NtRp1210
(dp1211
g1088
g1093
sg1094
(lp1212
sg1096
(lp1213
sg1098
Nsg1099
cnumpy.random
__RandomState_ctor
p1214
(tRp1215
(S'MT19937'
p1216
cnumpy.core.multiarray
_reconstruct
p1217
(cnumpy
ndarray
p1218
(I0
tS'b'
tRp1219
(I1
(I624
tcnumpy
dtype
p1220
(S'u4'
I0
I1
tRp1221
(I3
S'<'
NNNI-1
I-1
I0
tbI00
S'q\xc14.L\x194z\xcfZ\x9d2\xda\xb5T\xd5\xab\x1c\x12\x97\xa8\x98N\te\xfc\xe5f\xad=\x14\xfb\x85\x82\x86\x05i\x06\x84\x92\xc5\xb3\xd0\x13\x93jQ\xe4jMO@\xf2\xc3\x01lx\xe3\xf0!\xdf\xa1\x98\xa2y\xe1K%\x923\xf9P\x7f1:\x02\x03\x1fb\xc5\xed \x98\xf5\x87\xa1\xad3\xd0\x86\x06V\xc4\xbe\x1b\xc0\x9e\x93\x02\xc4\xd7\xb7\xb8\xf9\xb4\x98\x81\xbbd\x10,\xc4\xf6K\x027D\x02\xd7\x8fv\xadW\xb0\xd0\x97\x85M\x0cG\x06P\xe1\x8b\x85\xca\xc4\xe0\xa88\xa9\xff\xb3\xca\x83\x01\x83H,\xfbt\xe4\x9a]m[\xb8\x8aO\xc6\xd5;\xf8f\t\x0f\xba\x04\x94\xb2\x92\xb2\xa6\xaf\xc5\xe8[r\xda^1\x90\x1cGV\xeb\xc6L\xc6\xb0\x9c\xf1\x14\xe3\x14\xd18\x9e:\xab\x08\xca\xd9wI\xd1\xce/7I\x98\xc0\x82\xd6=\x96\x99m\xe94\xc2\xcb\xdf\xeb\xa4\xc1Ti\xda\x11\xad\x06m\xc1r_x\xba`7<B\xbfC\xd9oEe\xc0\x19M\xe4@\x17z\x86;\xb4:\xad\xad\x06\xf4e\xcc\x05,\xb1Z\xbaJ\x18\xbb\xc10o|P\xd7\x92\t-\x9f\xcc\xabt[\\\xe0y\xa5j\xf6\xcf\x16Cm\x9cG\xd8\xd6^8\xfb\x927\x84\xbd\xc4\x87\xd6\xe9G\xc3\x12\x16T*\xc0(\xd7\x8fS\xbe\xc8\xdd\x8d\xc7\xdb\xd7b\xca"-\xc2\xb1V\xce\xbe}\xb8|\xbc\x18\xf9\x8a\xefQ\xc8zaS\x83\xe7Q\xcb\x18dy!\xc8L\xa4\xa5.\xed\xfbc(\xe3\xabl\xe81\x08,Q_-p\x87:\xa8\xbf\xea\xa1\xdf\x97\xa5\xb4%U\xea\xe3#\x0b\x94\xff\xcd\x94%\x9bzco\xd2\\/Z\x02\xd2\xd7\xeb\xa1\x00\xd4\'\x00+A\x1e1\x18(\x15\xde\xc18\xde\x809\x00H\x02\x1bQZ\x1a\x8eZXF`\x18\xcc\xc7\x0c0BA\x9f\x81\xf8\x8f\xbcb\x13!\x9c\xeaD\x0c\xf4\xe3\xf6;m|\x1a(^)\xf5\xc5\xdc\xe1\xe2\x98r\xd1\xee>F}Q\xdcX\xb77o\x99\x92\x9e\x07]\xc7\xcedS/zr\xa28\xd7\x98;\xcb3f\xee{\xc3\xdd\x90\xbdx\x0c-\xce\x88u@\xa5\x9f\xa7\xe7\x17\xefx\nv\x02\xbcE\xceu\xbb\xe7F\xe2G\tV\x13\xa5NS\xd8\xf7\x81x\xa21\x0b\xddv\xb2u-\xfe\x0f\x1b\x85\xf9\xd5\xae\xb4\xad+\x8e\x81\xef\xc2_C#\xf1C\x1c\x87R\xec\xda6\xd9Q\xce\x88P\xb2ad\x18j\xcf\xad0\xc9\x92z\xa3\x92\x88\xca\xe1B\x05\xd2SDd\xbcK\x854\xb8\x1c\x7f\xc1@\xaf\xdc\x0b\x88w\xe4`\xea\x15c\xb4\x1a\xd0U\x1e\xbf\xae\x06lJ,\xdbM\x04f"y\x9d\xfd\x0c#w\x1f\x06\x01g\xd0S\xe0\xb5\x92L<\xefv\xdf\x87\x87\xa7\xf9\xb8\x9b\t\x9e\xdd\x88\xc6\xc39jR\x97\xe9\x85\x91u2N\x14\x9c3\x00\x96vXJ0\xfb\xca\x9bhRh)\xe6\xc0\x1d@\xac\xb2\x13\x18\x0f\x03(}\x8b\xe7D\xcd\x90\x90#\xef\x88\x91\xeczi\x1b\xeeB,\x1a\xd7\x1bG\x0c\x9e\x86$\x1fVg-S\x91\xafu\x7fG\xd8\x8e\xc3{\xd3%=\xc9\x12\xe6\xd2\xed\xbe`\xc2]"`\x9di\xa2 q\xc1i},=\xb5\xa2\x0b\x9b\xa1\x14f\xb7\xd6\xa74\x0e\xc8\xbai6 %{\xe7\xe1\xd3Ie\xa6\xe4\xc3syAj\xcf.O\xda!\xae\x93\xf9\xff*sm\xde Yy\xff\'\x85\x15\xe7\xa0\xa4\x15\xdf\x81G4\x0b\x8dE5D^\x15T\x87\x1a\xce\x85\xa3\xcb0\xdc\x1aW\xf6f \xc2KAgKr\xec9\x1b\x0f\x920\xaa<\xcf\x0e\xe1\xe3\x07\xd9FC\xc0\x07\xeb\x8a\xef\xda][0{\x9cH\x02\x85\x06\x06\xf8\xcf\xb1\x1e\x88\x9b\xbboe\xfc\x16\xd2U\xf5in{\xcdc\x0c36\x9e\xe3#\x98\xd0\xdf\x82\xdc\x9d\x86\xb1\x86-\xc1\xce}\xd5-O\x81H\xf0\x9f\x17]s\xe4\xced\xca\xbf\x9dB>p\x88S+\x90\xa7\xf1\xba|\xb6\x9e\x98M\x90\xf8w!C+\x1a\xbe!\xd4T\xd7\x10\xe0\x07\x8cSu\xaa\xf7\xc1x\x84\x91\xde\x85\x94\x9cq\xdc\x9b\xfba\xa3sB\x875\xc1]6\x18\x81\x8b\x8e\xfc"^Muy\xbbO\x94efwC\xba\xd0\xce\xb6: m\xc4\xe4\xc5y\xbf\xe3Y\xd7D\x1a\x13\x1f\xac\xef\xa5dK\xf9X\x9cU\xfc\xf57\t\x053\xbc\xe3\xc7L\xa9\x80N^\xa8\xbb\xf9"5\x10\xe9"\x93\xabc\xeb\xad\x9c\xafS\xa0N\xb9]\xbc\xd6+/\x93\xa2\xce\xd4\xc9E\x08;W]\xf6\x02\x08Hk\xce,\x9c\xc2e\x93\xf7x@\xbf:Y\xc4~\x87!\x8dF\xda\x08\xdcQ\xff\xc7\x1f:^\x89\xdb\x9a:\xaa\x90e\xa7\xdb \x91\x95\xdf\x16\xb9d\xbeG\xf9\xd811c\xba\xb9\x8456R\x80\\\x9f\x19\xd9\xd1+\xf3=\xae\x84~h"f\xd6\xa1$\xac\xf1\xbf\xdd\x15\xac\x81\xbb\x88\x1d\xfatp\x04&k\xa3\xbd\x11\xa80\xc1\xae\xea_{\'\xac\x921\x0b\xd2\xdf\xcf4f\x07\xe1\xc2X\xf4H\xa7\xd9\x0c\x1d\r\x14Orv\xd2\xbdc\x01R\xde\x07\xa4}\xa9c\xc1f|\xba\xcb\x8a:1KT\xfb\x03\x86B\x83.X\x88R\x08\xc9\xa3\x1d\xf2\xc5\xf1ot\x9f\t\xd3e\xb0D\n\xb3\xee\xe0(3q\xd0DG\x1a\x94\xf4Ld\xdd\xd4\x99\xc1\xf7\x878\xbapR\x88\x7f\xce\xde\x86\x81hv\xe1\x0b7\xf0&\xa2\xe9\x1b8As\xdbwx?\xec\n-h\x91\xc5\xe7C\x80\\\xc1K>}\xc29\xaaW\x1a*AV\x8b\xe0>\x9f\xf3dd\xa3\xdf\x0c;Ad\xe9\xcc\xa5\xc0\x82\x07w\xa5\xee\x89I}%\xf3\xfe\xc0($\xbf\xb6\x92\xd26\xa3b=o\xfe\xb8\xc0\x08]\xd16B\xfe\xca\x15v\xcb\x00KB\xea*\x07\x9a\xad\x8a\xe1C\x8dM\x92\xaeDr\xa0\xbd%@\x01\x86\xc3`}$\x80h\xf2\xf9\xf2\xcar\xe4\x18\xf3>\xd2}.9\x05|\xc1\xa6\x80\xf2~\x0e\xe0\xebT_\xe7RHnU\xd8t\xde8\x169\x9f[\\\xc7NkIj\xa9\x9e\xb4iVtF5\xda\xa0\x9f\xe1\\\xd8[0\xa2\xfd\x99\xe6\x95\n\x1a\x0bi{V}\xc5]\xcc\xf2\xbeI?jk[\xf3%\xd9G\x1aw\xc7\xe5\x08S\xc0\xc9G\x15\x82\x1a\xf9D\x82\xad&\xd5\'\x8d\x1e\xe6\x8du\xd5\x1b@\x0ch\xdbo\xa1\x85\x91\xf0J\x12kQm\xfe^\x0ek\xf8w#\xb7\x82g\x8d\x9f\x02\t>;ga\xf9y\x14\x82+\xe2?~w\x97\xff4#\x83\xd5\x99\x1e{\n\x85\xb3\xd3\xaaw\xcf:\n\x1d\xd2b\xa2\xe1\xa6\xfaB\xda\x94\xd0}\xa8`V\x90\xd6\x10t"c\xb6\x8ecV\xb7*F\xb3ruo5\x04\x1c\x1cm\xd8\xa02\xef91\xe7w\x00\x03\x9b\xabt\xe3\x97\xed\x9f\t1\x02Z\xf6:\xd8E\x96\xediqZ>\xaf\r\xf5\nB\xc9:\xa0ta\xcf[\x15H\x1e\xa3\xa6\x81\x94\xf32\xde2E(/\xce\xda\xad8?\xf5P\xeb\x9eh\x91\x8du\xa528X\xdd\x07\xc9\x898\x11\x03<&\xb6\xafq\xbe\xa6\xbaZ\xe0\xae\x0b\xd1\xd6\x9ab\x08\x90s\xcd]\xbb\n\xcf\'|\xd8\x10\xf1v$-\x05\xa4\xd6e\xb3\xc2\xbc\x8f\xbc\xf7\x17\x9b\xd3\x85\x1dx\r\x97R\xe9\x99N\xc1\xeb\xaaT\xd2y0S\xe6\x16\xeb\x9d\r9\x156\xa9!\x92\xa6=\x11\xcac\xd1w\xa8D\xba\xe5]\xd5\xeen\x18\xd2\x93\xd8\x1d\x08\x9e[O\x07\x8f\xde\x83\t\xecCim\xae\x13A\xca\xcf\xbeD\xf8\x94v\xc3C\xf0\xc5\x84H\xf3\rt%\x1d]q\xb5\x87j~\x80\xd0\xc1\x122\x15\xf0\xee\x8c\xc3\x18\xfb\xe6\x9d\xcfXQ\xa4\x07\xc2XhL\xd7\x9c\x9a\xf5\x83\xa8\xdd\xaf\x90\'\xb4\xc0\x86\xe5\x9e\xf9t\xecCBd\xcb)&\\{Z\xbe\xa0N5\x04E\xf3R\xaeX1\x82\x95\xb6=\x9eAk\x16J\xc8\x8c\xcf\xd1\xc6\xb1<\xf2#\xcc\x13\x1c\xc4\x8a\x06\xf2 \xd0\xe5,\x84\x8d(B\xcc\xc7\x85\x86\x16\xc9\xb73\x869\x10\x19Sv\xeb\xbf\xa9\xa3i(\xed\xcbW\x01\xb7s\x86Z\xc6\xb0\xaf\x91\xfb\xff\x13\xb2\xdf\xa7\xb4\xf7\x99kk?(\xf0\x7fx\xe2_k\xc2\xe6W\x1e\xb0\xe5<\x7f\xd1\xc5T@\xdd\xad`\x0e\x15)\xaeT\x97\x9d\xf9;\x8fN\n\xd3\xe6D\x80\xf0\xe6O\xbe\xe1t\xb0\xd1{\xe3B}N\x19?\xa0\x15_\xe3\x99\xdf)\xf1,\x91\x88\x0f\x04\xc9\x8f\xdf\xad4\x9aC\xfb\xc4a$\xb9M7\xbez\x80\x02\xe5\\\xd4\xfc\x8a\'fA\xca\xef\xa2\xd9\xccfP\xa8\xee&z\xe2\xc09\x04\xc3-p\n\x90\x98\xb9\x8e\x1f\x9f\x93\xd9\xb9dh\x99\xbc\x01<[\x95\xe6\n^>\x1f\xb4\x18EP\x13l\xe8\xc6\x91J\xeca\xa2\xc2\xe7\x8d\xf4\x19\xc0X*a{\xefW\xd7u\x8f(my\xb3\x19\x17`%\xebwb7\x8b\x90\xb2d\xee\x13\xcc\x97\xefB\xa3\x82U\x0ek\xee\xb5\x97\x89CcT\xa1;\xe7!\xd7\xe8\xf3\xfc?\xeb\xef\x0f2\xfc%\x83\xaao,\x9d\x06J\xff\x08\xaa\xad\x99i\x06\x04\x88\xda\xa5\xfe*"\xeeE\x85#w8\xd0^.\xe1\x04\xf3V\x0cz\xd4\x9a\x8d\xb1]\x15\xef\xe2?0\xe5N\x1a\xcc\x05\x0f\xa2\x1f\xb7\xd5\x17o\xcbB\xcaX(\x88\xe9w\xc0\xbf\x8b\xe6\xa0\xc7\xbd.\xa5)\xcc\xfb9\xcb\'`\x9eE\x91z\x90\xb0\xee\x80\xe2\xd5%*\x88DL\xab\xcc\x06\x0c\xd4\xec\x080\xbcW\xa6\xe6\xa5\x1b\xdd\xec\xc4\x86\xdb\x988%"J*q\x04\xa3\xe7\xdb\xd6\xb29|\x13_\xa8\xaf\n\xf5\xa3\xb2\xa9\xdb\x9a1\xb6W\x14\xb5\'\x00\x17\'\x19\t\x10\xb2\xb5\xea\xf0\xc2l\xa1\xf1\x04\x16\xf8\xf9\xa9u\xcbF5\xe0?H\xf0\xec\xc1)\xcd\x9b\xbb,o)\x84u\x15\xc3u\x85u\x0e@?[U`B&+\x18\xc4\xda3\xec\xca:\xc1o\x8d\xf6\xa0_: iDt\xfb\xf8\x87\xef_\x82\xbe\xb9tly-P\x91\xe1\x9e\x18\xee8\x86\xfb\xfd\xe8R\x08\xa8\xcd\x91~[\xb6\x8e\xa7\x97i\xb8\x81\xa0\x17a\x01o*4\xa6l\xff-\xdb\'t\xd1\xd2"l\xc5\x12\xfe\x81\xf4x\x97[B\x01\x0e\x0c\xbd"\xc8\x025\xbcnj\xb3DS\xc7\x17'
tbI256
I0
F0
tbsg1101
I01
sbtp1222
asbasg1096
(lp1223
sbasg1096
(lp1224
sb(lp1225
g3
(g1113
g5
NtRp1226
(dp1227
g1098
Nsg1101
I01
sg1088
g1116
sg1094
(lp1228
g1178
ag3
(g1113
g5
NtRp1229
(dp1230
g1098
Nsg1101
I01
sg1088
S'idxs_map'
p1231
sg1094
(lp1232
g1178
ag3
(g1090
g5
NtRp1233
(dp1234
g1088
g1093
sg1094
(lp1235
sg1096
(lp1236
sg1098
I5
sg1099
g1186
sg1101
I01
sbag3
(g1113
g5
NtRp1237
(dp1238
g1098
Nsg1101
I00
sg1088
g1094
sg1094
(lp1239
g1178
ag3
(g1113
g5
NtRp1240
(dp1241
g1098
Nsg1101
I01
sg1088
g1116
sg1094
(lp1242
g1175
ag3
(g1113
g5
NtRp1243
(dp1244
g1098
Nsg1101
I00
sg1088
g1198
sg1094
(lp1245
g1200
ag1151
ag1204
asg1096
(lp1246
(lp1247
S'size'
p1248
ag3
(g1113
g5
NtRp1249
(dp1250
g1098
Nsg1101
I01
sg1088
g1133
sg1094
(lp1251
g1175
asg1096
(lp1252
sbaa(g1209
g3
(g1090
g5
NtRp1253
(dp1254
g1088
g1093
sg1094
(lp1255
sg1096
(lp1256
sg1098
Nsg1099
g1215
sg1101
I01
sbtp1257
asbag1178
asg1096
(lp1258
sbasg1096
(lp1259
sbasg1096
(lp1260
sbag1144
asg1096
(lp1261
sbasg3
(g1113
g5
NtRp1262
(dp1263
g1098
Nsg1101
I01
sg1088
g1186
sg1094
(lp1264
g3
(g1113
g5
NtRp1265
(dp1266
g1098
Nsg1101
I00
sg1088
g1190
sg1094
(lp1267
g3
(g1090
g5
NtRp1268
(dp1269
g1088
g1093
sg1094
(lp1270
sg1096
(lp1271
sg1098
I8
sg1099
g25
sg1101
I01
sbag3
(g1113
g5
NtRp1272
(dp1273
g1098
Nsg1101
I00
sg1088
g1198
sg1094
(lp1274
g3
(g1090
g5
NtRp1275
(dp1276
g1088
g1093
sg1094
(lp1277
sg1096
(lp1278
sg1098
Nsg1099
I1
sg1101
I01
sbag3
(g1090
g5
NtRp1279
(dp1280
g1088
g1093
sg1094
(lp1281
sg1096
(lp1282
sg1098
Nsg1099
I512
sg1101
I01
sbag3
(g1090
g5
NtRp1283
(dp1284
g1088
g1093
sg1094
(lp1285
sg1096
(lp1286
sg1098
Nsg1099
I1
sg1101
I01
sbasg1096
(lp1287
(g1209
g1210
tp1288
asbasg1096
(lp1289
sbasg1096
(lp1290
sb(lp1291
g3
(g1113
g5
NtRp1292
(dp1293
g1098
Nsg1101
I01
sg1088
g1116
sg1094
(lp1294
g3
(g1113
g5
NtRp1295
(dp1296
g1098
Nsg1101
I01
sg1088
g1120
sg1094
(lp1297
g1144
asg1096
(lp1298
sbag3
(g1113
g5
NtRp1299
(dp1300
g1098
Nsg1101
I01
sg1088
g1231
sg1094
(lp1301
g1295
ag3
(g1090
g5
NtRp1302
(dp1303
g1088
g1093
sg1094
(lp1304
sg1096
(lp1305
sg1098
I5
sg1099
g1186
sg1101
I01
sbag3
(g1113
g5
NtRp1306
(dp1307
g1098
Nsg1101
I00
sg1088
g1094
sg1094
(lp1308
g1295
ag3
(g1113
g5
NtRp1309
(dp1310
g1098
Nsg1101
I01
sg1088
g1116
sg1094
(lp1311
g3
(g1113
g5
NtRp1312
(dp1313
g1098
Nsg1101
I01
sg1088
g1120
sg1094
(lp1314
g1295
asg1096
(lp1315
sbag3
(g1113
g5
NtRp1316
(dp1317
g1098
Nsg1101
I00
sg1088
g1198
sg1094
(lp1318
g1275
ag1279
ag1283
asg1096
(lp1319
(lp1320
g1248
ag3
(g1113
g5
NtRp1321
(dp1322
g1098
Nsg1101
I01
sg1088
g1133
sg1094
(lp1323
g1312
asg1096
(lp1324
sbaa(g1209
g1253
tp1325
asbag1295
asg1096
(lp1326
sbasg1096
(lp1327
sbasg1096
(lp1328
sbag1144
asg1096
(lp1329
sbasg3
(g1113
g5
NtRp1330
(dp1331
g1098
I4
sg1101
I00
sg1088
S'dict'
p1332
sg1094
(lp1333
sg1096
(lp1334
(lp1335
g27
ag3
(g1113
g5
NtRp1336
(dp1337
g1098
Nsg1101
I01
sg1088
g1186
sg1094
(lp1338
g3
(g1113
g5
NtRp1339
(dp1340
g1098
Nsg1101
I00
sg1088
g1190
sg1094
(lp1341
g3
(g1090
g5
NtRp1342
(dp1343
g1088
g1093
sg1094
(lp1344
sg1096
(lp1345
sg1098
I11
sg1099
g27
sg1101
I01
sbag3
(g1113
g5
NtRp1346
(dp1347
g1098
Nsg1101
I00
sg1088
g1198
sg1094
(lp1348
g3
(g1090
g5
NtRp1349
(dp1350
g1088
g1093
sg1094
(lp1351
sg1096
(lp1352
sg1098
Nsg1099
I1
sg1101
I01
sbag3
(g1090
g5
NtRp1353
(dp1354
g1088
g1093
sg1094
(lp1355
sg1096
(lp1356
sg1098
Nsg1099
I512
sg1101
I01
sbag1108
asg1096
(lp1357
(g1209
g1210
tp1358
asbasg1096
(lp1359
sbasg1096
(lp1360
sbaa(lp1361
g23
ag3
(g1113
g5
NtRp1362
(dp1363
g1098
Nsg1101
I01
sg1088
g1186
sg1094
(lp1364
g3
(g1113
g5
NtRp1365
(dp1366
g1098
Nsg1101
I00
sg1088
g1190
sg1094
(lp1367
g3
(g1090
g5
NtRp1368
(dp1369
g1088
g1093
sg1094
(lp1370
sg1096
(lp1371
sg1098
I11
sg1099
g23
sg1101
I01
sbag3
(g1113
g5
NtRp1372
(dp1373
g1098
Nsg1101
I00
sg1088
g1198
sg1094
(lp1374
g3
(g1090
g5
NtRp1375
(dp1376
g1088
g1093
sg1094
(lp1377
sg1096
(lp1378
sg1098
Nsg1099
I1
sg1101
I01
sbag3
(g1090
g5
NtRp1379
(dp1380
g1088
g1093
sg1094
(lp1381
sg1096
(lp1382
sg1098
Nsg1099
I512
sg1101
I01
sbag3
(g1090
g5
NtRp1383
(dp1384
g1088
g1093
sg1094
(lp1385
sg1096
(lp1386
sg1098
Nsg1099
I2
sg1101
I01
sbasg1096
(lp1387
(g1209
g1210
tp1388
asbasg1096
(lp1389
sbasg1096
(lp1390
sbaa(lp1391
g25
ag1262
aa(lp1392
g29
ag1184
aasb(lp1393
g3
(g1113
g5
NtRp1394
(dp1395
g1098
Nsg1101
I01
sg1088
g1116
sg1094
(lp1396
g1144
ag3
(g1113
g5
NtRp1397
(dp1398
g1098
Nsg1101
I01
sg1088
g1231
sg1094
(lp1399
g1144
ag3
(g1090
g5
NtRp1400
(dp1401
g1088
g1093
sg1094
(lp1402
sg1096
(lp1403
sg1098
I4
sg1099
g1332
sg1101
I01
sbasg1096
(lp1404
(lp1405
g27
ag3
(g1113
g5
NtRp1406
(dp1407
g1098
Nsg1101
I00
sg1088
g1094
sg1094
(lp1408
g1144
ag3
(g1113
g5
NtRp1409
(dp1410
g1098
Nsg1101
I01
sg1088
g1116
sg1094
(lp1411
g1141
ag3
(g1113
g5
NtRp1412
(dp1413
g1098
Nsg1101
I01
sg1088
g1231
sg1094
(lp1414
g1141
ag3
(g1090
g5
NtRp1415
(dp1416
g1088
g1093
sg1094
(lp1417
sg1096
(lp1418
sg1098
I5
sg1099
g1186
sg1101
I01
sbag3
(g1113
g5
NtRp1419
(dp1420
g1098
Nsg1101
I00
sg1088
g1094
sg1094
(lp1421
g1141
ag3
(g1113
g5
NtRp1422
(dp1423
g1098
Nsg1101
I01
sg1088
g1116
sg1094
(lp1424
g1138
ag3
(g1113
g5
NtRp1425
(dp1426
g1098
Nsg1101
I00
sg1088
g1198
sg1094
(lp1427
g1349
ag1353
ag1108
asg1096
(lp1428
(lp1429
g1248
ag3
(g1113
g5
NtRp1430
(dp1431
g1098
Nsg1101
I01
sg1088
g1133
sg1094
(lp1432
g1138
asg1096
(lp1433
sbaa(g1209
g1253
tp1434
asbag1141
asg1096
(lp1435
sbasg1096
(lp1436
sbasg1096
(lp1437
sbag1144
asg1096
(lp1438
sbasg1096
(lp1439
sbaa(lp1440
g23
ag3
(g1113
g5
NtRp1441
(dp1442
g1098
Nsg1101
I00
sg1088
g1094
sg1094
(lp1443
g1144
ag3
(g1113
g5
NtRp1444
(dp1445
g1098
Nsg1101
I01
sg1088
g1116
sg1094
(lp1446
g3
(g1113
g5
NtRp1447
(dp1448
g1098
Nsg1101
I01
sg1088
g1120
sg1094
(lp1449
g1144
asg1096
(lp1450
sbag3
(g1113
g5
NtRp1451
(dp1452
g1098
Nsg1101
I01
sg1088
g1231
sg1094
(lp1453
g1447
ag3
(g1090
g5
NtRp1454
(dp1455
g1088
g1093
sg1094
(lp1456
sg1096
(lp1457
sg1098
I5
sg1099
g1186
sg1101
I01
sbag3
(g1113
g5
NtRp1458
(dp1459
g1098
Nsg1101
I00
sg1088
g1094
sg1094
(lp1460
g1447
ag3
(g1113
g5
NtRp1461
(dp1462
g1098
Nsg1101
I01
sg1088
g1116
sg1094
(lp1463
g3
(g1113
g5
NtRp1464
(dp1465
g1098
Nsg1101
I01
sg1088
g1120
sg1094
(lp1466
g1447
asg1096
(lp1467
sbag3
(g1113
g5
NtRp1468
(dp1469
g1098
Nsg1101
I00
sg1088
g1198
sg1094
(lp1470
g1375
ag1379
ag1383
asg1096
(lp1471
(lp1472
g1248
ag3
(g1113
g5
NtRp1473
(dp1474
g1098
Nsg1101
I01
sg1088
g1133
sg1094
(lp1475
g1464
asg1096
(lp1476
sbaa(g1209
g1253
tp1477
asbag1447
asg1096
(lp1478
sbasg1096
(lp1479
sbasg1096
(lp1480
sbag1144
asg1096
(lp1481
sbasg1096
(lp1482
sbaa(lp1483
g25
ag3
(g1113
g5
NtRp1484
(dp1485
g1098
Nsg1101
I00
sg1088
g1094
sg1094
(lp1486
g1144
ag1292
asg1096
(lp1487
sbaa(lp1488
g29
ag3
(g1113
g5
NtRp1489
(dp1490
g1098
Nsg1101
I00
sg1088
g1094
sg1094
(lp1491
g1144
ag1226
asg1096
(lp1492
sbaasbag1091
asg1096
(lp1493
sbasg1275
(lp1494
g3
(g1113
g5
NtRp1495
(dp1496
g1098
Nsg1101
I01
sg1088
g1116
sg1094
(lp1497
g3
(g1113
g5
NtRp1498
(dp1499
g1098
Nsg1101
I01
sg1088
g1120
sg1094
(lp1500
g1091
asg1096
(lp1501
sbag3
(g1113
g5
NtRp1502
(dp1503
g1098
Nsg1101
I01
sg1088
g1125
sg1094
(lp1504
g3
(g1113
g5
NtRp1505
(dp1506
g1098
Nsg1101
I01
sg1088
g1129
sg1094
(lp1507
g3
(g1113
g5
NtRp1508
(dp1509
g1098
Nsg1101
I01
sg1088
g1133
sg1094
(lp1510
g1091
asg1096
(lp1511
sbag1275
asg1096
(lp1512
sbasg1096
(lp1513
sbag1312
asg1096
(lp1514
sbasg1362
(lp1515
g1444
asg1200
(lp1516
g3
(g1113
g5
NtRp1517
(dp1518
g1098
Nsg1101
I01
sg1088
g1116
sg1094
(lp1519
g3
(g1113
g5
NtRp1520
(dp1521
g1098
Nsg1101
I01
sg1088
g1120
sg1094
(lp1522
g1091
asg1096
(lp1523
sbag3
(g1113
g5
NtRp1524
(dp1525
g1098
Nsg1101
I01
sg1088
g1125
sg1094
(lp1526
g3
(g1113
g5
NtRp1527
(dp1528
g1098
Nsg1101
I01
sg1088
g1129
sg1094
(lp1529
g3
(g1113
g5
NtRp1530
(dp1531
g1098
Nsg1101
I01
sg1088
g1133
sg1094
(lp1532
g1091
asg1096
(lp1533
sbag1200
asg1096
(lp1534
sbasg1096
(lp1535
sbag1175
asg1096
(lp1536
sbasg1336
(lp1537
g1409
asg1272
(lp1538
g1309
asg1383
(lp1539
g3
(g1113
g5
NtRp1540
(dp1541
g1098
Nsg1101
I01
sg1088
g1116
sg1094
(lp1542
g3
(g1113
g5
NtRp1543
(dp1544
g1098
Nsg1101
I01
sg1088
g1120
sg1094
(lp1545
g1091
asg1096
(lp1546
sbag3
(g1113
g5
NtRp1547
(dp1548
g1098
Nsg1101
I01
sg1088
g1125
sg1094
(lp1549
g3
(g1113
g5
NtRp1550
(dp1551
g1098
Nsg1101
I01
sg1088
g1129
sg1094
(lp1552
g3
(g1113
g5
NtRp1553
(dp1554
g1098
Nsg1101
I01
sg1088
g1133
sg1094
(lp1555
g1091
asg1096
(lp1556
sbag1383
asg1096
(lp1557
sbasg1096
(lp1558
sbag1464
asg1096
(lp1559
sbasg1372
(lp1560
g1461
asg1196
(lp1561
g1240
asg1375
(lp1562
g3
(g1113
g5
NtRp1563
(dp1564
g1098
Nsg1101
I01
sg1088
g1116
sg1094
(lp1565
g3
(g1113
g5
NtRp1566
(dp1567
g1098
Nsg1101
I01
sg1088
g1120
sg1094
(lp1568
g1091
asg1096
(lp1569
sbag3
(g1113
g5
NtRp1570
(dp1571
g1098
Nsg1101
I01
sg1088
g1125
sg1094
(lp1572
g3
(g1113
g5
NtRp1573
(dp1574
g1098
Nsg1101
I01
sg1088
g1129
sg1094
(lp1575
g3
(g1113
g5
NtRp1576
(dp1577
g1098
Nsg1101
I01
sg1088
g1133
sg1094
(lp1578
g1091
asg1096
(lp1579
sbag1375
asg1096
(lp1580
sbasg1096
(lp1581
sbag1464
asg1096
(lp1582
sbasg1283
(lp1583
g3
(g1113
g5
NtRp1584
(dp1585
g1098
Nsg1101
I01
sg1088
g1116
sg1094
(lp1586
g3
(g1113
g5
NtRp1587
(dp1588
g1098
Nsg1101
I01
sg1088
g1120
sg1094
(lp1589
g1091
asg1096
(lp1590
sbag3
(g1113
g5
NtRp1591
(dp1592
g1098
Nsg1101
I01
sg1088
g1125
sg1094
(lp1593
g3
(g1113
g5
NtRp1594
(dp1595
g1098
Nsg1101
I01
sg1088
g1129
sg1094
(lp1596
g3
(g1113
g5
NtRp1597
(dp1598
g1098
Nsg1101
I01
sg1088
g1133
sg1094
(lp1599
g1091
asg1096
(lp1600
sbag1283
asg1096
(lp1601
sbasg1096
(lp1602
sbag1312
asg1096
(lp1603
sbasg1379
(lp1604
g3
(g1113
g5
NtRp1605
(dp1606
g1098
Nsg1101
I01
sg1088
g1116
sg1094
(lp1607
g3
(g1113
g5
NtRp1608
(dp1609
g1098
Nsg1101
I01
sg1088
g1120
sg1094
(lp1610
g1091
asg1096
(lp1611
sbag3
(g1113
g5
NtRp1612
(dp1613
g1098
Nsg1101
I01
sg1088
g1125
sg1094
(lp1614
g3
(g1113
g5
NtRp1615
(dp1616
g1098
Nsg1101
I01
sg1088
g1129
sg1094
(lp1617
g3
(g1113
g5
NtRp1618
(dp1619
g1098
Nsg1101
I01
sg1088
g1133
sg1094
(lp1620
g1091
asg1096
(lp1621
sbag1379
asg1096
(lp1622
sbasg1096
(lp1623
sbag1464
asg1096
(lp1624
sbasg1349
(lp1625
g3
(g1113
g5
NtRp1626
(dp1627
g1098
Nsg1101
I01
sg1088
g1116
sg1094
(lp1628
g3
(g1113
g5
NtRp1629
(dp1630
g1098
Nsg1101
I01
sg1088
g1120
sg1094
(lp1631
g1091
asg1096
(lp1632
sbag3
(g1113
g5
NtRp1633
(dp1634
g1098
Nsg1101
I01
sg1088
g1125
sg1094
(lp1635
g3
(g1113
g5
NtRp1636
(dp1637
g1098
Nsg1101
I01
sg1088
g1129
sg1094
(lp1638
g3
(g1113
g5
NtRp1639
(dp1640
g1098
Nsg1101
I01
sg1088
g1133
sg1094
(lp1641
g1091
asg1096
(lp1642
sbag1349
asg1096
(lp1643
sbasg1096
(lp1644
sbag1138
asg1096
(lp1645
sbasg1204
(lp1646
g3
(g1113
g5
NtRp1647
(dp1648
g1098
Nsg1101
I01
sg1088
g1116
sg1094
(lp1649
g3
(g1113
g5
NtRp1650
(dp1651
g1098
Nsg1101
I01
sg1088
g1120
sg1094
(lp1652
g1091
asg1096
(lp1653
sbag3
(g1113
g5
NtRp1654
(dp1655
g1098
Nsg1101
I01
sg1088
g1125
sg1094
(lp1656
g3
(g1113
g5
NtRp1657
(dp1658
g1098
Nsg1101
I01
sg1088
g1129
sg1094
(lp1659
g3
(g1113
g5
NtRp1660
(dp1661
g1098
Nsg1101
I01
sg1088
g1133
sg1094
(lp1662
g1091
asg1096
(lp1663
sbag1204
asg1096
(lp1664
sbasg1096
(lp1665
sbag1175
asg1096
(lp1666
sbasg1353
(lp1667
g3
(g1113
g5
NtRp1668
(dp1669
g1098
Nsg1101
I01
sg1088
g1116
sg1094
(lp1670
g3
(g1113
g5
NtRp1671
(dp1672
g1098
Nsg1101
I01
sg1088
g1120
sg1094
(lp1673
g1091
asg1096
(lp1674
sbag3
(g1113
g5
NtRp1675
(dp1676
g1098
Nsg1101
I01
sg1088
g1125
sg1094
(lp1677
g3
(g1113
g5
NtRp1678
(dp1679
g1098
Nsg1101
I01
sg1088
g1129
sg1094
(lp1680
g3
(g1113
g5
NtRp1681
(dp1682
g1098
Nsg1101
I01
sg1088
g1133
sg1094
(lp1683
g1091
asg1096
(lp1684
sbag1353
asg1096
(lp1685
sbasg1096
(lp1686
sbag1138
asg1096
(lp1687
sbasg1279
(lp1688
g3
(g1113
g5
NtRp1689
(dp1690
g1098
Nsg1101
I01
sg1088
g1116
sg1094
(lp1691
g3
(g1113
g5
NtRp1692
(dp1693
g1098
Nsg1101
I01
sg1088
g1120
sg1094
(lp1694
g1091
asg1096
(lp1695
sbag3
(g1113
g5
NtRp1696
(dp1697
g1098
Nsg1101
I01
sg1088
g1125
sg1094
(lp1698
g3
(g1113
g5
NtRp1699
(dp1700
g1098
Nsg1101
I01
sg1088
g1129
sg1094
(lp1701
g3
(g1113
g5
NtRp1702
(dp1703
g1098
Nsg1101
I01
sg1088
g1133
sg1094
(lp1704
g1091
asg1096
(lp1705
sbag1279
asg1096
(lp1706
sbasg1096
(lp1707
sbag1312
asg1096
(lp1708
sbasg1346
(lp1709
g1422
assS'expr'
p1710
g1330
sS'idxs_memo'
p1711
(dp1712
g1108
g1118
sg1151
g1159
sg1184
g1178
sg1262
g1295
sg1330
g1144
sg1275
g1498
sg1362
g1447
sg1200
g1520
sg1336
g1141
sg1272
g1312
sg1383
g1543
sg1372
g1464
sg1196
g1175
sg1375
g1566
sg1283
g1587
sg1379
g1608
sg1349
g1629
sg1204
g1650
sg1353
g1671
sg1279
g1692
sg1346
g1138
ssS'dfs_nodes'
p1713
(lp1714
g1342
ag1349
ag1353
ag1108
ag1346
ag1339
ag1336
ag1368
ag1375
ag1379
ag1383
ag1372
ag1365
ag1362
ag1268
ag1275
ag1279
ag1283
ag1272
ag1265
ag1262
ag1192
ag1200
ag1151
ag1204
ag1196
ag1188
ag1184
ag1330
asS'params'
p1715
(dp1716
g23
g1372
sg25
g1272
sg27
g1346
sg29
g1196
ssS'v_expr'
p1717
g1394
sS'expr_idxs'
p1718
g1091
sbsg1710
g1330
sS'pass_expr_memo_ctrl'
p1719
I00
sg1209
g1215
sg41
Nsg1715
(dp1720
g23
g1372
sg25
g1272
sg27
g1346
sg29
g1196
ssS's_idxs_vals'
p1721
g3
(g1113
g5
NtRp1722
(dp1723
g1098
Nsg1101
I01
sg1088
g1094
sg1094
(lp1724
g3
(g1113
g5
NtRp1725
(dp1726
g1098
I4
sg1101
I00
sg1088
g1332
sg1094
(lp1727
sg1096
(lp1728
(lp1729
g27
ag1138
aa(lp1730
g23
ag1464
aa(lp1731
g25
ag1312
aa(lp1732
g29
ag1175
aasbag3
(g1113
g5
NtRp1733
(dp1734
g1098
I4
sg1101
I00
sg1088
g1332
sg1094
(lp1735
sg1096
(lp1736
(lp1737
g27
ag1425
aa(lp1738
g23
ag1468
aa(lp1739
g25
ag1316
aa(lp1740
g29
ag1243
aasbasg1096
(lp1741
sbsS'loss_target'
p1742
NsS'installed_rng'
p1743
I01
sS'fn'
p1744
cHPOlib.cv
main
p1745
sbs.