(dp1
S'cv_endtime'
p2
(lp3
F1472551401.3771989
aF1472551402.70099
aF1472551404.1106939
aF1472551405.4031301
aF1472551406.7274909
aF1472551407.9166801
aF1472551409.22472
aF1472551410.6381209
aF1472551411.987937
aF1472551413.28965
aF1472551414.6255269
aF1472551415.823168
aF1472551417.0142651
aF1472551418.2065589
aF1472551419.3995681
aF1472551420.693119
aF1472551422.0327361
aF1472551423.4778669
aF1472551424.825902
aF1472551426.1437509
aF1472551427.4981551
aF1472551428.724668
aF1472551429.9522319
aF1472551431.28093
aF1472551432.7652891
aF1472551434.005403
aF1472551435.2237811
aF1472551436.5704291
aF1472551437.8059189
aF1472551439.0465779
aF1472551440.381192
aF1472551441.6020041
aF1472551442.9506481
aF1472551444.2081449
aF1472551445.4337499
aF1472551446.779268
aF1472551448.1667631
aF1472551449.539269
aF1472551450.798389
aF1472551452.0836151
aF1472551453.4191861
aF1472551454.674561
aF1472551455.9299049
asS'folds'
p4
I1
sS'cv_starttime'
p5
(lp6
F1472551374.5780711
aF1472551401.4005561
aF1472551402.717999
aF1472551404.135165
aF1472551405.427335
aF1472551406.752713
aF1472551407.94699
aF1472551409.2507801
aF1472551410.6653121
aF1472551412.0156839
aF1472551413.315871
aF1472551414.6528649
aF1472551415.85041
aF1472551417.042531
aF1472551418.2350619
aF1472551419.4279301
aF1472551420.723089
aF1472551422.06266
aF1472551423.5078599
aF1472551424.8528619
aF1472551426.1800029
aF1472551427.5358009
aF1472551428.7606571
aF1472551429.9927621
aF1472551431.319356
aF1472551432.8061409
aF1472551434.047478
aF1472551435.2644601
aF1472551436.6097651
aF1472551437.8467579
aF1472551439.086314
aF1472551440.4248669
aF1472551441.6305549
aF1472551442.9927881
aF1472551444.2378581
aF1472551445.4791131
aF1472551446.8394389
aF1472551448.2147779
aF1472551449.5874839
aF1472551450.8484139
aF1472551452.1264
aF1472551453.46714
aF1472551454.7183111
aF1472551455.979105
asS'endtime'
p7
(lp8
F1472551457.7076769
asS'optimizer'
p9
S'/root/tf-hpolib/HPOlib/optimizers/tpe/hyperopt_august2013_mod'
p10
sS'optimizer_time'
p11
(lp12
F0.3359990119934082
aF0.023357152938842773
aF0.01700901985168457
aF0.024471044540405273
aF0.02420496940612793
aF0.025222063064575195
aF0.030309915542602539
aF0.026060104370117188
aF0.027191162109375
aF0.027746915817260742
aF0.026221036911010742
aF0.027338027954101562
aF0.027241945266723633
aF0.028265953063964844
aF0.028502941131591797
aF0.028362035751342773
aF0.029969930648803711
aF0.029923915863037109
aF0.029993057250976562
aF0.026959896087646484
aF0.036252021789550781
aF0.037645816802978516
aF0.035989046096801758
aF0.040530204772949219
aF0.038425922393798828
aF0.040851831436157227
aF0.042074918746948242
aF0.040678977966308594
aF0.039335966110229492
aF0.040838956832885742
aF0.039736032485961914
aF0.043674945831298828
aF0.028550863265991211
aF0.042140007019042969
aF0.029713153839111328
aF0.045363187789916992
aF0.060170888900756836
aF0.04801487922668457
aF0.048214912414550781
aF0.050024986267089844
aF0.042784929275512695
aF0.04795384407043457
aF0.04375004768371582
aF0.049200057983398438
aF1.7777719497680664
asS'instance_order'
p13
(lp14
(I0
I0
tp15
a(I1
I0
tp16
a(I2
I0
tp17
a(I3
I0
tp18
a(I4
I0
tp19
a(I5
I0
tp20
a(I6
I0
tp21
a(I7
I0
tp22
a(I8
I0
tp23
a(I9
I0
tp24
a(I10
I0
tp25
a(I11
I0
tp26
a(I12
I0
tp27
a(I13
I0
tp28
a(I14
I0
tp29
a(I15
I0
tp30
a(I16
I0
tp31
a(I17
I0
tp32
a(I18
I0
tp33
a(I19
I0
tp34
a(I20
I0
tp35
a(I21
I0
tp36
a(I22
I0
tp37
a(I23
I0
tp38
a(I24
I0
tp39
a(I25
I0
tp40
a(I26
I0
tp41
a(I27
I0
tp42
a(I28
I0
tp43
a(I29
I0
tp44
a(I30
I0
tp45
a(I31
I0
tp46
a(I32
I0
tp47
a(I33
I0
tp48
a(I34
I0
tp49
a(I35
I0
tp50
a(I36
I0
tp51
a(I37
I0
tp52
a(I38
I0
tp53
a(I39
I0
tp54
a(I40
I0
tp55
a(I41
I0
tp56
a(I42
I0
tp57
a(I43
I0
tp58
asS'max_wallclock_time'
p59
S''
sS'title'
p60
NsS'trials'
p61
(lp62
(dp63
S'status'
p64
I-1
sS'std'
p65
cnumpy.core.multiarray
scalar
p66
(cnumpy
dtype
p67
(S'f8'
I0
I1
tRp68
(I3
S'<'
NNNI-1
I-1
I0
tbS'\x00\x00\x00\x00\x00\x00\x00\x00'
tRp69
sS'instance_durations'
p70
cnumpy.core.multiarray
_reconstruct
p71
(cnumpy
ndarray
p72
(I0
tS'b'
tRp73
(I1
(I1
tg67
(S'f8'
I0
I1
tRp74
(I3
S'<'
NNNI-1
I-1
I0
tbI00
S'\x1c|a2U\x80:@'
tbsS'instance_results'
p75
g71
(g72
(I0
tS'b'
tRp76
(I1
(I1
tg74
I00
S'\x00\x00\x00\x00\x80\x84.A'
tbsS'test_error'
p77
Fnan
sS'params'
p78
ccollections
OrderedDict
p79
((lp80
(lp81
S'-conv1_depth'
p82
aS'392.0'
p83
aa(lp84
S'-fc_depth'
p85
aS'485.0'
p86
aa(lp87
S'-filter_size'
p88
aS'8.0'
p89
aatRp90
sS'result'
p91
g66
(g68
S'\x00\x00\x00\x00\x80\x84.A'
tRp92
sS'duration'
p93
g66
(g68
S'\x1c|a2U\x80:@'
tRp94
sS'instance_status'
p95
g71
(g72
(I0
tS'b'
tRp96
(I1
(I1
tg67
(S'i8'
I0
I1
tRp97
(I3
S'<'
NNNI-1
I-1
I0
tbI00
S'\xff\xff\xff\xff\xff\xff\xff\xff'
tbsa(dp98
S'status'
p99
I-1
sS'std'
p100
g66
(g68
S'\x00\x00\x00\x00\x00\x00\x00\x00'
tRp101
sS'instance_durations'
p102
g71
(g72
(I0
tS'b'
tRp103
(I1
(I1
tg67
(S'f8'
I0
I1
tRp104
(I3
S'<'
NNNI-1
I-1
I0
tbI00
S'H\xf9I\xb5OG\xf0?'
tbsS'instance_results'
p105
g71
(g72
(I0
tS'b'
tRp106
(I1
(I1
tg104
I00
S'\x00\x00\x00\x00\x80\x84.A'
tbsS'test_error'
p107
Fnan
sS'params'
p108
g79
((lp109
(lp110
S'-conv1_depth'
p111
aS'512.0'
p112
aa(lp113
S'-fc_depth'
p114
aS'358.0'
p115
aa(lp116
S'-filter_size'
p117
aS'13.0'
p118
aatRp119
sS'result'
p120
g66
(g68
S'\x00\x00\x00\x00\x80\x84.A'
tRp121
sS'duration'
p122
g66
(g68
S'H\xf9I\xb5OG\xf0?'
tRp123
sS'instance_status'
p124
g71
(g72
(I0
tS'b'
tRp125
(I1
(I1
tg67
(S'i8'
I0
I1
tRp126
(I3
S'<'
NNNI-1
I-1
I0
tbI00
S'\xff\xff\xff\xff\xff\xff\xff\xff'
tbsa(dp127
S'status'
p128
I-1
sS'std'
p129
g66
(g68
S'\x00\x00\x00\x00\x00\x00\x00\x00'
tRp130
sS'instance_durations'
p131
g71
(g72
(I0
tS'b'
tRp132
(I1
(I1
tg67
(S'f8'
I0
I1
tRp133
(I3
S'<'
NNNI-1
I-1
I0
tbI00
S'K\x1f\xba\xa0\xbe\xe5\xf1?'
tbsS'instance_results'
p134
g71
(g72
(I0
tS'b'
tRp135
(I1
(I1
tg133
I00
S'\x00\x00\x00\x00\x80\x84.A'
tbsS'test_error'
p136
Fnan
sS'params'
p137
g79
((lp138
(lp139
S'-conv1_depth'
p140
aS'144.0'
p141
aa(lp142
S'-fc_depth'
p143
aS'299.0'
p144
aa(lp145
S'-filter_size'
p146
aS'12.0'
p147
aatRp148
sS'result'
p149
g66
(g68
S'\x00\x00\x00\x00\x80\x84.A'
tRp150
sS'duration'
p151
g66
(g68
S'K\x1f\xba\xa0\xbe\xe5\xf1?'
tRp152
sS'instance_status'
p153
g71
(g72
(I0
tS'b'
tRp154
(I1
(I1
tg67
(S'i8'
I0
I1
tRp155
(I3
S'<'
NNNI-1
I-1
I0
tbI00
S'\xff\xff\xff\xff\xff\xff\xff\xff'
tbsa(dp156
S'status'
p157
I-1
sS'std'
p158
g66
(g68
S'\x00\x00\x00\x00\x00\x00\x00\x00'
tRp159
sS'instance_durations'
p160
g71
(g72
(I0
tS'b'
tRp161
(I1
(I1
tg67
(S'f8'
I0
I1
tRp162
(I3
S'<'
NNNI-1
I-1
I0
tbI00
S'+0du\xabg\xf0?'
tbsS'instance_results'
p163
g71
(g72
(I0
tS'b'
tRp164
(I1
(I1
tg162
I00
S'\x00\x00\x00\x00\x80\x84.A'
tbsS'instance_status'
p165
g71
(g72
(I0
tS'b'
tRp166
(I1
(I1
tg67
(S'i8'
I0
I1
tRp167
(I3
S'<'
NNNI-1
I-1
I0
tbI00
S'\xff\xff\xff\xff\xff\xff\xff\xff'
tbsS'params'
p168
g79
((lp169
(lp170
S'-conv1_depth'
p171
aS'394.0'
p172
aa(lp173
S'-fc_depth'
p174
aS'266.0'
p175
aa(lp176
S'-filter_size'
p177
aS'5.0'
p178
aatRp179
sS'result'
p180
g66
(g68
S'\x00\x00\x00\x00\x80\x84.A'
tRp181
sS'duration'
p182
g66
(g68
S'+0du\xabg\xf0?'
tRp183
sS'test_error'
p184
Fnan
sa(dp185
S'status'
p186
I-1
sS'std'
p187
g66
(g68
S'\x00\x00\x00\x00\x00\x00\x00\x00'
tRp188
sS'instance_durations'
p189
g71
(g72
(I0
tS'b'
tRp190
(I1
(I1
tg67
(S'f8'
I0
I1
tRp191
(I3
S'<'
NNNI-1
I-1
I0
tbI00
S'\xc8$#ga\xcf\xf0?'
tbsS'instance_results'
p192
g71
(g72
(I0
tS'b'
tRp193
(I1
(I1
tg191
I00
S'\x00\x00\x00\x00\x80\x84.A'
tbsS'test_error'
p194
Fnan
sS'params'
p195
g79
((lp196
(lp197
S'-conv1_depth'
p198
aS'376.0'
p199
aa(lp200
S'-fc_depth'
p201
aS'417.0'
p202
aa(lp203
S'-filter_size'
p204
aS'7.0'
p205
aatRp206
sS'result'
p207
g66
(g68
S'\x00\x00\x00\x00\x80\x84.A'
tRp208
sS'duration'
p209
g66
(g68
S'\xc8$#ga\xcf\xf0?'
tRp210
sS'instance_status'
p211
g71
(g72
(I0
tS'b'
tRp212
(I1
(I1
tg67
(S'i8'
I0
I1
tRp213
(I3
S'<'
NNNI-1
I-1
I0
tbI00
S'\xff\xff\xff\xff\xff\xff\xff\xff'
tbsa(dp214
S'status'
p215
I-1
sS'std'
p216
g66
(g68
S'\x00\x00\x00\x00\x00\x00\x00\x00'
tRp217
sS'instance_durations'
p218
g71
(g72
(I0
tS'b'
tRp219
(I1
(I1
tg67
(S'f8'
I0
I1
tRp220
(I3
S'<'
NNNI-1
I-1
I0
tbI00
S'p\x06\x7f\xbf\x98\xad\xee?'
tbsS'instance_results'
p221
g71
(g72
(I0
tS'b'
tRp222
(I1
(I1
tg220
I00
S'\x00\x00\x00\x00\x80\x84.A'
tbsS'test_error'
p223
Fnan
sS'params'
p224
g79
((lp225
(lp226
S'-conv1_depth'
p227
aS'64.0'
p228
aa(lp229
S'-fc_depth'
p230
aS'288.0'
p231
aa(lp232
S'-filter_size'
p233
aS'10.0'
p234
aatRp235
sS'result'
p236
g66
(g68
S'\x00\x00\x00\x00\x80\x84.A'
tRp237
sS'duration'
p238
g66
(g68
S'p\x06\x7f\xbf\x98\xad\xee?'
tRp239
sS'instance_status'
p240
g71
(g72
(I0
tS'b'
tRp241
(I1
(I1
tg67
(S'i8'
I0
I1
tRp242
(I3
S'<'
NNNI-1
I-1
I0
tbI00
S'\xff\xff\xff\xff\xff\xff\xff\xff'
tbsa(dp243
S'status'
p244
I-1
sS'std'
p245
g66
(g68
S'\x00\x00\x00\x00\x00\x00\x00\x00'
tRp246
sS'instance_durations'
p247
g71
(g72
(I0
tS'b'
tRp248
(I1
(I1
tg67
(S'f8'
I0
I1
tRp249
(I3
S'<'
NNNI-1
I-1
I0
tbI00
S'\xcb\xdb\x11N\x0b\xde\xf0?'
tbsS'instance_results'
p250
g71
(g72
(I0
tS'b'
tRp251
(I1
(I1
tg249
I00
S'\x00\x00\x00\x00\x80\x84.A'
tbsS'instance_status'
p252
g71
(g72
(I0
tS'b'
tRp253
(I1
(I1
tg67
(S'i8'
I0
I1
tRp254
(I3
S'<'
NNNI-1
I-1
I0
tbI00
S'\xff\xff\xff\xff\xff\xff\xff\xff'
tbsS'params'
p255
g79
((lp256
(lp257
S'-conv1_depth'
p258
aS'38.0'
p259
aa(lp260
S'-fc_depth'
p261
aS'147.0'
p262
aa(lp263
S'-filter_size'
p264
aS'12.0'
p265
aatRp266
sS'result'
p267
g66
(g68
S'\x00\x00\x00\x00\x80\x84.A'
tRp268
sS'duration'
p269
g66
(g68
S'\xcb\xdb\x11N\x0b\xde\xf0?'
tRp270
sS'test_error'
p271
Fnan
sa(dp272
S'status'
p273
I-1
sS'std'
p274
g66
(g68
S'\x00\x00\x00\x00\x00\x00\x00\x00'
tRp275
sS'instance_durations'
p276
g71
(g72
(I0
tS'b'
tRp277
(I1
(I1
tg67
(S'f8'
I0
I1
tRp278
(I3
S'<'
NNNI-1
I-1
I0
tbI00
S';\xc2i\xc1\x8b\xbe\xf1?'
tbsS'instance_results'
p279
g71
(g72
(I0
tS'b'
tRp280
(I1
(I1
tg278
I00
S'\x00\x00\x00\x00\x80\x84.A'
tbsS'test_error'
p281
Fnan
sS'params'
p282
g79
((lp283
(lp284
S'-conv1_depth'
p285
aS'340.0'
p286
aa(lp287
S'-fc_depth'
p288
aS'196.0'
p289
aa(lp290
S'-filter_size'
p291
aS'9.0'
p292
aatRp293
sS'result'
p294
g66
(g68
S'\x00\x00\x00\x00\x80\x84.A'
tRp295
sS'duration'
p296
g66
(g68
S';\xc2i\xc1\x8b\xbe\xf1?'
tRp297
sS'instance_status'
p298
g71
(g72
(I0
tS'b'
tRp299
(I1
(I1
tg67
(S'i8'
I0
I1
tRp300
(I3
S'<'
NNNI-1
I-1
I0
tbI00
S'\xff\xff\xff\xff\xff\xff\xff\xff'
tbsa(dp301
S'status'
p302
I-1
sS'std'
p303
g66
(g68
S'\x00\x00\x00\x00\x00\x00\x00\x00'
tRp304
sS'instance_durations'
p305
g71
(g72
(I0
tS'b'
tRp306
(I1
(I1
tg67
(S'f8'
I0
I1
tRp307
(I3
S'<'
NNNI-1
I-1
I0
tbI00
S'k\x82\xa8\xfb\x00$\xf0?'
tbsS'instance_results'
p308
g71
(g72
(I0
tS'b'
tRp309
(I1
(I1
tg307
I00
S'\x00\x00\x00\x00\x80\x84.A'
tbsS'instance_status'
p310
g71
(g72
(I0
tS'b'
tRp311
(I1
(I1
tg67
(S'i8'
I0
I1
tRp312
(I3
S'<'
NNNI-1
I-1
I0
tbI00
S'\xff\xff\xff\xff\xff\xff\xff\xff'
tbsS'params'
p313
g79
((lp314
(lp315
S'-conv1_depth'
p316
aS'394.0'
p317
aa(lp318
S'-fc_depth'
p319
aS'491.0'
p320
aa(lp321
S'-filter_size'
p322
aS'5.0'
p323
aatRp324
sS'result'
p325
g66
(g68
S'\x00\x00\x00\x00\x80\x84.A'
tRp326
sS'duration'
p327
g66
(g68
S'k\x82\xa8\xfb\x00$\xf0?'
tRp328
sS'test_error'
p329
Fnan
sa(dp330
S'status'
p331
I-1
sS'std'
p332
g66
(g68
S'\x00\x00\x00\x00\x00\x00\x00\x00'
tRp333
sS'instance_durations'
p334
g71
(g72
(I0
tS'b'
tRp335
(I1
(I1
tg67
(S'f8'
I0
I1
tRp336
(I3
S'<'
NNNI-1
I-1
I0
tbI00
S'\xbe0\x99*\x18\x15\xf0?'
tbsS'instance_results'
p337
g71
(g72
(I0
tS'b'
tRp338
(I1
(I1
tg336
I00
S'\x00\x00\x00\x00\x80\x84.A'
tbsS'instance_status'
p339
g71
(g72
(I0
tS'b'
tRp340
(I1
(I1
tg67
(S'i8'
I0
I1
tRp341
(I3
S'<'
NNNI-1
I-1
I0
tbI00
S'\xff\xff\xff\xff\xff\xff\xff\xff'
tbsS'params'
p342
g79
((lp343
(lp344
S'-conv1_depth'
p345
aS'284.0'
p346
aa(lp347
S'-fc_depth'
p348
aS'191.0'
p349
aa(lp350
S'-filter_size'
p351
aS'12.0'
p352
aatRp353
sS'result'
p354
g66
(g68
S'\x00\x00\x00\x00\x80\x84.A'
tRp355
sS'duration'
p356
g66
(g68
S'\xbe0\x99*\x18\x15\xf0?'
tRp357
sS'test_error'
p358
Fnan
sa(dp359
S'status'
p360
I-1
sS'std'
p361
g66
(g68
S'\x00\x00\x00\x00\x00\x00\x00\x00'
tRp362
sS'instance_durations'
p363
g71
(g72
(I0
tS'b'
tRp364
(I1
(I1
tg67
(S'f8'
I0
I1
tRp365
(I3
S'<'
NNNI-1
I-1
I0
tbI00
S'IK\xe5\xed\x08\xa7\xf0?'
tbsS'instance_results'
p366
g71
(g72
(I0
tS'b'
tRp367
(I1
(I1
tg365
I00
S'\x00\x00\x00\x00\x80\x84.A'
tbsS'test_error'
p368
Fnan
sS'params'
p369
g79
((lp370
(lp371
S'-conv1_depth'
p372
aS'210.0'
p373
aa(lp374
S'-fc_depth'
p375
aS'231.0'
p376
aa(lp377
S'-filter_size'
p378
aS'4.0'
p379
aatRp380
sS'result'
p381
g66
(g68
S'\x00\x00\x00\x00\x80\x84.A'
tRp382
sS'duration'
p383
g66
(g68
S'IK\xe5\xed\x08\xa7\xf0?'
tRp384
sS'instance_status'
p385
g71
(g72
(I0
tS'b'
tRp386
(I1
(I1
tg67
(S'i8'
I0
I1
tRp387
(I3
S'<'
NNNI-1
I-1
I0
tbI00
S'\xff\xff\xff\xff\xff\xff\xff\xff'
tbsa(dp388
S'status'
p389
I-1
sS'std'
p390
g66
(g68
S'\x00\x00\x00\x00\x00\x00\x00\x00'
tRp391
sS'instance_durations'
p392
g71
(g72
(I0
tS'b'
tRp393
(I1
(I1
tg67
(S'f8'
I0
I1
tRp394
(I3
S'<'
NNNI-1
I-1
I0
tbI00
S'\x9c\x88~m\xfdt\xee?'
tbsS'instance_results'
p395
g71
(g72
(I0
tS'b'
tRp396
(I1
(I1
tg394
I00
S'\x00\x00\x00\x00\x80\x84.A'
tbsS'instance_status'
p397
g71
(g72
(I0
tS'b'
tRp398
(I1
(I1
tg67
(S'i8'
I0
I1
tRp399
(I3
S'<'
NNNI-1
I-1
I0
tbI00
S'\xff\xff\xff\xff\xff\xff\xff\xff'
tbsS'params'
p400
g79
((lp401
(lp402
S'-conv1_depth'
p403
aS'48.0'
p404
aa(lp405
S'-fc_depth'
p406
aS'400.0'
p407
aa(lp408
S'-filter_size'
p409
aS'2.0'
p410
aatRp411
sS'result'
p412
g66
(g68
S'\x00\x00\x00\x00\x80\x84.A'
tRp413
sS'duration'
p414
g66
(g68
S'\x9c\x88~m\xfdt\xee?'
tRp415
sS'test_error'
p416
Fnan
sa(dp417
S'status'
p418
I-1
sS'std'
p419
g66
(g68
S'\x00\x00\x00\x00\x00\x00\x00\x00'
tRp420
sS'instance_durations'
p421
g71
(g72
(I0
tS'b'
tRp422
(I1
(I1
tg67
(S'f8'
I0
I1
tRp423
(I3
S'<'
NNNI-1
I-1
I0
tbI00
S'\x04\xe3\xe0\xd21g\xee?'
tbsS'instance_results'
p424
g71
(g72
(I0
tS'b'
tRp425
(I1
(I1
tg423
I00
S'\x00\x00\x00\x00\x80\x84.A'
tbsS'test_error'
p426
Fnan
sS'params'
p427
g79
((lp428
(lp429
S'-conv1_depth'
p430
aS'120.0'
p431
aa(lp432
S'-fc_depth'
p433
aS'159.0'
p434
aa(lp435
S'-filter_size'
p436
aS'7.0'
p437
aatRp438
sS'result'
p439
g66
(g68
S'\x00\x00\x00\x00\x80\x84.A'
tRp440
sS'duration'
p441
g66
(g68
S'\x04\xe3\xe0\xd21g\xee?'
tRp442
sS'instance_status'
p443
g71
(g72
(I0
tS'b'
tRp444
(I1
(I1
tg67
(S'i8'
I0
I1
tRp445
(I3
S'<'
NNNI-1
I-1
I0
tbI00
S'\xff\xff\xff\xff\xff\xff\xff\xff'
tbsa(dp446
S'status'
p447
I-1
sS'std'
p448
g66
(g68
S'\x00\x00\x00\x00\x00\x00\x00\x00'
tRp449
sS'instance_durations'
p450
g71
(g72
(I0
tS'b'
tRp451
(I1
(I1
tg67
(S'f8'
I0
I1
tRp452
(I3
S'<'
NNNI-1
I-1
I0
tbI00
S'\xc5\xae\xed\xed\x96d\xee?'
tbsS'instance_results'
p453
g71
(g72
(I0
tS'b'
tRp454
(I1
(I1
tg452
I00
S'\x00\x00\x00\x00\x80\x84.A'
tbsS'test_error'
p455
Fnan
sS'params'
p456
g79
((lp457
(lp458
S'-conv1_depth'
p459
aS'488.0'
p460
aa(lp461
S'-fc_depth'
p462
aS'308.0'
p463
aa(lp464
S'-filter_size'
p465
aS'10.0'
p466
aatRp467
sS'result'
p468
g66
(g68
S'\x00\x00\x00\x00\x80\x84.A'
tRp469
sS'duration'
p470
g66
(g68
S'\xc5\xae\xed\xed\x96d\xee?'
tRp471
sS'instance_status'
p472
g71
(g72
(I0
tS'b'
tRp473
(I1
(I1
tg67
(S'i8'
I0
I1
tRp474
(I3
S'<'
NNNI-1
I-1
I0
tbI00
S'\xff\xff\xff\xff\xff\xff\xff\xff'
tbsa(dp475
S'status'
p476
I-1
sS'std'
p477
g66
(g68
S'\x00\x00\x00\x00\x00\x00\x00\x00'
tRp478
sS'instance_durations'
p479
g71
(g72
(I0
tS'b'
tRp480
(I1
(I1
tg67
(S'f8'
I0
I1
tRp481
(I3
S'<'
NNNI-1
I-1
I0
tbI00
S'\xf85\x92\x04\xe1\x8a\xee?'
tbsS'instance_results'
p482
g71
(g72
(I0
tS'b'
tRp483
(I1
(I1
tg481
I00
S'\x00\x00\x00\x00\x80\x84.A'
tbsS'instance_status'
p484
g71
(g72
(I0
tS'b'
tRp485
(I1
(I1
tg67
(S'i8'
I0
I1
tRp486
(I3
S'<'
NNNI-1
I-1
I0
tbI00
S'\xff\xff\xff\xff\xff\xff\xff\xff'
tbsS'params'
p487
g79
((lp488
(lp489
S'-conv1_depth'
p490
aS'100.0'
p491
aa(lp492
S'-fc_depth'
p493
aS'238.0'
p494
aa(lp495
S'-filter_size'
p496
aS'13.0'
p497
aatRp498
sS'result'
p499
g66
(g68
S'\x00\x00\x00\x00\x80\x84.A'
tRp500
sS'duration'
p501
g66
(g68
S'\xf85\x92\x04\xe1\x8a\xee?'
tRp502
sS'test_error'
p503
Fnan
sa(dp504
S'status'
p505
I-1
sS'std'
p506
g66
(g68
S'\x00\x00\x00\x00\x00\x00\x00\x00'
tRp507
sS'instance_durations'
p508
g71
(g72
(I0
tS'b'
tRp509
(I1
(I1
tg67
(S'f8'
I0
I1
tRp510
(I3
S'<'
NNNI-1
I-1
I0
tbI00
S'4\xd7i\xa4\xa5\xf2\xf0?'
tbsS'instance_results'
p511
g71
(g72
(I0
tS'b'
tRp512
(I1
(I1
tg510
I00
S'\x00\x00\x00\x00\x80\x84.A'
tbsS'test_error'
p513
Fnan
sS'params'
p514
g79
((lp515
(lp516
S'-conv1_depth'
p517
aS'484.0'
p518
aa(lp519
S'-fc_depth'
p520
aS'440.0'
p521
aa(lp522
S'-filter_size'
p523
aS'6.0'
p524
aatRp525
sS'result'
p526
g66
(g68
S'\x00\x00\x00\x00\x80\x84.A'
tRp527
sS'duration'
p528
g66
(g68
S'4\xd7i\xa4\xa5\xf2\xf0?'
tRp529
sS'instance_status'
p530
g71
(g72
(I0
tS'b'
tRp531
(I1
(I1
tg67
(S'i8'
I0
I1
tRp532
(I3
S'<'
NNNI-1
I-1
I0
tbI00
S'\xff\xff\xff\xff\xff\xff\xff\xff'
tbsa(dp533
S'status'
p534
I-1
sS'std'
p535
g66
(g68
S'\x00\x00\x00\x00\x00\x00\x00\x00'
tRp536
sS'instance_durations'
p537
g71
(g72
(I0
tS'b'
tRp538
(I1
(I1
tg67
(S'f8'
I0
I1
tRp539
(I3
S'<'
NNNI-1
I-1
I0
tbI00
S'\xed\xf5\xee\x8f\xf7\xaa\xf0?'
tbsS'instance_results'
p540
g71
(g72
(I0
tS'b'
tRp541
(I1
(I1
tg539
I00
S'\x00\x00\x00\x00\x80\x84.A'
tbsS'instance_status'
p542
g71
(g72
(I0
tS'b'
tRp543
(I1
(I1
tg67
(S'i8'
I0
I1
tRp544
(I3
S'<'
NNNI-1
I-1
I0
tbI00
S'\xff\xff\xff\xff\xff\xff\xff\xff'
tbsS'params'
p545
g79
((lp546
(lp547
S'-conv1_depth'
p548
aS'420.0'
p549
aa(lp550
S'-fc_depth'
p551
aS'409.0'
p552
aa(lp553
S'-filter_size'
p554
aS'8.0'
p555
aatRp556
sS'result'
p557
g66
(g68
S'\x00\x00\x00\x00\x80\x84.A'
tRp558
sS'duration'
p559
g66
(g68
S'\xed\xf5\xee\x8f\xf7\xaa\xf0?'
tRp560
sS'test_error'
p561
Fnan
sa(dp562
S'status'
p563
I-1
sS'std'
p564
g66
(g68
S'\x00\x00\x00\x00\x00\x00\x00\x00'
tRp565
sS'instance_durations'
p566
g71
(g72
(I0
tS'b'
tRp567
(I1
(I1
tg67
(S'f8'
I0
I1
tRp568
(I3
S'<'
NNNI-1
I-1
I0
tbI00
S'\xb6g\x96\x04\xa8\xa9\xf1?'
tbsS'instance_results'
p569
g71
(g72
(I0
tS'b'
tRp570
(I1
(I1
tg568
I00
S'\x00\x00\x00\x00\x80\x84.A'
tbsS'instance_status'
p571
g71
(g72
(I0
tS'b'
tRp572
(I1
(I1
tg67
(S'i8'
I0
I1
tRp573
(I3
S'<'
NNNI-1
I-1
I0
tbI00
S'\xff\xff\xff\xff\xff\xff\xff\xff'
tbsS'params'
p574
g79
((lp575
(lp576
S'-conv1_depth'
p577
aS'404.0'
p578
aa(lp579
S'-fc_depth'
p580
aS'29.0'
p581
aa(lp582
S'-filter_size'
p583
aS'6.0'
p584
aatRp585
sS'result'
p586
g66
(g68
S'\x00\x00\x00\x00\x80\x84.A'
tRp587
sS'duration'
p588
g66
(g68
S'\xb6g\x96\x04\xa8\xa9\xf1?'
tRp589
sS'test_error'
p590
Fnan
sa(dp591
S'status'
p592
I-1
sS'std'
p593
g66
(g68
S'\x00\x00\x00\x00\x00\x00\x00\x00'
tRp594
sS'instance_durations'
p595
g71
(g72
(I0
tS'b'
tRp596
(I1
(I1
tg67
(S'f8'
I0
I1
tRp597
(I3
S'<'
NNNI-1
I-1
I0
tbI00
S'\x8c-\x049(\xe1\xf0?'
tbsS'instance_results'
p598
g71
(g72
(I0
tS'b'
tRp599
(I1
(I1
tg597
I00
S'\x00\x00\x00\x00\x80\x84.A'
tbsS'test_error'
p600
Fnan
sS'params'
p601
g79
((lp602
(lp603
S'-conv1_depth'
p604
aS'346.0'
p605
aa(lp606
S'-fc_depth'
p607
aS'25.0'
p608
aa(lp609
S'-filter_size'
p610
aS'4.0'
p611
aatRp612
sS'result'
p613
g66
(g68
S'\x00\x00\x00\x00\x80\x84.A'
tRp614
sS'duration'
p615
g66
(g68
S'\x8c-\x049(\xe1\xf0?'
tRp616
sS'instance_status'
p617
g71
(g72
(I0
tS'b'
tRp618
(I1
(I1
tg67
(S'i8'
I0
I1
tRp619
(I3
S'<'
NNNI-1
I-1
I0
tbI00
S'\xff\xff\xff\xff\xff\xff\xff\xff'
tbsa(dp620
S'status'
p621
I-1
sS'std'
p622
g66
(g68
S'\x00\x00\x00\x00\x00\x00\x00\x00'
tRp623
sS'instance_durations'
p624
g71
(g72
(I0
tS'b'
tRp625
(I1
(I1
tg67
(S'f8'
I0
I1
tRp626
(I3
S'<'
NNNI-1
I-1
I0
tbI00
S'i\xc6\xa2\xe9\xecd\xf0?'
tbsS'instance_results'
p627
g71
(g72
(I0
tS'b'
tRp628
(I1
(I1
tg626
I00
S'\x00\x00\x00\x00\x80\x84.A'
tbsS'instance_status'
p629
g71
(g72
(I0
tS'b'
tRp630
(I1
(I1
tg67
(S'i8'
I0
I1
tRp631
(I3
S'<'
NNNI-1
I-1
I0
tbI00
S'\xff\xff\xff\xff\xff\xff\xff\xff'
tbsS'params'
p632
g79
((lp633
(lp634
S'-conv1_depth'
p635
aS'376.0'
p636
aa(lp637
S'-fc_depth'
p638
aS'487.0'
p639
aa(lp640
S'-filter_size'
p641
aS'6.0'
p642
aatRp643
sS'result'
p644
g66
(g68
S'\x00\x00\x00\x00\x80\x84.A'
tRp645
sS'duration'
p646
g66
(g68
S'i\xc6\xa2\xe9\xecd\xf0?'
tRp647
sS'test_error'
p648
Fnan
sa(dp649
S'status'
p650
I-1
sS'std'
p651
g66
(g68
S'\x00\x00\x00\x00\x00\x00\x00\x00'
tRp652
sS'instance_durations'
p653
g71
(g72
(I0
tS'b'
tRp654
(I1
(I1
tg67
(S'f8'
I0
I1
tRp655
(I3
S'<'
NNNI-1
I-1
I0
tbI00
S'\xf8\xc2d\xaa`T\xf0?'
tbsS'instance_results'
p656
g71
(g72
(I0
tS'b'
tRp657
(I1
(I1
tg655
I00
S'\x00\x00\x00\x00\x80\x84.A'
tbsS'instance_status'
p658
g71
(g72
(I0
tS'b'
tRp659
(I1
(I1
tg67
(S'i8'
I0
I1
tRp660
(I3
S'<'
NNNI-1
I-1
I0
tbI00
S'\xff\xff\xff\xff\xff\xff\xff\xff'
tbsS'params'
p661
g79
((lp662
(lp663
S'-conv1_depth'
p664
aS'278.0'
p665
aa(lp666
S'-fc_depth'
p667
aS'30.0'
p668
aa(lp669
S'-filter_size'
p670
aS'1.0'
p671
aatRp672
sS'result'
p673
g66
(g68
S'\x00\x00\x00\x00\x80\x84.A'
tRp674
sS'duration'
p675
g66
(g68
S'\xf8\xc2d\xaa`T\xf0?'
tRp676
sS'test_error'
p677
Fnan
sa(dp678
S'status'
p679
I-1
sS'std'
p680
g66
(g68
S'\x00\x00\x00\x00\x00\x00\x00\x00'
tRp681
sS'instance_durations'
p682
g71
(g72
(I0
tS'b'
tRp683
(I1
(I1
tg67
(S'f8'
I0
I1
tRp684
(I3
S'<'
NNNI-1
I-1
I0
tbI00
S'B]\xa4P\x16>\xef?'
tbsS'instance_results'
p685
g71
(g72
(I0
tS'b'
tRp686
(I1
(I1
tg684
I00
S'\x00\x00\x00\x00\x80\x84.A'
tbsS'test_error'
p687
Fnan
sS'params'
p688
g79
((lp689
(lp690
S'-conv1_depth'
p691
aS'320.0'
p692
aa(lp693
S'-fc_depth'
p694
aS'104.0'
p695
aa(lp696
S'-filter_size'
p697
aS'3.0'
p698
aatRp699
sS'result'
p700
g66
(g68
S'\x00\x00\x00\x00\x80\x84.A'
tRp701
sS'duration'
p702
g66
(g68
S'B]\xa4P\x16>\xef?'
tRp703
sS'instance_status'
p704
g71
(g72
(I0
tS'b'
tRp705
(I1
(I1
tg67
(S'i8'
I0
I1
tRp706
(I3
S'<'
NNNI-1
I-1
I0
tbI00
S'\xff\xff\xff\xff\xff\xff\xff\xff'
tbsa(dp707
S'status'
p708
I-1
sS'std'
p709
g66
(g68
S'\x00\x00\x00\x00\x00\x00\x00\x00'
tRp710
sS'instance_durations'
p711
g71
(g72
(I0
tS'b'
tRp712
(I1
(I1
tg67
(S'f8'
I0
I1
tRp713
(I3
S'<'
NNNI-1
I-1
I0
tbI00
S"L\xfe'\x7f\xf7\x8e\xee?"
tbsS'instance_results'
p714
g71
(g72
(I0
tS'b'
tRp715
(I1
(I1
tg713
I00
S'\x00\x00\x00\x00\x80\x84.A'
tbsS'instance_status'
p716
g71
(g72
(I0
tS'b'
tRp717
(I1
(I1
tg67
(S'i8'
I0
I1
tRp718
(I3
S'<'
NNNI-1
I-1
I0
tbI00
S'\xff\xff\xff\xff\xff\xff\xff\xff'
tbsS'params'
p719
g79
((lp720
(lp721
S'-conv1_depth'
p722
aS'454.0'
p723
aa(lp724
S'-fc_depth'
p725
aS'510.0'
p726
aa(lp727
S'-filter_size'
p728
aS'9.0'
p729
aatRp730
sS'result'
p731
g66
(g68
S'\x00\x00\x00\x00\x80\x84.A'
tRp732
sS'duration'
p733
g66
(g68
S"L\xfe'\x7f\xf7\x8e\xee?"
tRp734
sS'test_error'
p735
Fnan
sa(dp736
S'status'
p737
I-1
sS'std'
p738
g66
(g68
S'\x00\x00\x00\x00\x00\x00\x00\x00'
tRp739
sS'instance_durations'
p740
g71
(g72
(I0
tS'b'
tRp741
(I1
(I1
tg67
(S'f8'
I0
I1
tRp742
(I3
S'<'
NNNI-1
I-1
I0
tbI00
S'S\xd0\xed%\x8d\xd1\xf0?'
tbsS'instance_results'
p743
g71
(g72
(I0
tS'b'
tRp744
(I1
(I1
tg742
I00
S'\x00\x00\x00\x00\x80\x84.A'
tbsS'test_error'
p745
Fnan
sS'params'
p746
g79
((lp747
(lp748
S'-conv1_depth'
p749
aS'246.0'
p750
aa(lp751
S'-fc_depth'
p752
aS'81.0'
p753
aa(lp754
S'-filter_size'
p755
aS'1.0'
p756
aatRp757
sS'result'
p758
g66
(g68
S'\x00\x00\x00\x00\x80\x84.A'
tRp759
sS'duration'
p760
g66
(g68
S'S\xd0\xed%\x8d\xd1\xf0?'
tRp761
sS'instance_status'
p762
g71
(g72
(I0
tS'b'
tRp763
(I1
(I1
tg67
(S'i8'
I0
I1
tRp764
(I3
S'<'
NNNI-1
I-1
I0
tbI00
S'\xff\xff\xff\xff\xff\xff\xff\xff'
tbsa(dp765
S'status'
p766
I-1
sS'std'
p767
g66
(g68
S'\x00\x00\x00\x00\x00\x00\x00\x00'
tRp768
sS'instance_durations'
p769
g71
(g72
(I0
tS'b'
tRp770
(I1
(I1
tg67
(S'f8'
I0
I1
tRp771
(I3
S'<'
NNNI-1
I-1
I0
tbI00
S'\x03\xec\xa3SW\xbe\xf1?'
tbsS'instance_results'
p772
g71
(g72
(I0
tS'b'
tRp773
(I1
(I1
tg771
I00
S'\x00\x00\x00\x00\x80\x84.A'
tbsS'test_error'
p774
Fnan
sS'params'
p775
g79
((lp776
(lp777
S'-conv1_depth'
p778
aS'316.0'
p779
aa(lp780
S'-fc_depth'
p781
aS'120.0'
p782
aa(lp783
S'-filter_size'
p784
aS'3.0'
p785
aatRp786
sS'result'
p787
g66
(g68
S'\x00\x00\x00\x00\x80\x84.A'
tRp788
sS'duration'
p789
g66
(g68
S'\x03\xec\xa3SW\xbe\xf1?'
tRp790
sS'instance_status'
p791
g71
(g72
(I0
tS'b'
tRp792
(I1
(I1
tg67
(S'i8'
I0
I1
tRp793
(I3
S'<'
NNNI-1
I-1
I0
tbI00
S'\xff\xff\xff\xff\xff\xff\xff\xff'
tbsa(dp794
S'status'
p795
I-1
sS'std'
p796
g66
(g68
S'\x00\x00\x00\x00\x00\x00\x00\x00'
tRp797
sS'instance_durations'
p798
g71
(g72
(I0
tS'b'
tRp799
(I1
(I1
tg67
(S'f8'
I0
I1
tRp800
(I3
S'<'
NNNI-1
I-1
I0
tbI00
S"\xaf'\xba.\xfc\xe0\xee?"
tbsS'instance_results'
p801
g71
(g72
(I0
tS'b'
tRp802
(I1
(I1
tg800
I00
S'\x00\x00\x00\x00\x80\x84.A'
tbsS'instance_status'
p803
g71
(g72
(I0
tS'b'
tRp804
(I1
(I1
tg67
(S'i8'
I0
I1
tRp805
(I3
S'<'
NNNI-1
I-1
I0
tbI00
S'\xff\xff\xff\xff\xff\xff\xff\xff'
tbsS'params'
p806
g79
((lp807
(lp808
S'-conv1_depth'
p809
aS'450.0'
p810
aa(lp811
S'-fc_depth'
p812
aS'455.0'
p813
aa(lp814
S'-filter_size'
p815
aS'9.0'
p816
aatRp817
sS'result'
p818
g66
(g68
S'\x00\x00\x00\x00\x80\x84.A'
tRp819
sS'duration'
p820
g66
(g68
S"\xaf'\xba.\xfc\xe0\xee?"
tRp821
sS'test_error'
p822
Fnan
sa(dp823
S'status'
p824
I-1
sS'std'
p825
g66
(g68
S'\x00\x00\x00\x00\x00\x00\x00\x00'
tRp826
sS'instance_durations'
p827
g71
(g72
(I0
tS'b'
tRp828
(I1
(I1
tg67
(S'f8'
I0
I1
tRp829
(I3
S'<'
NNNI-1
I-1
I0
tbI00
S'\x8b\xc1\xc3\xb4on\xee?'
tbsS'instance_results'
p830
g71
(g72
(I0
tS'b'
tRp831
(I1
(I1
tg829
I00
S'\x00\x00\x00\x00\x80\x84.A'
tbsS'test_error'
p832
Fnan
sS'params'
p833
g79
((lp834
(lp835
S'-conv1_depth'
p836
aS'214.0'
p837
aa(lp838
S'-fc_depth'
p839
aS'93.0'
p840
aa(lp841
S'-filter_size'
p842
aS'11.0'
p843
aatRp844
sS'result'
p845
g66
(g68
S'\x00\x00\x00\x00\x80\x84.A'
tRp846
sS'duration'
p847
g66
(g68
S'\x8b\xc1\xc3\xb4on\xee?'
tRp848
sS'instance_status'
p849
g71
(g72
(I0
tS'b'
tRp850
(I1
(I1
tg67
(S'i8'
I0
I1
tRp851
(I3
S'<'
NNNI-1
I-1
I0
tbI00
S'\xff\xff\xff\xff\xff\xff\xff\xff'
tbsa(dp852
S'status'
p853
I-1
sS'std'
p854
g66
(g68
S'\x00\x00\x00\x00\x00\x00\x00\x00'
tRp855
sS'instance_durations'
p856
g71
(g72
(I0
tS'b'
tRp857
(I1
(I1
tg67
(S'f8'
I0
I1
tRp858
(I3
S'<'
NNNI-1
I-1
I0
tbI00
S'\xaeG\xe1z\x14.\xf0?'
tbsS'instance_results'
p859
g71
(g72
(I0
tS'b'
tRp860
(I1
(I1
tg858
I00
S'\x00\x00\x00\x00\x80\x84.A'
tbsS'instance_status'
p861
g71
(g72
(I0
tS'b'
tRp862
(I1
(I1
tg67
(S'i8'
I0
I1
tRp863
(I3
S'<'
NNNI-1
I-1
I0
tbI00
S'\xff\xff\xff\xff\xff\xff\xff\xff'
tbsS'params'
p864
g79
((lp865
(lp866
S'-conv1_depth'
p867
aS'170.0'
p868
aa(lp869
S'-fc_depth'
p870
aS'350.0'
p871
aa(lp872
S'-filter_size'
p873
aS'8.0'
p874
aatRp875
sS'result'
p876
g66
(g68
S'\x00\x00\x00\x00\x80\x84.A'
tRp877
sS'duration'
p878
g66
(g68
S'\xaeG\xe1z\x14.\xf0?'
tRp879
sS'test_error'
p880
Fnan
sa(dp881
S'status'
p882
I-1
sS'std'
p883
g66
(g68
S'\x00\x00\x00\x00\x00\x00\x00\x00'
tRp884
sS'instance_durations'
p885
g71
(g72
(I0
tS'b'
tRp886
(I1
(I1
tg67
(S'f8'
I0
I1
tRp887
(I3
S'<'
NNNI-1
I-1
I0
tbI00
S'p\n+\x15TT\xef?'
tbsS'instance_results'
p888
g71
(g72
(I0
tS'b'
tRp889
(I1
(I1
tg887
I00
S'\x00\x00\x00\x00\x80\x84.A'
tbsS'instance_status'
p890
g71
(g72
(I0
tS'b'
tRp891
(I1
(I1
tg67
(S'i8'
I0
I1
tRp892
(I3
S'<'
NNNI-1
I-1
I0
tbI00
S'\xff\xff\xff\xff\xff\xff\xff\xff'
tbsS'params'
p893
g79
((lp894
(lp895
S'-conv1_depth'
p896
aS'508.0'
p897
aa(lp898
S'-fc_depth'
p899
aS'461.0'
p900
aa(lp901
S'-filter_size'
p902
aS'9.0'
p903
aatRp904
sS'result'
p905
g66
(g68
S'\x00\x00\x00\x00\x80\x84.A'
tRp906
sS'duration'
p907
g66
(g68
S'p\n+\x15TT\xef?'
tRp908
sS'test_error'
p909
Fnan
sa(dp910
S'status'
p911
I-1
sS'std'
p912
g66
(g68
S'\x00\x00\x00\x00\x00\x00\x00\x00'
tRp913
sS'instance_durations'
p914
g71
(g72
(I0
tS'b'
tRp915
(I1
(I1
tg67
(S'f8'
I0
I1
tRp916
(I3
S'<'
NNNI-1
I-1
I0
tbI00
S'\xb9\x1c\xaf@\xf4\xa4\xee?'
tbsS'instance_results'
p917
g71
(g72
(I0
tS'b'
tRp918
(I1
(I1
tg916
I00
S'\x00\x00\x00\x00\x80\x84.A'
tbsS'test_error'
p919
Fnan
sS'params'
p920
g79
((lp921
(lp922
S'-conv1_depth'
p923
aS'224.0'
p924
aa(lp925
S'-fc_depth'
p926
aS'84.0'
p927
aa(lp928
S'-filter_size'
p929
aS'11.0'
p930
aatRp931
sS'result'
p932
g66
(g68
S'\x00\x00\x00\x00\x80\x84.A'
tRp933
sS'duration'
p934
g66
(g68
S'\xb9\x1c\xaf@\xf4\xa4\xee?'
tRp935
sS'instance_status'
p936
g71
(g72
(I0
tS'b'
tRp937
(I1
(I1
tg67
(S'i8'
I0
I1
tRp938
(I3
S'<'
NNNI-1
I-1
I0
tbI00
S'\xff\xff\xff\xff\xff\xff\xff\xff'
tbsa(dp939
S'status'
p940
I-1
sS'std'
p941
g66
(g68
S'\x00\x00\x00\x00\x00\x00\x00\x00'
tRp942
sS'instance_durations'
p943
g71
(g72
(I0
tS'b'
tRp944
(I1
(I1
tg67
(S'f8'
I0
I1
tRp945
(I3
S'<'
NNNI-1
I-1
I0
tbI00
S'\xfa\xf2\x02\xec\xa3S\xf0?'
tbsS'instance_results'
p946
g71
(g72
(I0
tS'b'
tRp947
(I1
(I1
tg945
I00
S'\x00\x00\x00\x00\x80\x84.A'
tbsS'instance_status'
p948
g71
(g72
(I0
tS'b'
tRp949
(I1
(I1
tg67
(S'i8'
I0
I1
tRp950
(I3
S'<'
NNNI-1
I-1
I0
tbI00
S'\xff\xff\xff\xff\xff\xff\xff\xff'
tbsS'params'
p951
g79
((lp952
(lp953
S'-conv1_depth'
p954
aS'182.0'
p955
aa(lp956
S'-fc_depth'
p957
aS'360.0'
p958
aa(lp959
S'-filter_size'
p960
aS'7.0'
p961
aatRp962
sS'result'
p963
g66
(g68
S'\x00\x00\x00\x00\x80\x84.A'
tRp964
sS'duration'
p965
g66
(g68
S'\xfa\xf2\x02\xec\xa3S\xf0?'
tRp966
sS'test_error'
p967
Fnan
sa(dp968
S'status'
p969
I-1
sS'std'
p970
g66
(g68
S'\x00\x00\x00\x00\x00\x00\x00\x00'
tRp971
sS'instance_durations'
p972
g71
(g72
(I0
tS'b'
tRp973
(I1
(I1
tg67
(S'f8'
I0
I1
tRp974
(I3
S'<'
NNNI-1
I-1
I0
tbI00
S'\xc0\xb4\xa8Or\x87\xee?'
tbsS'instance_results'
p975
g71
(g72
(I0
tS'b'
tRp976
(I1
(I1
tg974
I00
S'\x00\x00\x00\x00\x80\x84.A'
tbsS'test_error'
p977
Fnan
sS'params'
p978
g79
((lp979
(lp980
S'-conv1_depth'
p981
aS'506.0'
p982
aa(lp983
S'-fc_depth'
p984
aS'364.0'
p985
aa(lp986
S'-filter_size'
p987
aS'14.0'
p988
aatRp989
sS'result'
p990
g66
(g68
S'\x00\x00\x00\x00\x80\x84.A'
tRp991
sS'duration'
p992
g66
(g68
S'\xc0\xb4\xa8Or\x87\xee?'
tRp993
sS'instance_status'
p994
g71
(g72
(I0
tS'b'
tRp995
(I1
(I1
tg67
(S'i8'
I0
I1
tRp996
(I3
S'<'
NNNI-1
I-1
I0
tbI00
S'\xff\xff\xff\xff\xff\xff\xff\xff'
tbsa(dp997
S'status'
p998
I-1
sS'std'
p999
g66
(g68
S'\x00\x00\x00\x00\x00\x00\x00\x00'
tRp1000
sS'instance_durations'
p1001
g71
(g72
(I0
tS'b'
tRp1002
(I1
(I1
tg67
(S'f8'
I0
I1
tRp1003
(I3
S'<'
NNNI-1
I-1
I0
tbI00
S'\x84d\x01\x13\xb8u\xf1?'
tbsS'instance_results'
p1004
g71
(g72
(I0
tS'b'
tRp1005
(I1
(I1
tg1003
I00
S'\x00\x00\x00\x00\x80\x84.A'
tbsS'test_error'
p1006
Fnan
sS'params'
p1007
g79
((lp1008
(lp1009
S'-conv1_depth'
p1010
aS'234.0'
p1011
aa(lp1012
S'-fc_depth'
p1013
aS'323.0'
p1014
aa(lp1015
S'-filter_size'
p1016
aS'11.0'
p1017
aatRp1018
sS'result'
p1019
g66
(g68
S'\x00\x00\x00\x00\x80\x84.A'
tRp1020
sS'duration'
p1021
g66
(g68
S'\x84d\x01\x13\xb8u\xf1?'
tRp1022
sS'instance_status'
p1023
g71
(g72
(I0
tS'b'
tRp1024
(I1
(I1
tg67
(S'i8'
I0
I1
tRp1025
(I3
S'<'
NNNI-1
I-1
I0
tbI00
S'\xff\xff\xff\xff\xff\xff\xff\xff'
tbsa(dp1026
S'status'
p1027
I-1
sS'std'
p1028
g66
(g68
S'\x00\x00\x00\x00\x00\x00\x00\x00'
tRp1029
sS'instance_durations'
p1030
g71
(g72
(I0
tS'b'
tRp1031
(I1
(I1
tg67
(S'f8'
I0
I1
tRp1032
(I3
S'<'
NNNI-1
I-1
I0
tbI00
S'g\x9d\xf1}q)\xee?'
tbsS'instance_results'
p1033
g71
(g72
(I0
tS'b'
tRp1034
(I1
(I1
tg1032
I00
S'\x00\x00\x00\x00\x80\x84.A'
tbsS'instance_status'
p1035
g71
(g72
(I0
tS'b'
tRp1036
(I1
(I1
tg67
(S'i8'
I0
I1
tRp1037
(I3
S'<'
NNNI-1
I-1
I0
tbI00
S'\xff\xff\xff\xff\xff\xff\xff\xff'
tbsS'params'
p1038
g79
((lp1039
(lp1040
S'-conv1_depth'
p1041
aS'164.0'
p1042
aa(lp1043
S'-fc_depth'
p1044
aS'366.0'
p1045
aa(lp1046
S'-filter_size'
p1047
aS'7.0'
p1048
aatRp1049
sS'result'
p1050
g66
(g68
S'\x00\x00\x00\x00\x80\x84.A'
tRp1051
sS'duration'
p1052
g66
(g68
S'g\x9d\xf1}q)\xee?'
tRp1053
sS'test_error'
p1054
Fnan
sa(dp1055
S'status'
p1056
I-1
sS'std'
p1057
g66
(g68
S'\x00\x00\x00\x00\x00\x00\x00\x00'
tRp1058
sS'instance_durations'
p1059
g71
(g72
(I0
tS'b'
tRp1060
(I1
(I1
tg67
(S'f8'
I0
I1
tRp1061
(I3
S'<'
NNNI-1
I-1
I0
tbI00
S'\xcf\xf4\x12c\x99~\xee?'
tbsS'instance_results'
p1062
g71
(g72
(I0
tS'b'
tRp1063
(I1
(I1
tg1061
I00
S'\x00\x00\x00\x00\x80\x84.A'
tbsS'test_error'
p1064
Fnan
sS'params'
p1065
g79
((lp1066
(lp1067
S'-conv1_depth'
p1068
aS'438.0'
p1069
aa(lp1070
S'-fc_depth'
p1071
aS'273.0'
p1072
aa(lp1073
S'-filter_size'
p1074
aS'13.0'
p1075
aatRp1076
sS'result'
p1077
g66
(g68
S'\x00\x00\x00\x00\x80\x84.A'
tRp1078
sS'duration'
p1079
g66
(g68
S'\xcf\xf4\x12c\x99~\xee?'
tRp1080
sS'instance_status'
p1081
g71
(g72
(I0
tS'b'
tRp1082
(I1
(I1
tg67
(S'i8'
I0
I1
tRp1083
(I3
S'<'
NNNI-1
I-1
I0
tbI00
S'\xff\xff\xff\xff\xff\xff\xff\xff'
tbsa(dp1084
S'status'
p1085
I-1
sS'std'
p1086
g66
(g68
S'\x00\x00\x00\x00\x00\x00\x00\x00'
tRp1087
sS'instance_durations'
p1088
g71
(g72
(I0
tS'b'
tRp1089
(I1
(I1
tg67
(S'f8'
I0
I1
tRp1090
(I3
S'<'
NNNI-1
I-1
I0
tbI00
S'Tt$\x97\xff\x90\xf0?'
tbsS'instance_results'
p1091
g71
(g72
(I0
tS'b'
tRp1092
(I1
(I1
tg1090
I00
S'\x00\x00\x00\x00\x80\x84.A'
tbsS'instance_status'
p1093
g71
(g72
(I0
tS'b'
tRp1094
(I1
(I1
tg67
(S'i8'
I0
I1
tRp1095
(I3
S'<'
NNNI-1
I-1
I0
tbI00
S'\xff\xff\xff\xff\xff\xff\xff\xff'
tbsS'params'
p1096
g79
((lp1097
(lp1098
S'-conv1_depth'
p1099
aS'4.0'
p1100
aa(lp1101
S'-fc_depth'
p1102
aS'511.0'
p1103
aa(lp1104
S'-filter_size'
p1105
aS'6.0'
p1106
aatRp1107
sS'result'
p1108
g66
(g68
S'\x00\x00\x00\x00\x80\x84.A'
tRp1109
sS'duration'
p1110
g66
(g68
S'Tt$\x97\xff\x90\xf0?'
tRp1111
sS'test_error'
p1112
Fnan
sa(dp1113
S'status'
p1114
I-1
sS'std'
p1115
g66
(g68
S'\x00\x00\x00\x00\x00\x00\x00\x00'
tRp1116
sS'instance_durations'
p1117
g71
(g72
(I0
tS'b'
tRp1118
(I1
(I1
tg67
(S'f8'
I0
I1
tRp1119
(I3
S'<'
NNNI-1
I-1
I0
tbI00
S'`\xcd\x01\x829z\xf1?'
tbsS'instance_results'
p1120
g71
(g72
(I0
tS'b'
tRp1121
(I1
(I1
tg1119
I00
S'\x00\x00\x00\x00\x80\x84.A'
tbsS'instance_status'
p1122
g71
(g72
(I0
tS'b'
tRp1123
(I1
(I1
tg67
(S'i8'
I0
I1
tRp1124
(I3
S'<'
NNNI-1
I-1
I0
tbI00
S'\xff\xff\xff\xff\xff\xff\xff\xff'
tbsS'params'
p1125
g79
((lp1126
(lp1127
S'-conv1_depth'
p1128
aS'278.0'
p1129
aa(lp1130
S'-fc_depth'
p1131
aS'2.0'
p1132
aa(lp1133
S'-filter_size'
p1134
aS'5.0'
p1135
aatRp1136
sS'result'
p1137
g66
(g68
S'\x00\x00\x00\x00\x80\x84.A'
tRp1138
sS'duration'
p1139
g66
(g68
S'`\xcd\x01\x829z\xf1?'
tRp1140
sS'test_error'
p1141
Fnan
sa(dp1142
S'status'
p1143
I-1
sS'std'
p1144
g66
(g68
S'\x00\x00\x00\x00\x00\x00\x00\x00'
tRp1145
sS'instance_durations'
p1146
g71
(g72
(I0
tS'b'
tRp1147
(I1
(I1
tg67
(S'f8'
I0
I1
tRp1148
(I3
S'<'
NNNI-1
I-1
I0
tbI00
S':X\xff\xe70_\xf0?'
tbsS'instance_results'
p1149
g71
(g72
(I0
tS'b'
tRp1150
(I1
(I1
tg1148
I00
S'\x00\x00\x00\x00\x80\x84.A'
tbsS'test_error'
p1151
Fnan
sS'params'
p1152
g79
((lp1153
(lp1154
S'-conv1_depth'
p1155
aS'274.0'
p1156
aa(lp1157
S'-fc_depth'
p1158
aS'48.0'
p1159
aa(lp1160
S'-filter_size'
p1161
aS'2.0'
p1162
aatRp1163
sS'result'
p1164
g66
(g68
S'\x00\x00\x00\x00\x80\x84.A'
tRp1165
sS'duration'
p1166
g66
(g68
S':X\xff\xe70_\xf0?'
tRp1167
sS'instance_status'
p1168
g71
(g72
(I0
tS'b'
tRp1169
(I1
(I1
tg67
(S'i8'
I0
I1
tRp1170
(I3
S'<'
NNNI-1
I-1
I0
tbI00
S'\xff\xff\xff\xff\xff\xff\xff\xff'
tbsa(dp1171
S'status'
p1172
I-1
sS'std'
p1173
g66
(g68
S'\x00\x00\x00\x00\x00\x00\x00\x00'
tRp1174
sS'instance_durations'
p1175
g71
(g72
(I0
tS'b'
tRp1176
(I1
(I1
tg67
(S'f8'
I0
I1
tRp1177
(I3
S'<'
NNNI-1
I-1
I0
tbI00
S'o\xf5\x9c\xf4\xbeq\xee?'
tbsS'instance_results'
p1178
g71
(g72
(I0
tS'b'
tRp1179
(I1
(I1
tg1177
I00
S'\x00\x00\x00\x00\x80\x84.A'
tbsS'instance_status'
p1180
g71
(g72
(I0
tS'b'
tRp1181
(I1
(I1
tg67
(S'i8'
I0
I1
tRp1182
(I3
S'<'
NNNI-1
I-1
I0
tbI00
S'\xff\xff\xff\xff\xff\xff\xff\xff'
tbsS'params'
p1183
g79
((lp1184
(lp1185
S'-conv1_depth'
p1186
aS'324.0'
p1187
aa(lp1188
S'-fc_depth'
p1189
aS'186.0'
p1190
aa(lp1191
S'-filter_size'
p1192
aS'4.0'
p1193
aatRp1194
sS'result'
p1195
g66
(g68
S'\x00\x00\x00\x00\x80\x84.A'
tRp1196
sS'duration'
p1197
g66
(g68
S'o\xf5\x9c\xf4\xbeq\xee?'
tRp1198
sS'test_error'
p1199
Fnan
sa(dp1200
S'status'
p1201
I-1
sS'std'
p1202
g66
(g68
S'\x00\x00\x00\x00\x00\x00\x00\x00'
tRp1203
sS'instance_durations'
p1204
g71
(g72
(I0
tS'b'
tRp1205
(I1
(I1
tg67
(S'f8'
I0
I1
tRp1206
(I3
S'<'
NNNI-1
I-1
I0
tbI00
S'\xdf\xbfyq\xe2\xab\xee?'
tbsS'instance_results'
p1207
g71
(g72
(I0
tS'b'
tRp1208
(I1
(I1
tg1206
I00
S'\x00\x00\x00\x00\x80\x84.A'
tbsS'test_error'
p1209
Fnan
sS'params'
p1210
g79
((lp1211
(lp1212
S'-conv1_depth'
p1213
aS'366.0'
p1214
aa(lp1215
S'-fc_depth'
p1216
aS'220.0'
p1217
aa(lp1218
S'-filter_size'
p1219
aS'3.0'
p1220
aatRp1221
sS'result'
p1222
g66
(g68
S'\x00\x00\x00\x00\x80\x84.A'
tRp1223
sS'duration'
p1224
g66
(g68
S'\xdf\xbfyq\xe2\xab\xee?'
tRp1225
sS'instance_status'
p1226
g71
(g72
(I0
tS'b'
tRp1227
(I1
(I1
tg67
(S'i8'
I0
I1
tRp1228
(I3
S'<'
NNNI-1
I-1
I0
tbI00
S'\xff\xff\xff\xff\xff\xff\xff\xff'
tbsa(dp1229
S'status'
p1230
I-1
sS'std'
p1231
g66
(g68
S'\x00\x00\x00\x00\x00\x00\x00\x00'
tRp1232
sS'instance_durations'
p1233
g71
(g72
(I0
tS'b'
tRp1234
(I1
(I1
tg67
(S'f8'
I0
I1
tRp1235
(I3
S'<'
NNNI-1
I-1
I0
tbI00
S'\x02\xd4\xd4\xb2\xb5>\xf0?'
tbsS'instance_results'
p1236
g71
(g72
(I0
tS'b'
tRp1237
(I1
(I1
tg1235
I00
S'\x00\x00\x00\x00\x80\x84.A'
tbsS'test_error'
p1238
Fnan
sS'params'
p1239
g79
((lp1240
(lp1241
S'-conv1_depth'
p1242
aS'446.0'
p1243
aa(lp1244
S'-fc_depth'
p1245
aS'512.0'
p1246
aa(lp1247
S'-filter_size'
p1248
aS'10.0'
p1249
aatRp1250
sS'result'
p1251
g66
(g68
S'\x00\x00\x00\x00\x80\x84.A'
tRp1252
sS'duration'
p1253
g66
(g68
S'\x02\xd4\xd4\xb2\xb5>\xf0?'
tRp1254
sS'instance_status'
p1255
g71
(g72
(I0
tS'b'
tRp1256
(I1
(I1
tg67
(S'i8'
I0
I1
tRp1257
(I3
S'<'
NNNI-1
I-1
I0
tbI00
S'\xff\xff\xff\xff\xff\xff\xff\xff'
tbsa(dp1258
S'status'
p1259
I-1
sS'std'
p1260
g66
(g68
S'\x00\x00\x00\x00\x00\x00\x00\x00'
tRp1261
sS'instance_durations'
p1262
g71
(g72
(I0
tS'b'
tRp1263
(I1
(I1
tg67
(S'f8'
I0
I1
tRp1264
(I3
S'<'
NNNI-1
I-1
I0
tbI00
S'\x93Qe\x18w\x83\xee?'
tbsS'instance_results'
p1265
g71
(g72
(I0
tS'b'
tRp1266
(I1
(I1
tg1264
I00
S'\x00\x00\x00\x00\x80\x84.A'
tbsS'instance_status'
p1267
g71
(g72
(I0
tS'b'
tRp1268
(I1
(I1
tg67
(S'i8'
I0
I1
tRp1269
(I3
S'<'
NNNI-1
I-1
I0
tbI00
S'\xff\xff\xff\xff\xff\xff\xff\xff'
tbsS'params'
p1270
g79
((lp1271
(lp1272
S'-conv1_depth'
p1273
aS'474.0'
p1274
aa(lp1275
S'-fc_depth'
p1276
aS'483.0'
p1277
aa(lp1278
S'-filter_size'
p1279
aS'9.0'
p1280
aatRp1281
sS'result'
p1282
g66
(g68
S'\x00\x00\x00\x00\x80\x84.A'
tRp1283
sS'duration'
p1284
g66
(g68
S'\x93Qe\x18w\x83\xee?'
tRp1285
sS'test_error'
p1286
Fnan
sa(dp1287
S'status'
p1288
I-1
sS'std'
p1289
g66
(g68
S'\x00\x00\x00\x00\x00\x00\x00\x00'
tRp1290
sS'instance_durations'
p1291
g71
(g72
(I0
tS'b'
tRp1292
(I1
(I1
tg67
(S'f8'
I0
I1
tRp1293
(I3
S'<'
NNNI-1
I-1
I0
tbI00
S"\xa9\x84'\xf4\xfa\x93\xee?"
tbsS'instance_results'
p1294
g71
(g72
(I0
tS'b'
tRp1295
(I1
(I1
tg1293
I00
S'\x00\x00\x00\x00\x80\x84.A'
tbsS'test_error'
p1296
Fnan
sS'params'
p1297
g79
((lp1298
(lp1299
S'-conv1_depth'
p1300
aS'244.0'
p1301
aa(lp1302
S'-fc_depth'
p1303
aS'75.0'
p1304
aa(lp1305
S'-filter_size'
p1306
aS'8.0'
p1307
aatRp1308
sS'result'
p1309
g66
(g68
S'\x00\x00\x00\x00\x80\x84.A'
tRp1310
sS'duration'
p1311
g66
(g68
S"\xa9\x84'\xf4\xfa\x93\xee?"
tRp1312
sS'instance_status'
p1313
g71
(g72
(I0
tS'b'
tRp1314
(I1
(I1
tg67
(S'i8'
I0
I1
tRp1315
(I3
S'<'
NNNI-1
I-1
I0
tbI00
S'\xff\xff\xff\xff\xff\xff\xff\xff'
tbsa(dp1316
S'status'
p1317
I-1
sS'std'
p1318
g66
(g68
S'\x00\x00\x00\x00\x00\x00\x00\x00'
tRp1319
sS'instance_durations'
p1320
g71
(g72
(I0
tS'b'
tRp1321
(I1
(I1
tg67
(S'f8'
I0
I1
tRp1322
(I3
S'<'
NNNI-1
I-1
I0
tbI00
S'\xab!q\x8f\xa5\x8f\xf1?'
tbsS'instance_results'
p1323
g71
(g72
(I0
tS'b'
tRp1324
(I1
(I1
tg1322
I00
S'\x00\x00\x00\x00\x80\x84.A'
tbsS'instance_status'
p1325
g71
(g72
(I0
tS'b'
tRp1326
(I1
(I1
tg67
(S'i8'
I0
I1
tRp1327
(I3
S'<'
NNNI-1
I-1
I0
tbI00
S'\xff\xff\xff\xff\xff\xff\xff\xff'
tbsS'params'
p1328
g79
((lp1329
(lp1330
S'-conv1_depth'
p1331
aS'86.0'
p1332
aa(lp1333
S'-fc_depth'
p1334
aS'159.0'
p1335
aa(lp1336
S'-filter_size'
p1337
aS'1.0'
p1338
aatRp1339
sS'result'
p1340
g66
(g68
S'\x00\x00\x00\x00\x80\x84.A'
tRp1341
sS'duration'
p1342
g66
(g68
S'\xab!q\x8f\xa5\x8f\xf1?'
tRp1343
sS'test_error'
p1344
Fnan
sasS'total_wallclock_time'
p1345
F70.000433000000001
sS'experiment_name'
p1346
S'hyperopt_august2013_mod'
p1347
sS'starttime'
p1348
(lp1349
F1472551374.2420721
as.