(dp1
S'trials'
p2
ccopy_reg
_reconstructor
p3
(chyperopt.base
Trials
p4
c__builtin__
object
p5
NtRp6
(dp7
S'attachments'
p8
(dp9
sS'_trials'
p10
(lp11
(dp12
S'refresh_time'
p13
cdatetime
datetime
p14
(S'\x07\xe0\x08\x1e\n\x03\x15\x05\xfb@'
tRp15
sS'book_time'
p16
g14
(S'\x07\xe0\x08\x1e\n\x026\x08\xcd\xe8'
tRp17
sS'misc'
p18
(dp19
S'tid'
p20
I0
sS'idxs'
p21
(dp22
S'conv2_depth'
p23
(lp24
I0
asS'fc_depth'
p25
(lp26
I0
asS'filter_size'
p27
(lp28
I0
assS'cmd'
p29
(S'domain_attachment'
p30
S'FMinIter_Domain'
p31
tp32
sS'vals'
p33
(dp34
g23
(lp35
F392
asg25
(lp36
F485
asg27
(lp37
F8
assS'workdir'
p38
NssS'state'
p39
I2
sg20
I0
sS'exp_key'
p40
NsS'version'
p41
I0
sS'result'
p42
(dp43
S'status'
p44
S'ok'
p45
sS'loss'
p46
F1000000
ssS'owner'
p47
NsS'spec'
p48
Nsa(dp49
g13
g14
(S'\x07\xe0\x08\x1e\n\x03\x16\n\xe5\x10'
tRp50
sg16
g14
(S'\x07\xe0\x08\x1e\n\x03\x15\x06\x16\x98'
tRp51
sg18
(dp52
g20
I1
sg21
(dp53
g23
(lp54
I1
asg25
(lp55
I1
asg27
(lp56
I1
assg29
(g30
g31
tp57
sg33
(dp58
g23
(lp59
F512
asg25
(lp60
F358
asg27
(lp61
F13
assg38
Nssg39
I2
sg20
I1
sg40
Nsg41
I0
sg42
(dp62
g44
g45
sg46
F1000000
ssg47
Nsg48
Nsa(dp63
g13
g14
(S'\x07\xe0\x08\x1e\n\x03\x18\x01\xec0'
tRp64
sg16
g14
(S'\x07\xe0\x08\x1e\n\x03\x16\n\xf0\xc8'
tRp65
sg18
(dp66
g20
I2
sg21
(dp67
g23
(lp68
I2
asg25
(lp69
I2
asg27
(lp70
I2
assg29
(g30
g31
tp71
sg33
(dp72
g23
(lp73
F144
asg25
(lp74
F299
asg27
(lp75
F12
assg38
Nssg39
I2
sg20
I2
sg40
Nsg41
I0
sg42
(dp76
g44
g45
sg46
F1000000
ssg47
Nsg48
Nsa(dp77
g13
g14
(S'\x07\xe0\x08\x1e\n\x03\x19\x06d\xb8'
tRp78
sg16
g14
(S'\x07\xe0\x08\x1e\n\x03\x18\x02\x0bp'
tRp79
sg18
(dp80
g20
I3
sg21
(dp81
g23
(lp82
I3
asg25
(lp83
I3
asg27
(lp84
I3
assg29
(g30
g31
tp85
sg33
(dp86
g23
(lp87
F394
asg25
(lp88
F266
asg27
(lp89
F5
assg38
Nssg39
I2
sg20
I3
sg40
Nsg41
I0
sg42
(dp90
g44
g45
sg46
F1000000
ssg47
Nsg48
Nsa(dp91
g13
g14
(S'\x07\xe0\x08\x1e\n\x03\x1a\x0bZ@'
tRp92
sg16
g14
(S'\x07\xe0\x08\x1e\n\x03\x19\x06\x80\x10'
tRp93
sg18
(dp94
g20
I4
sg21
(dp95
g23
(lp96
I4
asg25
(lp97
I4
asg27
(lp98
I4
assg29
(g30
g31
tp99
sg33
(dp100
g23
(lp101
F376
asg25
(lp102
F417
asg27
(lp103
F7
assg38
Nssg39
I2
sg20
I4
sg40
Nsg41
I0
sg42
(dp104
g44
g45
sg46
F1000000
ssg47
Nsg48
Nsa(dp105
g13
g14
(S'\x07\xe0\x08\x1e\n\x03\x1b\x0eP\x10'
tRp106
sg16
g14
(S'\x07\xe0\x08\x1e\n\x03\x1a\x0by\x80'
tRp107
sg18
(dp108
g20
I5
sg21
(dp109
g23
(lp110
I5
asg25
(lp111
I5
asg27
(lp112
I5
assg29
(g30
g31
tp113
sg33
(dp114
g23
(lp115
F64
asg25
(lp116
F288
asg27
(lp117
F10
assg38
Nssg39
I2
sg20
I5
sg40
Nsg41
I0
sg42
(dp118
g44
g45
sg46
F1000000
ssg47
Nsg48
Nsa(dp119
g13
g14
(S'\x07\xe0\x08\x1e\n\x03\x1d\x03\xb1P'
tRp120
sg16
g14
(S'\x07\xe0\x08\x1e\n\x03\x1b\x0eoP'
tRp121
sg18
(dp122
g20
I6
sg21
(dp123
g23
(lp124
I6
asg25
(lp125
I6
asg27
(lp126
I6
assg29
(g30
g31
tp127
sg33
(dp128
g23
(lp129
F38
asg25
(lp130
F147
asg27
(lp131
F12
assg38
Nssg39
I2
sg20
I6
sg40
Nsg41
I0
sg42
(dp132
g44
g45
sg46
F1000000
ssg47
Nsg48
Nsa(dp133
g13
g14
(S'\x07\xe0\x08\x1e\n\x03\x1e\n\x02\x80'
tRp134
sg16
g14
(S'\x07\xe0\x08\x1e\n\x03\x1d\x03\xd0\x90'
tRp135
sg18
(dp136
g20
I7
sg21
(dp137
g23
(lp138
I7
asg25
(lp139
I7
asg27
(lp140
I7
assg29
(g30
g31
tp141
sg33
(dp142
g23
(lp143
F340
asg25
(lp144
F196
asg27
(lp145
F9
assg38
Nssg39
I2
sg20
I7
sg40
Nsg41
I0
sg42
(dp146
g44
g45
sg46
F1000000
ssg47
Nsg48
Nsa(dp147
g13
g14
(S'\x07\xe0\x08\x1e\n\x03 \x00\x1bX'
tRp148
sg16
g14
(S'\x07\xe0\x08\x1e\n\x03\x1e\n!\xc0'
tRp149
sg18
(dp150
g20
I8
sg21
(dp151
g23
(lp152
I8
asg25
(lp153
I8
asg27
(lp154
I8
assg29
(g30
g31
tp155
sg33
(dp156
g23
(lp157
F394
asg25
(lp158
F491
asg27
(lp159
F5
assg38
Nssg39
I2
sg20
I8
sg40
Nsg41
I0
sg42
(dp160
g44
g45
sg46
F1000000
ssg47
Nsg48
Nsa(dp161
g13
g14
(S'\x07\xe0\x08\x1e\n\x03!\x04\xaf8'
tRp162
sg16
g14
(S'\x07\xe0\x08\x1e\n\x03 \x006\xb0'
tRp163
sg18
(dp164
g20
I9
sg21
(dp165
g23
(lp166
I9
asg25
(lp167
I9
asg27
(lp168
I9
assg29
(g30
g31
tp169
sg33
(dp170
g23
(lp171
F284
asg25
(lp172
F191
asg27
(lp173
F12
assg38
Nssg39
I2
sg20
I9
sg40
Nsg41
I0
sg42
(dp174
g44
g45
sg46
F1000000
ssg47
Nsg48
Nsa(dp175
g13
g14
(S'\x07\xe0\x08\x1e\n\x03"\t\xd3\xa0'
tRp176
sg16
g14
(S'\x07\xe0\x08\x1e\n\x03!\x04\xcex'
tRp177
sg18
(dp178
g20
I10
sg21
(dp179
g23
(lp180
I10
asg25
(lp181
I10
asg27
(lp182
I10
assg29
(g30
g31
tp183
sg33
(dp184
g23
(lp185
F210
asg25
(lp186
F231
asg27
(lp187
F4
assg38
Nssg39
I2
sg20
I10
sg40
Nsg41
I0
sg42
(dp188
g44
g45
sg46
F1000000
ssg47
Nsg48
Nsa(dp189
g13
g14
(S'\x07\xe0\x08\x1e\n\x03#\x0c\xd9\x10'
tRp190
sg16
g14
(S'\x07\xe0\x08\x1e\n\x03"\t\xf2\xe0'
tRp191
sg18
(dp192
g20
I11
sg21
(dp193
g23
(lp194
I11
asg25
(lp195
I11
asg27
(lp196
I11
assg29
(g30
g31
tp197
sg33
(dp198
g23
(lp199
F48
asg25
(lp200
F400
asg27
(lp201
F2
assg38
Nssg39
I2
sg20
I11
sg40
Nsg41
I0
sg42
(dp202
g44
g45
sg46
F1000000
ssg47
Nsg48
Nsa(dp203
g13
g14
(S'\x07\xe0\x08\x1e\n\x03%\x00\x80\xe8'
tRp204
sg16
g14
(S'\x07\xe0\x08\x1e\n\x03#\x0c\xf4h'
tRp205
sg18
(dp206
g20
I12
sg21
(dp207
g23
(lp208
I12
asg25
(lp209
I12
asg27
(lp210
I12
assg29
(g30
g31
tp211
sg33
(dp212
g23
(lp213
F120
asg25
(lp214
F159
asg27
(lp215
F7
assg38
Nssg39
I2
sg20
I12
sg40
Nsg41
I0
sg42
(dp216
g44
g45
sg46
F1000000
ssg47
Nsg48
Nsa(dp217
g13
g14
(S'\x07\xe0\x08\x1e\n\x03&\x03r\xd0'
tRp218
sg16
g14
(S'\x07\xe0\x08\x1e\n\x03%\x00\xa0('
tRp219
sg18
(dp220
g20
I13
sg21
(dp221
g23
(lp222
I13
asg25
(lp223
I13
asg27
(lp224
I13
assg29
(g30
g31
tp225
sg33
(dp226
g23
(lp227
F488
asg25
(lp228
F308
asg27
(lp229
F10
assg38
Nssg39
I2
sg20
I13
sg40
Nsg41
I0
sg42
(dp230
g44
g45
sg46
F1000000
ssg47
Nsg48
Nsa(dp231
g13
g14
(S"\x07\xe0\x08\x1e\n\x03'\x06d\xb8"
tRp232
sg16
g14
(S'\x07\xe0\x08\x1e\n\x03&\x03\x92\x10'
tRp233
sg18
(dp234
g20
I14
sg21
(dp235
g23
(lp236
I14
asg25
(lp237
I14
asg27
(lp238
I14
assg29
(g30
g31
tp239
sg33
(dp240
g23
(lp241
F100
asg25
(lp242
F238
asg27
(lp243
F13
assg38
Nssg39
I2
sg20
I14
sg40
Nsg41
I0
sg42
(dp244
g44
g45
sg46
F1000000
ssg47
Nsg48
Nsa(dp245
g13
g14
(S'\x07\xe0\x08\x1e\n\x03(\n\xe5\x10'
tRp246
sg16
g14
(S"\x07\xe0\x08\x1e\n\x03'\x06\x83\xf8"
tRp247
sg18
(dp248
g20
I15
sg21
(dp249
g23
(lp250
I15
asg25
(lp251
I15
asg27
(lp252
I15
assg29
(g30
g31
tp253
sg33
(dp254
g23
(lp255
F484
asg25
(lp256
F440
asg27
(lp257
F6
assg38
Nssg39
I2
sg20
I15
sg40
Nsg41
I0
sg42
(dp258
g44
g45
sg46
F1000000
ssg47
Nsg48
Nsa(dp259
g13
g14
(S'\x07\xe0\x08\x1e\n\x03*\x00\xcf\x08'
tRp260
sg16
g14
(S'\x07\xe0\x08\x1e\n\x03(\x0b\x04P'
tRp261
sg18
(dp262
g20
I16
sg21
(dp263
g23
(lp264
I16
asg25
(lp265
I16
asg27
(lp266
I16
assg29
(g30
g31
tp267
sg33
(dp268
g23
(lp269
F420
asg25
(lp270
F409
asg27
(lp271
F8
assg38
Nssg39
I2
sg20
I16
sg40
Nsg41
I0
sg42
(dp272
g44
g45
sg46
F1000000
ssg47
Nsg48
Nsa(dp273
g13
g14
(S'\x07\xe0\x08\x1e\n\x03+\x07\x9d8'
tRp274
sg16
g14
(S'\x07\xe0\x08\x1e\n\x03*\x00\xeeH'
tRp275
sg18
(dp276
g20
I17
sg21
(dp277
g23
(lp278
I17
asg25
(lp279
I17
asg27
(lp280
I17
assg29
(g30
g31
tp281
sg33
(dp282
g23
(lp283
F404
asg25
(lp284
F29
asg27
(lp285
F6
assg38
Nssg39
I2
sg20
I17
sg40
Nsg41
I0
sg42
(dp286
g44
g45
sg46
F1000000
ssg47
Nsg48
Nsa(dp287
g13
g14
(S'\x07\xe0\x08\x1e\n\x03,\x0c\xe0\xe0'
tRp288
sg16
g14
(S'\x07\xe0\x08\x1e\n\x03+\x07\xbcx'
tRp289
sg18
(dp290
g20
I18
sg21
(dp291
g23
(lp292
I18
asg25
(lp293
I18
asg27
(lp294
I18
assg29
(g30
g31
tp295
sg33
(dp296
g23
(lp297
F346
asg25
(lp298
F25
asg27
(lp299
F4
assg38
Nssg39
I2
sg20
I18
sg40
Nsg41
I0
sg42
(dp300
g44
g45
sg46
F1000000
ssg47
Nsg48
Nsa(dp301
g13
g14
(S'\x07\xe0\x08\x1e\n\x03.\x02x\xd0'
tRp302
sg16
g14
(S'\x07\xe0\x08\x1e\n\x03,\r\x00 '
tRp303
sg18
(dp304
g20
I19
sg21
(dp305
g23
(lp306
I19
asg25
(lp307
I19
asg27
(lp308
I19
assg29
(g30
g31
tp309
sg33
(dp310
g23
(lp311
F376
asg25
(lp312
F487
asg27
(lp313
F6
assg38
Nssg39
I2
sg20
I19
sg40
Nsg41
I0
sg42
(dp314
g44
g45
sg46
F1000000
ssg47
Nsg48
Nsa(dp315
g13
g14
(S'\x07\xe0\x08\x1e\n\x03/\x07\xebX'
tRp316
sg16
g14
(S'\x07\xe0\x08\x1e\n\x03.\x02\xbb8'
tRp317
sg18
(dp318
g20
I20
sg21
(dp319
g23
(lp320
I20
asg25
(lp321
I20
asg27
(lp322
I20
assg29
(g30
g31
tp323
sg33
(dp324
g23
(lp325
F278
asg25
(lp326
F30
asg27
(lp327
F1
assg38
Nssg39
I2
sg20
I20
sg40
Nsg41
I0
sg42
(dp328
g44
g45
sg46
F1000000
ssg47
Nsg48
Nsa(dp329
g13
g14
(S'\x07\xe0\x08\x1e\n\x030\x0b^('
tRp330
sg16
g14
(S'\x07\xe0\x08\x1e\n\x03/\x08)\xd8'
tRp331
sg18
(dp332
g20
I21
sg21
(dp333
g23
(lp334
I21
asg25
(lp335
I21
asg27
(lp336
I21
assg29
(g30
g31
tp337
sg33
(dp338
g23
(lp339
F320
asg25
(lp340
F104
asg27
(lp341
F3
assg38
Nssg39
I2
sg20
I21
sg40
Nsg41
I0
sg42
(dp342
g44
g45
sg46
F1000000
ssg47
Nsg48
Nsa(dp343
g13
g14
(S'\x07\xe0\x08\x1e\n\x031\x0e\xe0\x98'
tRp344
sg16
g14
(S'\x07\xe0\x08\x1e\n\x030\x0b\x98\xc0'
tRp345
sg18
(dp346
g20
I22
sg21
(dp347
g23
(lp348
I22
asg25
(lp349
I22
asg27
(lp350
I22
assg29
(g30
g31
tp351
sg33
(dp352
g23
(lp353
F454
asg25
(lp354
F510
asg27
(lp355
F9
assg38
Nssg39
I2
sg20
I22
sg40
Nsg41
I0
sg42
(dp356
g44
g45
sg46
F1000000
ssg47
Nsg48
Nsa(dp357
g13
g14
(S'\x07\xe0\x08\x1e\n\x033\x04\x9f\x98'
tRp358
sg16
g14
(S'\x07\xe0\x08\x1e\n\x031\x0f#\x00'
tRp359
sg18
(dp360
g20
I23
sg21
(dp361
g23
(lp362
I23
asg25
(lp363
I23
asg27
(lp364
I23
assg29
(g30
g31
tp365
sg33
(dp366
g23
(lp367
F246
asg25
(lp368
F81
asg27
(lp369
F1
assg38
Nssg39
I2
sg20
I23
sg40
Nsg41
I0
sg42
(dp370
g44
g45
sg46
F1000000
ssg47
Nsg48
Nsa(dp371
g13
g14
(S'\x07\xe0\x08\x1e\n\x034\x0c\x06 '
tRp372
sg16
g14
(S'\x07\xe0\x08\x1e\n\x033\x04\xda0'
tRp373
sg18
(dp374
g20
I24
sg21
(dp375
g23
(lp376
I24
asg25
(lp377
I24
asg27
(lp378
I24
assg29
(g30
g31
tp379
sg33
(dp380
g23
(lp381
F316
asg25
(lp382
F120
asg27
(lp383
F3
assg38
Nssg39
I2
sg20
I24
sg40
Nsg41
I0
sg42
(dp384
g44
g45
sg46
F1000000
ssg47
Nsg48
Nsa(dp385
g13
g14
(S'\x07\xe0\x08\x1e\n\x036\x00m`'
tRp386
sg16
g14
(S'\x07\xe0\x08\x1e\n\x034\x0cH\x88'
tRp387
sg18
(dp388
g20
I25
sg21
(dp389
g23
(lp390
I25
asg25
(lp391
I25
asg27
(lp392
I25
assg29
(g30
g31
tp393
sg33
(dp394
g23
(lp395
F450
asg25
(lp396
F455
asg27
(lp397
F9
assg38
Nssg39
I2
sg20
I25
sg40
Nsg41
I0
sg42
(dp398
g44
g45
sg46
F1000000
ssg47
Nsg48
Nsa(dp399
g13
g14
(S'\x07\xe0\x08\x1e\n\x037\x03\xc4\xd8'
tRp400
sg16
g14
(S'\x07\xe0\x08\x1e\n\x036\x00\xb3\xb0'
tRp401
sg18
(dp402
g20
I26
sg21
(dp403
g23
(lp404
I26
asg25
(lp405
I26
asg27
(lp406
I26
assg29
(g30
g31
tp407
sg33
(dp408
g23
(lp409
F214
asg25
(lp410
F93
asg27
(lp411
F11
assg38
Nssg39
I2
sg20
I26
sg40
Nsg41
I0
sg42
(dp412
g44
g45
sg46
F1000000
ssg47
Nsg48
Nsa(dp413
g13
g14
(S'\x07\xe0\x08\x1e\n\x038\t\x04\x98'
tRp414
sg16
g14
(S'\x07\xe0\x08\x1e\n\x037\x04\x03X'
tRp415
sg18
(dp416
g20
I27
sg21
(dp417
g23
(lp418
I27
asg25
(lp419
I27
asg27
(lp420
I27
assg29
(g30
g31
tp421
sg33
(dp422
g23
(lp423
F170
asg25
(lp424
F350
asg27
(lp425
F8
assg38
Nssg39
I2
sg20
I27
sg40
Nsg41
I0
sg42
(dp426
g44
g45
sg46
F1000000
ssg47
Nsg48
Nsa(dp427
g13
g14
(S'\x07\xe0\x08\x1e\n\x039\x0c\xa6H'
tRp428
sg16
g14
(S'\x07\xe0\x08\x1e\n\x038\tJ\xe8'
tRp429
sg18
(dp430
g20
I28
sg21
(dp431
g23
(lp432
I28
asg25
(lp433
I28
asg27
(lp434
I28
assg29
(g30
g31
tp435
sg33
(dp436
g23
(lp437
F508
asg25
(lp438
F461
asg27
(lp439
F9
assg38
Nssg39
I2
sg20
I28
sg40
Nsg41
I0
sg42
(dp440
g44
g45
sg46
F1000000
ssg47
Nsg48
Nsa(dp441
g13
g14
(S'\x07\xe0\x08\x1e\n\x03;\x01\x11p'
tRp442
sg16
g14
(S'\x07\xe0\x08\x1e\n\x039\x0c\xe8\xb0'
tRp443
sg18
(dp444
g20
I29
sg21
(dp445
g23
(lp446
I29
asg25
(lp447
I29
asg27
(lp448
I29
assg29
(g30
g31
tp449
sg33
(dp450
g23
(lp451
F224
asg25
(lp452
F84
asg27
(lp453
F11
assg38
Nssg39
I2
sg20
I29
sg40
Nsg41
I0
sg42
(dp454
g44
g45
sg46
F1000000
ssg47
Nsg48
Nsa(dp455
g13
g14
(S'\x07\xe0\x08\x1e\n\x04\x00\x06* '
tRp456
sg16
g14
(S'\x07\xe0\x08\x1e\n\x03;\x01L\x08'
tRp457
sg18
(dp458
g20
I30
sg21
(dp459
g23
(lp460
I30
asg25
(lp461
I30
asg27
(lp462
I30
assg29
(g30
g31
tp463
sg33
(dp464
g23
(lp465
F182
asg25
(lp466
F360
asg27
(lp467
F7
assg38
Nssg39
I2
sg20
I30
sg40
Nsg41
I0
sg42
(dp468
g44
g45
sg46
F1000000
ssg47
Nsg48
Nsa(dp469
g13
g14
(S'\x07\xe0\x08\x1e\n\x04\x01\tu\xe0'
tRp470
sg16
g14
(S'\x07\xe0\x08\x1e\n\x04\x00\x06x@'
tRp471
sg18
(dp472
g20
I31
sg21
(dp473
g23
(lp474
I31
asg25
(lp475
I31
asg27
(lp476
I31
assg29
(g30
g31
tp477
sg33
(dp478
g23
(lp479
F506
asg25
(lp480
F364
asg27
(lp481
F14
assg38
Nssg39
I2
sg20
I31
sg40
Nsg41
I0
sg42
(dp482
g44
g45
sg46
F1000000
ssg47
Nsg48
Nsa(dp483
g13
g14
(S'\x07\xe0\x08\x1e\n\x04\x02\x0e\xdc\xb0'
tRp484
sg16
g14
(S'\x07\xe0\x08\x1e\n\x04\x01\t\x9c\xf0'
tRp485
sg18
(dp486
g20
I32
sg21
(dp487
g23
(lp488
I32
asg25
(lp489
I32
asg27
(lp490
I32
assg29
(g30
g31
tp491
sg33
(dp492
g23
(lp493
F234
asg25
(lp494
F323
asg27
(lp495
F11
assg38
Nssg39
I2
sg20
I32
sg40
Nsg41
I0
sg42
(dp496
g44
g45
sg46
F1000000
ssg47
Nsg48
Nsa(dp497
g13
g14
(S'\x07\xe0\x08\x1e\n\x04\x04\x03r\xd0'
tRp498
sg16
g14
(S'\x07\xe0\x08\x1e\n\x04\x02\x0f#\x00'
tRp499
sg18
(dp500
g20
I33
sg21
(dp501
g23
(lp502
I33
asg25
(lp503
I33
asg27
(lp504
I33
assg29
(g30
g31
tp505
sg33
(dp506
g23
(lp507
F164
asg25
(lp508
F366
asg27
(lp509
F7
assg38
Nssg39
I2
sg20
I33
sg40
Nsg41
I0
sg42
(dp510
g44
g45
sg46
F1000000
ssg47
Nsg48
Nsa(dp511
g13
g14
(S'\x07\xe0\x08\x1e\n\x04\x05\x07\x04\xe0'
tRp512
sg16
g14
(S'\x07\xe0\x08\x1e\n\x04\x04\x03\x9d\xc8'
tRp513
sg18
(dp514
g20
I34
sg21
(dp515
g23
(lp516
I34
asg25
(lp517
I34
asg27
(lp518
I34
assg29
(g30
g31
tp519
sg33
(dp520
g23
(lp521
F438
asg25
(lp522
F273
asg27
(lp523
F13
assg38
Nssg39
I2
sg20
I34
sg40
Nsg41
I0
sg42
(dp524
g44
g45
sg46
F1000000
ssg47
Nsg48
Nsa(dp525
g13
g14
(S'\x07\xe0\x08\x1e\n\x04\x06\x0cLp'
tRp526
sg16
g14
(S'\x07\xe0\x08\x1e\n\x04\x05\x07K0'
tRp527
sg18
(dp528
g20
I35
sg21
(dp529
g23
(lp530
I35
asg25
(lp531
I35
asg27
(lp532
I35
assg29
(g30
g31
tp533
sg33
(dp534
g23
(lp535
F4
asg25
(lp536
F511
asg27
(lp537
F6
assg38
Nssg39
I2
sg20
I35
sg40
Nsg41
I0
sg42
(dp538
g44
g45
sg46
F1000000
ssg47
Nsg48
Nsa(dp539
g13
g14
(S'\x07\xe0\x08\x1e\n\x04\x08\x02\xee\x00'
tRp540
sg16
g14
(S'\x07\xe0\x08\x1e\n\x04\x06\x0c\xc9p'
tRp541
sg18
(dp542
g20
I36
sg21
(dp543
g23
(lp544
I36
asg25
(lp545
I36
asg27
(lp546
I36
assg29
(g30
g31
tp547
sg33
(dp548
g23
(lp549
F278
asg25
(lp550
F2
asg27
(lp551
F5
assg38
Nssg39
I2
sg20
I36
sg40
Nsg41
I0
sg42
(dp552
g44
g45
sg46
F1000000
ssg47
Nsg48
Nsa(dp553
g13
g14
(S'\x07\xe0\x08\x1e\n\x04\t\x08\xa6\xd8'
tRp554
sg16
g14
(S'\x07\xe0\x08\x1e\n\x04\x08\x03C\xf0'
tRp555
sg18
(dp556
g20
I37
sg21
(dp557
g23
(lp558
I37
asg25
(lp559
I37
asg27
(lp560
I37
assg29
(g30
g31
tp561
sg33
(dp562
g23
(lp563
F274
asg25
(lp564
F48
asg27
(lp565
F2
assg38
Nssg39
I2
sg20
I37
sg40
Nsg41
I0
sg42
(dp566
g44
g45
sg46
F1000000
ssg47
Nsg48
Nsa(dp567
g13
g14
(S'\x07\xe0\x08\x1e\n\x04\n\x0c\x9ex'
tRp568
sg16
g14
(S'\x07\xe0\x08\x1e\n\x04\t\x08\xf1\x10'
tRp569
sg18
(dp570
g20
I38
sg21
(dp571
g23
(lp572
I38
asg25
(lp573
I38
asg27
(lp574
I38
assg29
(g30
g31
tp575
sg33
(dp576
g23
(lp577
F324
asg25
(lp578
F186
asg27
(lp579
F4
assg38
Nssg39
I2
sg20
I38
sg40
Nsg41
I0
sg42
(dp580
g44
g45
sg46
F1000000
ssg47
Nsg48
Nsa(dp581
g13
g14
(S'\x07\xe0\x08\x1e\n\x04\x0c\x01\xa9\xc8'
tRp582
sg16
g14
(S'\x07\xe0\x08\x1e\n\x04\n\x0c\xec\x98'
tRp583
sg18
(dp584
g20
I39
sg21
(dp585
g23
(lp586
I39
asg25
(lp587
I39
asg27
(lp588
I39
assg29
(g30
g31
tp589
sg33
(dp590
g23
(lp591
F366
asg25
(lp592
F220
asg27
(lp593
F3
assg38
Nssg39
I2
sg20
I39
sg40
Nsg41
I0
sg42
(dp594
g44
g45
sg46
F1000000
ssg47
Nsg48
Nsa(dp595
g13
g14
(S'\x07\xe0\x08\x1e\n\x04\r\x06\xd2\x18'
tRp596
sg16
g14
(S'\x07\xe0\x08\x1e\n\x04\x0c\x01\xe8H'
tRp597
sg18
(dp598
g20
I40
sg21
(dp599
g23
(lp600
I40
asg25
(lp601
I40
asg27
(lp602
I40
assg29
(g30
g31
tp603
sg33
(dp604
g23
(lp605
F446
asg25
(lp606
F512
asg27
(lp607
F10
assg38
Nssg39
I2
sg20
I40
sg40
Nsg41
I0
sg42
(dp608
g44
g45
sg46
F1000000
ssg47
Nsg48
Nsa(dp609
g13
g14
(S'\x07\xe0\x08\x1e\n\x04\x0e\n\xaax'
tRp610
sg16
g14
(S'\x07\xe0\x08\x1e\n\x04\r\x07\x1cP'
tRp611
sg18
(dp612
g20
I41
sg21
(dp613
g23
(lp614
I41
asg25
(lp615
I41
asg27
(lp616
I41
assg29
(g30
g31
tp617
sg33
(dp618
g23
(lp619
F474
asg25
(lp620
F483
asg27
(lp621
F9
assg38
Nssg39
I2
sg20
I41
sg40
Nsg41
I0
sg42
(dp622
g44
g45
sg46
F1000000
ssg47
Nsg48
Nsa(dp623
g13
g14
(S'\x07\xe0\x08\x1e\n\x04\x0f\x0e\x9e0'
tRp624
sg16
g14
(S'\x07\xe0\x08\x1e\n\x04\x0e\n\xf0\xc8'
tRp625
sg18
(dp626
g20
I42
sg21
(dp627
g23
(lp628
I42
asg25
(lp629
I42
asg27
(lp630
I42
assg29
(g30
g31
tp631
sg33
(dp632
g23
(lp633
F244
asg25
(lp634
F75
asg27
(lp635
F8
assg38
Nssg39
I2
sg20
I42
sg40
Nsg41
I0
sg42
(dp636
g44
g45
sg46
F1000000
ssg47
Nsg48
NsasS'_exp_key'
p637
NsS'_dynamic_trials'
p638
(lp639
g12
ag49
ag63
ag77
ag91
ag105
ag119
ag133
ag147
ag161
ag175
ag189
ag203
ag217
ag231
ag245
ag259
ag273
ag287
ag301
ag315
ag329
ag343
ag357
ag371
ag385
ag399
ag413
ag427
ag441
ag455
ag469
ag483
ag497
ag511
ag525
ag539
ag553
ag567
ag581
ag595
ag609
ag623
asS'_ids'
p640
c__builtin__
set
p641
((lp642
I0
aI1
aI2
aI3
aI4
aI5
aI6
aI7
aI8
aI9
aI10
aI11
aI12
aI13
aI14
aI15
aI16
aI17
aI18
aI19
aI20
aI21
aI22
aI23
aI24
aI25
aI26
aI27
aI28
aI29
aI30
aI31
aI32
aI33
aI34
aI35
aI36
aI37
aI38
aI39
aI40
aI41
aI42
atRp643
sbsS'domain'
p644
g3
(chyperopt.fmin
Domain
p645
g5
NtRp646
(dp647
g29
(g30
g31
tp648
sS'name'
p649
NsS's_new_ids'
p650
g3
(chyperopt.pyll.base
Literal
p651
g5
NtRp652
(dp653
g649
S'literal'
p654
sS'pos_args'
p655
(lp656
sS'named_args'
p657
(lp658
sS'o_len'
p659
I7
sS'_obj'
p660
S'new_ids'
p661
sS'pure'
p662
I01
sbsS'vh'
p663
g3
(chyperopt.vectorize
VectorizeHelper
p664
g5
NtRp665
(dp666
S'take_memo'
p667
(dp668
g3
(chyperopt.pyll.base
Apply
p669
g5
NtRp670
(dp671
g659
Nsg662
I01
sg649
S'float'
p672
sg655
(lp673
g3
(g669
g5
NtRp674
(dp675
g659
Nsg662
I00
sg649
S'hyperopt_param'
p676
sg655
(lp677
g3
(g651
g5
NtRp678
(dp679
g649
g654
sg655
(lp680
sg657
(lp681
sg659
I8
sg660
g25
sg662
I01
sbag3
(g669
g5
NtRp682
(dp683
g659
Nsg662
I00
sg649
S'quniform'
p684
sg655
(lp685
g3
(g651
g5
NtRp686
(dp687
g649
g654
sg655
(lp688
sg657
(lp689
sg659
Nsg660
I1
sg662
I01
sbag3
(g651
g5
NtRp690
(dp691
g649
g654
sg655
(lp692
sg657
(lp693
sg659
Nsg660
I512
sg662
I01
sbag3
(g651
g5
NtRp694
(dp695
g649
g654
sg655
(lp696
sg657
(lp697
sg659
Nsg660
I1
sg662
I01
sbasg657
(lp698
(S'rng'
p699
g3
(g651
g5
NtRp700
(dp701
g649
g654
sg655
(lp702
sg657
(lp703
sg659
Nsg660
cnumpy.random
__RandomState_ctor
p704
(tRp705
(S'MT19937'
p706
cnumpy.core.multiarray
_reconstruct
p707
(cnumpy
ndarray
p708
(I0
tS'b'
tRp709
(I1
(I624
tcnumpy
dtype
p710
(S'u4'
I0
I1
tRp711
(I3
S'<'
NNNI-1
I-1
I0
tbI00
S'g\x1c\xc4F\xadi\xab\xfa;cr\xa1\xa9\nC\xbfm,\xd7\xd1!\x10\x85o\xb9\xc8>F\x91\x05/\x84%z\xb0\xa1~\xe5"\xd5\xb0c\xa0o\x97r\x7f@\xa3\x9d\xa7i\xa4:\x05W\xc4D;\xc1H\x81\xa9\x14\x1f/\xda\x8cO\xf8v\xa2\xfdO~0\xd1?H\xfe\xbf\x05\x80\x91\xa2\xb5~\xde\x8f\x16c\xf4W\xc5_Y[\xf6\xab\x8f#\xca\xabg\x01\xe3\xf7W\x1aPm\x07c\x16\xb3G2\xfa\\\xfe#\x13.\x9b\x168\xc9;S\x8dP\xa3i\xe8\xf0a\x8a\xdfr\xed\x91\xc03R\xe01\xdd\x87\xc0T\x05W\xf8\xa5\x1e\x15\xc0\xe0\xd0\x8f\xf5"\x18\x1f\xe6\xb2\xafFN\xd6]\n\x03\xebk\x9e\x14N#se.\xef\xe7\xcc\xa9\x85ya\xadw\x9e\xf1\x17\xbb.\xa5\x9dwo\xa1D\x8d\x9exiF\xe9\xb1\xff\xbfoA\t\\\xaac\xfd~\x812f\xa7\xf9\xd2Gb\\m\x92Ug\xf8\xadk\xc2\x10\x81\xaa\xf5\xb9\x92SQi\x93-\x1coD\xc7\x8f\xa1h#@z^\x82\x7f\xda2\xfb\xf4A\xed?\xde\x9f,\x15f\xb7C\xed\x11\x8e\xe3+\xda\xba\x9b\x10\xf7\xd7\x91L\xf1\x8eI9\x81\xa8\' \x1cR@1D\x95\x03\xecH\xbb{\xa5\x9d\x82\xca\n\x93\x07\xaa\xda~\x15iIc\x88P\xcf\xb1x\xcd\xafa\xff4\xc55\x7f_\xaeG\xd9\xb2uH\xa5\x0f\x9fG\x82\xf0\xc5\x90\x9c\x17-9\xaa\x10r\x0e\xeae\x06x\xe5pb\xc4}\xedx/\xab\xdc\x06\x13\xcbo\xa8AK\xce\xea\xaa^u\xcfg3\x0fI\xd4MP<\xd2\xa7\xdb^i\xf1U\xd2\xf7\xf8\x15\xca\xac,\x8eF\x84x\xde\x95\xf1\x12\xab\xf0\xfez9\xa3{G\xb3\xd3\xfeK\x0el\xf1vj\x9f\x88\xbd}w\xe2\x95\xb7\xa8\xbe\x06\xa5\xe9^\xf4\xb3<\xc0J\x1d\xb7zR\xf6\'\x1ai_\xd7ua\x9a&\xf2\xc9\xdf\x00-e\xf1#]\xde\x10!\xab\x01"\x1a\xac\x84\xbaW\xaf\xfaL\x01\x84s\x92\xe0\xe1\x06\x10\x80\xaa9\x99\x86\xe1k\xb5\x0cS\xb6\xc1q=\x07\x0bPK\xb3L\xb0/\xccmCQ\xd2-\x90\xf2\xa6\xc6\x93JV\xd0\xd7\x17\xa8\xfbN\xe7\xcb\xc5\xdf\xdfQ\x9a0\xc6>0\xc5\xf0&\x05O\x86l\x06\x03g\x19O\x98\x92\x9aB\x91{\xb3\xef\x01"\xf6\x87\xf0p\x13<{\xce\x06.\x94\xbf\xc4O\x0b\x1c.\xde\xcd\x8a\xa6u)"\x8b~@\xef\xc8 \x16\xd9\x16\x8by\x95w\xb0\xe6\xb5V\x84\x17@\xd1\xef\xda\xc7\xa3\xae\x8e\xa8\xfb\xa0\x9d\xd2s\xe7$\x96\x85\x13\xf1Q\xff\x8f^k\x7f,\xcb\xcb~v-\x99\xfcg\xe1F\x9e\xbdN}\xd1I\xf0\xc5j\xb8\x0e\x86\x0b\x97\x0c\xc2\xba\x99\rm#\xd6\xba\x8f\xb5\xcc\xb0\x8cfW\x10\xfad\xbe=F\xb8k\xe2\xa0\n\xa4\xb7\xe2\xbc\x10W\xe9\xe5\xbem8\x83G\x9f\xd1\xa0k\x90\xb7\xcb\xd07E\x1c\x7f+\xbfD\xb8\xfb\x04\xfb\xaa\xd1\xc9?\xd1\\:\x0c\xf0>\xfb\x17\x80d\xb8\xed\xaa\xfau\xdbJu\xa9\xf1\x02\x8aPB\x15\xe5\x81\x00\x99\xf8\x02\x8e-\xee$\xae<\xdb\xbc\x02"\xa0Zak\xc9;.zy\r,<\xe2B\xa79?\xf9\x1aP?z\x8bH \xf1\xe6\xbdW\xa8\xe8\xb2\x12f3\xbb1@\xff\xd3~)p(/\xa2e\x81\xa5\x9aQ\xf7FM\xc1%\xe0\x1e\xcc4\x97Ik\xb8\xc5\\\xde0\xcd\x01\xa7\xe0az\xd7\xdd"\x8bH\xddJ\xecS\x9bJ\xe1\xf9\x1b\x10`\x9f\xa9W\xc5\xaf\x8c\x85f\xe2\xba\xff\x92HM\x90\xb8\x9a\xa2Q\x90\xe7\xc6q\x98U\x1c7YE\x0cQ\xe5\xa0E\xbf>\xf6\xe7\xac\x0c\xbb\xfd\xe8\x9d\x93\xa3e1\xabe\x98f9\xf8\x99\xea\x19\xfc\xb1q\xea\x06\xb1\xa1M\xc4i\'\xca\xa4\t\xa1)\xdf)\xfa\xa1~1%\xa7\x9ea\x07\xef\x0e\xf8\xeaDH\xcb\xd6\xc1i\xfd\x91\xe8\xb1Z"\\\x9cZ\xf3\xb5\x1a\xa1\xfe9\xa4\xf0\xb8*\x98E\x1dbC`\x8d\xb24\xe2T\xae\xe6\x1d\x07\xdc\xc6\x12{Q\xf6\\\x98\xdf\x13\xaa\x8d\xd1\xdet\x8au\xc3\xeb\xd6&qOm\xeb\xb5{)\xfar\xea\xcc\xf0K\xf5\xa5\xc9;\xb8\x90%\xd1e]\xa9\xde0@>\x84\xa8\xf1\xeew\x81~\xa4\x88Q\x93+\x94\xba\xa4\xc8\xb9%\x10\xa5hn\x87Qh\xf0\xe4\x129\xb7I\x00\x1d;.\x07R\x85g\xe5`\xb97\r\x8b\x9e2\xb5q\x1a\x10\x83eq*\x15\xa1\x0b\xa7\xc9\xc9\xbb#bSP^\xab\xa8\x870;\x0ex\r>\x90\x80l?\xe2h\xee\xb6\xb1}z\xf5\x02\xfd\xe2\xfd\xf2tJI5\x1eE\xc4"(\xff\xc19p\x15R\x9e\xe0$\x91\xe6>r-\xa1{\xf0\x7f3s\xf9\x93/\x8e,&q\xd6\xce^\x9ecO\x0fnK\xb81\x0c\x1f\xbe\xb5\xed7\x04D0\x88. \x96\xc5\x81[\xff\x15\x06,O\xd7\xc9Q\x83\x17\xb0~klh^\xa6\xd1\xcb2\xc5\xf5cN\xcb\xf2\x06\r\xa1\xf6\x0e\x82\x97\xd5R\x86\xc9\x9a\x854O\xcd\x04\x08\xcd1\xdc\xe4,\x7fk\x08\xf7 Zo\xd9\x8e!\x8c\xd8\xc8\x86\xbe\x85]\xe5\xdc\xf9\xd9\xdc\x9f\x14\xb5\xe1ode\xdfK\xfd\xd3XC\x14\xa2\x19\x96\x88S\xce\x15g\x8b\xc8_\xa4\x05\x1f\xb6k\xee\xe8ca\x8a$\xa0\x92@@\x175\xf7k\xd1I\x9b\xf0\x12\xd3@\xa2\x04\x97(AF\xa7B\x06\xaa\xadR\xca\x95xh\xb3q\xd6e\x90\xae\xf3\xf2\x07jr\x07E\xce\xc6\xe3/\x9d\x10+\xf2\xc4\x94\x0f\xa1\x8c\xe3\xe2^\x9c\x0e\x1e\xdewt.hz\x0ej\xa3p<Rl\x1c\xf2\xe9\xb0nY9\xb2\xbf_\xec\xb1\xaaOA$+\xf1,\xb7\x9c\xe2\x15\xe8\xcc<\xee\xf0\xaf!\x0c\xa1ziz-.]\x11I\xc3\r\x86\x06\'O%r{\xf2\x87\x8d\r\x80\x89\xb5\xb4B\xfd\xbdR\xf8\xf3\xc8\xfd@"\x158\xa1\x1c\x9cMnO\xfe\x13t\xbe\xe5\xf5T\r\xa54\x14\x13V\xaa~\xc9\xbd\xb9\x8a\x05\xd2\x8c\x08\xbe\xf38\xc5\x87\x1auga\xc0\xd0\xaf\xd6n\xe9GV4 \x97\xcd\xc7^\x98\xa1+p\x81\xd6\x91d\xaf\xa6\xf5/Jy\xbc\x9c\x10M\x0b\xf9w\xde\xbd\x8e\xa2P\r\x9f\x82~\x1e[\x98\xe1\x9e\xea\r\xd1:\xe4\x1a\x84a\x9a\xc6\xae\x1b\xb8\x08\x0e\x11\x808\x81\xf0)a\xf6U\xd8H\x84t\xf1\x96\x99\x91\xcf\xa8\xa29j\x7fR*Kc\x8f1U\xd9\xd3!>\xcej\xc5\xd0\x85!\xdfL\xbe\xe0^\x7fm\xcd_\xff\x1f\xbc\tdi\x83vw\x97\x0b\x16\xef\x92\xd6+\xea\xfd\x9f@$\xa4%l\x02\xf0\xc77"\xfc\xa6\x8b\x144\xdc\xafP\x0c\xad\xc6\xf2X\xe7 S\x07\xf9\x1e\xdaWi\xc0\xce\x14\xf4T\xf6\x95%\x19\xbc\x1e\xed\xc8\x88\xe1\x00\x00\xf1\xc2Ly\xb32\x80\\\x06\xd2\x81b>w\xb1\xdf\x05\xc9\xf0[\xff\xff\xdd\xf5\xd0j\xe81s\xf2Z]\xe3=wb\x16*\xe5\x98C5\xa5\xf2\x8d8\xc0;>\xfbq\x9e]\xef?y8\xa93\xd6\xb2E\xc9\x85VU%>\xab\x1a\xf9\xc9;\xb2\xe2\x11\xa2\xa2\xe9$z8\xd3\xa6D\xc9#\x80\t4\xe9\xceu\xcej~P[0\x88\x8f\xdc\xdcTgc\x98\x10\xc6%5\xae\x07\x83,d\xaa\x83\xe3t\xba;\xdau\x8d\xa6\x02\x81\x91a{aY\x9f&@\x8cq\x8a^\xff|\xd5\x0cp\xd1\x03\x1c\xc4\x07R\xb4\xef\x97T/N\x1b\x1b\xb9Z\xab w\x10=^\xa9ZH\x00\x9fO\xe8\x04\xe62\xb2#\x9d\x94\xa0\xcf\xf6\x88\xd3_\xbc\xda\x920\xd9\x1a\xe4\xb6t\xb1\x02\xc3w\xfc^\x02\x84\xbc\xf6\xe4\xca\xb9\xb9\xcc\x99B^\xdd/\xb1\x9a\xf6n\xec\xa6\xaa\x87\xd7C\xfb?\xbe\x8a\xe9\xf4\xa7E\xca\x04 \xa3\'m\xaa\xd2\xf50\xf9\xe0\x92T\xf0rj\x90\x0e\x1c&\xaf\xd4\x90\xa57:\xca\xd4\x9b\xa7\xcc\xb2\x0b\xf4\x06K\x07\x85\x85M\xd7\x05Y\x0f\xc4l:1\x9e\r\xe1\\<\xc2\xdb\xa1c\xa2(\xf8\r \xf8\xb8.\x92\xe9\xcar\xc7\x8e\xfd\xfe\x03,#)W\xbe\xea\x98b\xf1\x15\x05\xde\x83\xe9\xc4\xffH\xc4Z\xbc\xbb\xe7\x06kw\xb2v\xf3\xfe\x88}[7\xd8m\t\x18K:W\x8fSJ\x1eY\x04\xf4*\x06Zq\\\xd2\xe9v\x0e\xcbN\xf9\xf5Oh8\x82?\x08\x07\xfe\x00\xc9\xa5\x7fop\xd8\xcf\x97\x10\x1b>\xebK\x9bz\'r\xb1\x0cu\xf6\xa8\x0fGa]\x14v\x98\xbe7\xc2\x800\xea\x05;\xde]\x81?\xa1\x9c#\x07\xc7k\x8f\x0fZKg\x88\x87\xd0s#\xd2\xa9\x13\xaf\x8e\xa5Bo\x15\x1c\xdfm\x96\xef\x92#MU\xe1\x1ft\xce\xad9Q\x9e)\x8cM\xefz\xc0+\x8e\xf7\xa7g\xca\x83\xff%\xe1 \xf8\x0fJ\xd1\xf9\x02\x10\xf1\xd9\x11`\xb2\x82\xb5\x1c\x00\x03\x91\x0c\x80\xb1\xad\x8da\xfc\x957hA#3\xf2\xc8\xcc\x18\x8f/IG\xd7a\xc1\xb4\xc7\x9c=\x1b\x11@\xed\xc7Z\xc6R\xabM\xe5\xe1\x1b=y7_\xae\xd3\x17\xcc\x93\xa7\xfa\x08\\\'\t\xc4\x01\x10wry\xce:\xc2\x8c\xcaC\x90\xb9\xfd\xc4H\xa0\xaf\xb3\xc3&\xf8\xc1B\xf4\x80\xbb\x95\xb2\x06\xd5:\x15\xdf\xbdt\xb9\xd7\xc0\xfb)\x0c\xc0c+\xce\xfe6\x7f\x94\xb0\xb8\xd8\xfe\xe1\xaa\'\xdaHL\xa3\xc9\xe1\xa3Xy\xcb\xb4\x97\x0e\x0e\xd5\xa6\x84\x0cQ<\x17\x1d\xc4r\x99hf_\x98\xb2X\x88?m\x9a>\xd8dw^\x1c\xde\xb3>\x03\x85%;\xb4o\x8dt\xa5\xe8e\x8b\x97\xd6\x99J0K\x087\x06\xfe\xe0\x1f\'\x81\xa5\xf50\x15\xad\x80jE\x06"\xd8\xce3@\xff\x91\xf4\xf4n\x8a7\xdd\xc8n?Gf\xbd\xac}z\x81C\xd1\xfd\xf4\xdc\xd0\xc4P\x86\xf5\x067\x13\xd9\x8e\xde\x10bGw;\xb9\xa8\xc0\x10\xdb\x1b\x9d\xdah\x84\xf0\xce\xe5\xad_\x9e\xc2\n\xb0\xb7F\x8d\x87\xfa\xaa\x08\t\xa4V*\xf8\x00}\xb6\xba6A\x86\xdb\xb9\xe59\x10RrD\x8f\xcc%5M\x83\xe6P^\xf3\xae\xa1\xe2U{\xa8\x1d\xc1\x9a\xb4\xec\xb7\xbe\x97\xf0\xa6/_\xb8\xa6&\xef}?)\xc4\x8fx\xd2\x14\x8fN\xd4=\x8b(\xb7\xd6@\xcfF\xee\x16\xa0\x00\x8a\xa4'
tbI140
I0
F0
tbsg662
I01
sbtp712
asbasg657
(lp713
sbasg657
(lp714
sb(lp715
g3
(g669
g5
NtRp716
(dp717
g659
Nsg662
I01
sg649
S'idxs_take'
p718
sg655
(lp719
g3
(g669
g5
NtRp720
(dp721
g659
Nsg662
I01
sg649
S'array_union'
p722
sg655
(lp723
g3
(g669
g5
NtRp724
(dp725
g659
Nsg662
I01
sg649
g722
sg655
(lp726
g652
asg657
(lp727
sbasg657
(lp728
sbag3
(g669
g5
NtRp729
(dp730
g659
Nsg662
I01
sg649
S'idxs_map'
p731
sg655
(lp732
g720
ag3
(g651
g5
NtRp733
(dp734
g649
g654
sg655
(lp735
sg657
(lp736
sg659
I5
sg660
g672
sg662
I01
sbag3
(g669
g5
NtRp737
(dp738
g659
Nsg662
I00
sg649
g655
sg655
(lp739
g720
ag3
(g669
g5
NtRp740
(dp741
g659
Nsg662
I01
sg649
g718
sg655
(lp742
g3
(g669
g5
NtRp743
(dp744
g659
Nsg662
I01
sg649
g722
sg655
(lp745
g720
asg657
(lp746
sbag3
(g669
g5
NtRp747
(dp748
g659
Nsg662
I00
sg649
g684
sg655
(lp749
g686
ag690
ag694
asg657
(lp750
(lp751
S'size'
p752
ag3
(g669
g5
NtRp753
(dp754
g659
Nsg662
I01
sg649
S'len'
p755
sg655
(lp756
g743
asg657
(lp757
sbaa(g699
g3
(g651
g5
NtRp758
(dp759
g649
g654
sg655
(lp760
sg657
(lp761
sg659
Nsg660
g705
sg662
I01
sbtp762
asbag720
asg657
(lp763
sbasg657
(lp764
sbasg657
(lp765
sbag724
asg657
(lp766
sbasg3
(g669
g5
NtRp767
(dp768
g659
Nsg662
I00
sg649
g684
sg655
(lp769
g3
(g651
g5
NtRp770
(dp771
g649
g654
sg655
(lp772
sg657
(lp773
sg659
Nsg660
I1
sg662
I01
sbag3
(g651
g5
NtRp774
(dp775
g649
g654
sg655
(lp776
sg657
(lp777
sg659
Nsg660
I14
sg662
I01
sbag3
(g651
g5
NtRp778
(dp779
g649
g654
sg655
(lp780
sg657
(lp781
sg659
Nsg660
I1
sg662
I01
sbasg657
(lp782
(g699
g700
tp783
asb(lp784
g3
(g669
g5
NtRp785
(dp786
g659
Nsg662
I01
sg649
g718
sg655
(lp787
g3
(g669
g5
NtRp788
(dp789
g659
Nsg662
I01
sg649
g722
sg655
(lp790
g3
(g669
g5
NtRp791
(dp792
g659
Nsg662
I01
sg649
g722
sg655
(lp793
g724
asg657
(lp794
sbasg657
(lp795
sbag3
(g669
g5
NtRp796
(dp797
g659
Nsg662
I00
sg649
g684
sg655
(lp798
g770
ag774
ag778
asg657
(lp799
(lp800
g752
ag3
(g669
g5
NtRp801
(dp802
g659
Nsg662
I01
sg649
g755
sg655
(lp803
g788
asg657
(lp804
sbaa(g699
g758
tp805
asbag791
asg657
(lp806
sbasg686
(lp807
g3
(g669
g5
NtRp808
(dp809
g659
Nsg662
I01
sg649
g718
sg655
(lp810
g3
(g669
g5
NtRp811
(dp812
g659
Nsg662
I01
sg649
g722
sg655
(lp813
g652
asg657
(lp814
sbag3
(g669
g5
NtRp815
(dp816
g659
Nsg662
I01
sg649
S'asarray'
p817
sg655
(lp818
g3
(g669
g5
NtRp819
(dp820
g659
Nsg662
I01
sg649
S'repeat'
p821
sg655
(lp822
g3
(g669
g5
NtRp823
(dp824
g659
Nsg662
I01
sg649
g755
sg655
(lp825
g652
asg657
(lp826
sbag686
asg657
(lp827
sbasg657
(lp828
sbag743
asg657
(lp829
sbasg3
(g669
g5
NtRp830
(dp831
g659
Nsg662
I01
sg649
g672
sg655
(lp832
g3
(g669
g5
NtRp833
(dp834
g659
Nsg662
I00
sg649
g676
sg655
(lp835
g3
(g651
g5
NtRp836
(dp837
g649
g654
sg655
(lp838
sg657
(lp839
sg659
I11
sg660
g27
sg662
I01
sbag767
asg657
(lp840
sbasg657
(lp841
sb(lp842
g3
(g669
g5
NtRp843
(dp844
g659
Nsg662
I01
sg649
g718
sg655
(lp845
g791
ag3
(g669
g5
NtRp846
(dp847
g659
Nsg662
I01
sg649
g731
sg655
(lp848
g791
ag3
(g651
g5
NtRp849
(dp850
g649
g654
sg655
(lp851
sg657
(lp852
sg659
I5
sg660
g672
sg662
I01
sbag3
(g669
g5
NtRp853
(dp854
g659
Nsg662
I00
sg649
g655
sg655
(lp855
g791
ag785
asg657
(lp856
sbasg657
(lp857
sbag724
asg657
(lp858
sbasg3
(g669
g5
NtRp859
(dp860
g659
Nsg662
I01
sg649
g672
sg655
(lp861
g3
(g669
g5
NtRp862
(dp863
g659
Nsg662
I00
sg649
g676
sg655
(lp864
g3
(g651
g5
NtRp865
(dp866
g649
g654
sg655
(lp867
sg657
(lp868
sg659
I11
sg660
g23
sg662
I01
sbag3
(g669
g5
NtRp869
(dp870
g659
Nsg662
I00
sg649
g684
sg655
(lp871
g3
(g651
g5
NtRp872
(dp873
g649
g654
sg655
(lp874
sg657
(lp875
sg659
Nsg660
I1
sg662
I01
sbag3
(g651
g5
NtRp876
(dp877
g649
g654
sg655
(lp878
sg657
(lp879
sg659
Nsg660
I512
sg662
I01
sbag3
(g651
g5
NtRp880
(dp881
g649
g654
sg655
(lp882
sg657
(lp883
sg659
Nsg660
I2
sg662
I01
sbasg657
(lp884
(g699
g700
tp885
asbasg657
(lp886
sbasg657
(lp887
sb(lp888
g3
(g669
g5
NtRp889
(dp890
g659
Nsg662
I01
sg649
g718
sg655
(lp891
g3
(g669
g5
NtRp892
(dp893
g659
Nsg662
I01
sg649
g722
sg655
(lp894
g724
asg657
(lp895
sbag3
(g669
g5
NtRp896
(dp897
g659
Nsg662
I01
sg649
g731
sg655
(lp898
g892
ag3
(g651
g5
NtRp899
(dp900
g649
g654
sg655
(lp901
sg657
(lp902
sg659
I5
sg660
g672
sg662
I01
sbag3
(g669
g5
NtRp903
(dp904
g659
Nsg662
I00
sg649
g655
sg655
(lp905
g892
ag3
(g669
g5
NtRp906
(dp907
g659
Nsg662
I01
sg649
g718
sg655
(lp908
g3
(g669
g5
NtRp909
(dp910
g659
Nsg662
I01
sg649
g722
sg655
(lp911
g892
asg657
(lp912
sbag3
(g669
g5
NtRp913
(dp914
g659
Nsg662
I00
sg649
g684
sg655
(lp915
g872
ag876
ag880
asg657
(lp916
(lp917
g752
ag3
(g669
g5
NtRp918
(dp919
g659
Nsg662
I01
sg649
g755
sg655
(lp920
g909
asg657
(lp921
sbaa(g699
g758
tp922
asbag892
asg657
(lp923
sbasg657
(lp924
sbasg657
(lp925
sbag724
asg657
(lp926
sbasg778
(lp927
g3
(g669
g5
NtRp928
(dp929
g659
Nsg662
I01
sg649
g718
sg655
(lp930
g3
(g669
g5
NtRp931
(dp932
g659
Nsg662
I01
sg649
g722
sg655
(lp933
g652
asg657
(lp934
sbag3
(g669
g5
NtRp935
(dp936
g659
Nsg662
I01
sg649
g817
sg655
(lp937
g3
(g669
g5
NtRp938
(dp939
g659
Nsg662
I01
sg649
g821
sg655
(lp940
g3
(g669
g5
NtRp941
(dp942
g659
Nsg662
I01
sg649
g755
sg655
(lp943
g652
asg657
(lp944
sbag778
asg657
(lp945
sbasg657
(lp946
sbag788
asg657
(lp947
sbasg682
(lp948
g740
asg774
(lp949
g3
(g669
g5
NtRp950
(dp951
g659
Nsg662
I01
sg649
g718
sg655
(lp952
g3
(g669
g5
NtRp953
(dp954
g659
Nsg662
I01
sg649
g722
sg655
(lp955
g652
asg657
(lp956
sbag3
(g669
g5
NtRp957
(dp958
g659
Nsg662
I01
sg649
g817
sg655
(lp959
g3
(g669
g5
NtRp960
(dp961
g659
Nsg662
I01
sg649
g821
sg655
(lp962
g3
(g669
g5
NtRp963
(dp964
g659
Nsg662
I01
sg649
g755
sg655
(lp965
g652
asg657
(lp966
sbag774
asg657
(lp967
sbasg657
(lp968
sbag788
asg657
(lp969
sbasg869
(lp970
g906
asg872
(lp971
g3
(g669
g5
NtRp972
(dp973
g659
Nsg662
I01
sg649
g718
sg655
(lp974
g3
(g669
g5
NtRp975
(dp976
g659
Nsg662
I01
sg649
g722
sg655
(lp977
g652
asg657
(lp978
sbag3
(g669
g5
NtRp979
(dp980
g659
Nsg662
I01
sg649
g817
sg655
(lp981
g3
(g669
g5
NtRp982
(dp983
g659
Nsg662
I01
sg649
g821
sg655
(lp984
g3
(g669
g5
NtRp985
(dp986
g659
Nsg662
I01
sg649
g755
sg655
(lp987
g652
asg657
(lp988
sbag872
asg657
(lp989
sbasg657
(lp990
sbag909
asg657
(lp991
sbasg3
(g669
g5
NtRp992
(dp993
g659
I3
sg662
I00
sg649
S'dict'
p994
sg655
(lp995
sg657
(lp996
(lp997
S'conv1_depth'
p998
ag859
aa(lp999
g25
ag670
aa(lp1000
g27
ag830
aasb(lp1001
g3
(g669
g5
NtRp1002
(dp1003
g659
Nsg662
I01
sg649
g718
sg655
(lp1004
g724
ag3
(g669
g5
NtRp1005
(dp1006
g659
Nsg662
I01
sg649
g731
sg655
(lp1007
g724
ag3
(g651
g5
NtRp1008
(dp1009
g649
g654
sg655
(lp1010
sg657
(lp1011
sg659
I4
sg660
g994
sg662
I01
sbasg657
(lp1012
(lp1013
g998
ag3
(g669
g5
NtRp1014
(dp1015
g659
Nsg662
I00
sg649
g655
sg655
(lp1016
g724
ag889
asg657
(lp1017
sbaa(lp1018
g25
ag3
(g669
g5
NtRp1019
(dp1020
g659
Nsg662
I00
sg649
g655
sg655
(lp1021
g724
ag716
asg657
(lp1022
sbaa(lp1023
g27
ag3
(g669
g5
NtRp1024
(dp1025
g659
Nsg662
I00
sg649
g655
sg655
(lp1026
g724
ag843
asg657
(lp1027
sbaasbag652
asg657
(lp1028
sbasg690
(lp1029
g3
(g669
g5
NtRp1030
(dp1031
g659
Nsg662
I01
sg649
g718
sg655
(lp1032
g3
(g669
g5
NtRp1033
(dp1034
g659
Nsg662
I01
sg649
g722
sg655
(lp1035
g652
asg657
(lp1036
sbag3
(g669
g5
NtRp1037
(dp1038
g659
Nsg662
I01
sg649
g817
sg655
(lp1039
g3
(g669
g5
NtRp1040
(dp1041
g659
Nsg662
I01
sg649
g821
sg655
(lp1042
g3
(g669
g5
NtRp1043
(dp1044
g659
Nsg662
I01
sg649
g755
sg655
(lp1045
g652
asg657
(lp1046
sbag690
asg657
(lp1047
sbasg657
(lp1048
sbag743
asg657
(lp1049
sbasg876
(lp1050
g3
(g669
g5
NtRp1051
(dp1052
g659
Nsg662
I01
sg649
g718
sg655
(lp1053
g3
(g669
g5
NtRp1054
(dp1055
g659
Nsg662
I01
sg649
g722
sg655
(lp1056
g652
asg657
(lp1057
sbag3
(g669
g5
NtRp1058
(dp1059
g659
Nsg662
I01
sg649
g817
sg655
(lp1060
g3
(g669
g5
NtRp1061
(dp1062
g659
Nsg662
I01
sg649
g821
sg655
(lp1063
g3
(g669
g5
NtRp1064
(dp1065
g659
Nsg662
I01
sg649
g755
sg655
(lp1066
g652
asg657
(lp1067
sbag876
asg657
(lp1068
sbasg657
(lp1069
sbag909
asg657
(lp1070
sbasg770
(lp1071
g3
(g669
g5
NtRp1072
(dp1073
g659
Nsg662
I01
sg649
g718
sg655
(lp1074
g3
(g669
g5
NtRp1075
(dp1076
g659
Nsg662
I01
sg649
g722
sg655
(lp1077
g652
asg657
(lp1078
sbag3
(g669
g5
NtRp1079
(dp1080
g659
Nsg662
I01
sg649
g817
sg655
(lp1081
g3
(g669
g5
NtRp1082
(dp1083
g659
Nsg662
I01
sg649
g821
sg655
(lp1084
g3
(g669
g5
NtRp1085
(dp1086
g659
Nsg662
I01
sg649
g755
sg655
(lp1087
g652
asg657
(lp1088
sbag770
asg657
(lp1089
sbasg657
(lp1090
sbag788
asg657
(lp1091
sbasg880
(lp1092
g3
(g669
g5
NtRp1093
(dp1094
g659
Nsg662
I01
sg649
g718
sg655
(lp1095
g3
(g669
g5
NtRp1096
(dp1097
g659
Nsg662
I01
sg649
g722
sg655
(lp1098
g652
asg657
(lp1099
sbag3
(g669
g5
NtRp1100
(dp1101
g659
Nsg662
I01
sg649
g817
sg655
(lp1102
g3
(g669
g5
NtRp1103
(dp1104
g659
Nsg662
I01
sg649
g821
sg655
(lp1105
g3
(g669
g5
NtRp1106
(dp1107
g659
Nsg662
I01
sg649
g755
sg655
(lp1108
g652
asg657
(lp1109
sbag880
asg657
(lp1110
sbasg657
(lp1111
sbag909
asg657
(lp1112
sbasg694
(lp1113
g3
(g669
g5
NtRp1114
(dp1115
g659
Nsg662
I01
sg649
g718
sg655
(lp1116
g3
(g669
g5
NtRp1117
(dp1118
g659
Nsg662
I01
sg649
g722
sg655
(lp1119
g652
asg657
(lp1120
sbag3
(g669
g5
NtRp1121
(dp1122
g659
Nsg662
I01
sg649
g817
sg655
(lp1123
g3
(g669
g5
NtRp1124
(dp1125
g659
Nsg662
I01
sg649
g821
sg655
(lp1126
g3
(g669
g5
NtRp1127
(dp1128
g659
Nsg662
I01
sg649
g755
sg655
(lp1129
g652
asg657
(lp1130
sbag694
asg657
(lp1131
sbasg657
(lp1132
sbag743
asg657
(lp1133
sbassS'expr'
p1134
g992
sS'idxs_memo'
p1135
(dp1136
g670
g720
sg767
g788
sg686
g811
sg830
g791
sg859
g892
sg778
g931
sg682
g743
sg774
g953
sg869
g909
sg872
g975
sg992
g724
sg690
g1033
sg876
g1054
sg770
g1075
sg880
g1096
sg694
g1117
ssS'dfs_nodes'
p1137
(lp1138
g865
ag872
ag876
ag880
ag869
ag862
ag859
ag678
ag686
ag690
ag694
ag682
ag674
ag670
ag836
ag770
ag774
ag778
ag767
ag833
ag830
ag992
asS'params'
p1139
(dp1140
g23
g869
sg25
g682
sg27
g767
ssS'v_expr'
p1141
g1002
sS'expr_idxs'
p1142
g652
sbsg1134
g992
sS'pass_expr_memo_ctrl'
p1143
I00
sg699
g705
sg38
Nsg1139
(dp1144
g23
g869
sg25
g682
sg27
g767
ssS's_idxs_vals'
p1145
g3
(g669
g5
NtRp1146
(dp1147
g659
Nsg662
I01
sg649
g655
sg655
(lp1148
g3
(g669
g5
NtRp1149
(dp1150
g659
I3
sg662
I00
sg649
g994
sg655
(lp1151
sg657
(lp1152
(lp1153
g23
ag909
aa(lp1154
g25
ag743
aa(lp1155
g27
ag788
aasbag3
(g669
g5
NtRp1156
(dp1157
g659
I3
sg662
I00
sg649
g994
sg655
(lp1158
sg657
(lp1159
(lp1160
g23
ag913
aa(lp1161
g25
ag747
aa(lp1162
g27
ag796
aasbasg657
(lp1163
sbsS'loss_target'
p1164
NsS'installed_rng'
p1165
I01
sS'fn'
p1166
cHPOlib.cv
main
p1167
sbs.